
../../isrdemo/makefiles/bin/isrdemo:     file format elf64-littleriscv


Disassembly of section .text:

0000000010000000 <main>:
    10000000:	1141                	addi	sp,sp,-16
    10000002:	e406                	sd	ra,8(sp)
    10000004:	3ee000ef          	jal	ra,100003f2 <helloWorld>
    10000008:	60a2                	ld	ra,8(sp)
    1000000a:	4501                	li	a0,0
    1000000c:	0141                	addi	sp,sp,16
    1000000e:	8082                	ret
    10000010:	0000                	unimp
    10000012:	0000                	unimp
    10000014:	0000                	unimp
    10000016:	0000                	unimp
    10000018:	0000                	unimp
    1000001a:	0000                	unimp
    1000001c:	0000                	unimp
    1000001e:	0000                	unimp
    10000020:	0000                	unimp
    10000022:	0000                	unimp
    10000024:	0000                	unimp
    10000026:	0000                	unimp
    10000028:	0000                	unimp
    1000002a:	0000                	unimp
    1000002c:	0000                	unimp
    1000002e:	0000                	unimp
    10000030:	0000                	unimp
    10000032:	0000                	unimp
    10000034:	0000                	unimp
    10000036:	0000                	unimp
    10000038:	0000                	unimp
    1000003a:	0000                	unimp
    1000003c:	0000                	unimp
    1000003e:	0000                	unimp
    10000040:	0000                	unimp
    10000042:	0000                	unimp
    10000044:	0000                	unimp
    10000046:	0000                	unimp
    10000048:	0000                	unimp
    1000004a:	0000                	unimp
    1000004c:	0000                	unimp
    1000004e:	0000                	unimp
    10000050:	0000                	unimp
    10000052:	0000                	unimp
    10000054:	0000                	unimp
    10000056:	0000                	unimp
    10000058:	0000                	unimp
    1000005a:	0000                	unimp
    1000005c:	0000                	unimp
    1000005e:	0000                	unimp
    10000060:	0000                	unimp
    10000062:	0000                	unimp
    10000064:	0000                	unimp
    10000066:	0000                	unimp
    10000068:	0000                	unimp
    1000006a:	0000                	unimp
    1000006c:	0000                	unimp
    1000006e:	0000                	unimp
    10000070:	0000                	unimp
    10000072:	0000                	unimp
    10000074:	0000                	unimp
    10000076:	0000                	unimp
    10000078:	0000                	unimp
    1000007a:	0000                	unimp
    1000007c:	0000                	unimp
    1000007e:	0000                	unimp
    10000080:	0000                	unimp
    10000082:	0000                	unimp
    10000084:	0000                	unimp
    10000086:	0000                	unimp
    10000088:	0000                	unimp
    1000008a:	0000                	unimp
    1000008c:	0000                	unimp
    1000008e:	0000                	unimp
    10000090:	0000                	unimp
    10000092:	0000                	unimp
    10000094:	0000                	unimp
    10000096:	0000                	unimp
    10000098:	0000                	unimp
    1000009a:	0000                	unimp
    1000009c:	0000                	unimp
    1000009e:	0000                	unimp
    100000a0:	0000                	unimp
    100000a2:	0000                	unimp
    100000a4:	0000                	unimp
    100000a6:	0000                	unimp
    100000a8:	0000                	unimp
    100000aa:	0000                	unimp
    100000ac:	0000                	unimp
    100000ae:	0000                	unimp
    100000b0:	0000                	unimp
    100000b2:	0000                	unimp
    100000b4:	0000                	unimp
    100000b6:	0000                	unimp
    100000b8:	0000                	unimp
    100000ba:	0000                	unimp
    100000bc:	0000                	unimp
    100000be:	0000                	unimp
    100000c0:	0000                	unimp
    100000c2:	0000                	unimp
    100000c4:	0000                	unimp
    100000c6:	0000                	unimp
    100000c8:	0000                	unimp
    100000ca:	0000                	unimp
    100000cc:	0000                	unimp
    100000ce:	0000                	unimp
    100000d0:	0000                	unimp
    100000d2:	0000                	unimp
    100000d4:	0000                	unimp
    100000d6:	0000                	unimp
    100000d8:	0000                	unimp
    100000da:	0000                	unimp
    100000dc:	0000                	unimp
    100000de:	0000                	unimp
    100000e0:	0000                	unimp
    100000e2:	0000                	unimp
    100000e4:	0000                	unimp
    100000e6:	0000                	unimp
    100000e8:	0000                	unimp
    100000ea:	0000                	unimp
    100000ec:	0000                	unimp
    100000ee:	0000                	unimp
    100000f0:	0000                	unimp
    100000f2:	0000                	unimp
    100000f4:	0000                	unimp
    100000f6:	0000                	unimp
    100000f8:	0000                	unimp
    100000fa:	0000                	unimp
    100000fc:	0000                	unimp
    100000fe:	0000                	unimp

0000000010000100 <init_mtvec>:
    10000100:	00009297          	auipc	t0,0x9
    10000104:	8e82b283          	ld	t0,-1816(t0) # 100089e8 <_GLOBAL_OFFSET_TABLE_+0x8>
    10000108:	30529073          	csrw	mtvec,t0
    1000010c:	000012b7          	lui	t0,0x1
    10000110:	8002829b          	addiw	t0,t0,-2048
    10000114:	3042a073          	csrs	mie,t0
    10000118:	8082                	ret

000000001000011a <trap_entry>:
    1000011a:	0ff0000f          	fence
    1000011e:	34051073          	csrw	mscratch,a0
    10000122:	00123023          	sd	ra,0(tp) # 0 <_tbss_end>
    10000126:	00823423          	sd	s0,8(tp) # 8 <_tbss_end+0x8>
    1000012a:	00923823          	sd	s1,16(tp) # 10 <_tbss_end+0x10>
    1000012e:	01223c23          	sd	s2,24(tp) # 18 <_tbss_end+0x18>
    10000132:	03323023          	sd	s3,32(tp) # 20 <_tbss_end+0x20>
    10000136:	03423423          	sd	s4,40(tp) # 28 <_tbss_end+0x28>
    1000013a:	03523823          	sd	s5,48(tp) # 30 <_tbss_end+0x30>
    1000013e:	03623c23          	sd	s6,56(tp) # 38 <_tbss_end+0x38>
    10000142:	05723023          	sd	s7,64(tp) # 40 <_tbss_end+0x40>
    10000146:	05823423          	sd	s8,72(tp) # 48 <_tbss_end+0x48>
    1000014a:	05923823          	sd	s9,80(tp) # 50 <_tbss_end+0x50>
    1000014e:	05a23c23          	sd	s10,88(tp) # 58 <_tbss_end+0x58>
    10000152:	07b23023          	sd	s11,96(tp) # 60 <_tbss_end+0x60>
    10000156:	06223423          	sd	sp,104(tp) # 68 <_tbss_end+0x68>
    1000015a:	07023c23          	sd	a6,120(tp) # 78 <_tbss_end+0x78>
    1000015e:	09123023          	sd	a7,128(tp) # 80 <_tbss_end+0x80>
    10000162:	08a23423          	sd	a0,136(tp) # 88 <_tbss_end+0x88>
    10000166:	08b23823          	sd	a1,144(tp) # 90 <_tbss_end+0x90>
    1000016a:	08c23c23          	sd	a2,152(tp) # 98 <_tbss_end+0x98>
    1000016e:	0ad23023          	sd	a3,160(tp) # a0 <_tbss_end+0xa0>
    10000172:	0ae23423          	sd	a4,168(tp) # a8 <_tbss_end+0xa8>
    10000176:	0af23823          	sd	a5,176(tp) # b0 <_tbss_end+0xb0>
    1000017a:	0b023c23          	sd	a6,184(tp) # b8 <_tbss_end+0xb8>
    1000017e:	0d123023          	sd	a7,192(tp) # c0 <_tbss_end+0xc0>
    10000182:	0c523423          	sd	t0,200(tp) # c8 <_tbss_end+0xc8>
    10000186:	0c623823          	sd	t1,208(tp) # d0 <_tbss_end+0xd0>
    1000018a:	0c723c23          	sd	t2,216(tp) # d8 <_tbss_end+0xd8>
    1000018e:	0fc23023          	sd	t3,224(tp) # e0 <_tbss_end+0xe0>
    10000192:	0fd23423          	sd	t4,232(tp) # e8 <_tbss_end+0xe8>
    10000196:	0e323823          	sd	gp,240(tp) # f0 <_tbss_end+0xf0>
    1000019a:	34202573          	csrr	a0,mcause
    1000019e:	341025f3          	csrr	a1,mepc
    100001a2:	06b23823          	sd	a1,112(tp) # 70 <_tbss_end+0x70>
    100001a6:	860a                	mv	a2,sp
    100001a8:	000012b7          	lui	t0,0x1
    100001ac:	8002829b          	addiw	t0,t0,-2048
    100001b0:	3442b073          	csrc	mip,t0
    100001b4:	1ba000ef          	jal	ra,1000036e <isr_example_c>
    100001b8:	07023583          	ld	a1,112(tp) # 70 <_tbss_end+0x70>
    100001bc:	34159073          	csrw	mepc,a1
    100001c0:	00023083          	ld	ra,0(tp) # 0 <_tbss_end>
    100001c4:	00823403          	ld	s0,8(tp) # 8 <_tbss_end+0x8>
    100001c8:	01023483          	ld	s1,16(tp) # 10 <_tbss_end+0x10>
    100001cc:	01823903          	ld	s2,24(tp) # 18 <_tbss_end+0x18>
    100001d0:	02023983          	ld	s3,32(tp) # 20 <_tbss_end+0x20>
    100001d4:	02823a03          	ld	s4,40(tp) # 28 <_tbss_end+0x28>
    100001d8:	03023a83          	ld	s5,48(tp) # 30 <_tbss_end+0x30>
    100001dc:	03823b03          	ld	s6,56(tp) # 38 <_tbss_end+0x38>
    100001e0:	04023b83          	ld	s7,64(tp) # 40 <_tbss_end+0x40>
    100001e4:	04823c03          	ld	s8,72(tp) # 48 <_tbss_end+0x48>
    100001e8:	05023c83          	ld	s9,80(tp) # 50 <_tbss_end+0x50>
    100001ec:	05823d03          	ld	s10,88(tp) # 58 <_tbss_end+0x58>
    100001f0:	06023d83          	ld	s11,96(tp) # 60 <_tbss_end+0x60>
    100001f4:	06823103          	ld	sp,104(tp) # 68 <_tbss_end+0x68>
    100001f8:	07823803          	ld	a6,120(tp) # 78 <_tbss_end+0x78>
    100001fc:	08023883          	ld	a7,128(tp) # 80 <_tbss_end+0x80>
    10000200:	08823503          	ld	a0,136(tp) # 88 <_tbss_end+0x88>
    10000204:	09023583          	ld	a1,144(tp) # 90 <_tbss_end+0x90>
    10000208:	09823603          	ld	a2,152(tp) # 98 <_tbss_end+0x98>
    1000020c:	0a023683          	ld	a3,160(tp) # a0 <_tbss_end+0xa0>
    10000210:	0a823703          	ld	a4,168(tp) # a8 <_tbss_end+0xa8>
    10000214:	0b023783          	ld	a5,176(tp) # b0 <_tbss_end+0xb0>
    10000218:	0b823803          	ld	a6,184(tp) # b8 <_tbss_end+0xb8>
    1000021c:	0c023883          	ld	a7,192(tp) # c0 <_tbss_end+0xc0>
    10000220:	0c823283          	ld	t0,200(tp) # c8 <_tbss_end+0xc8>
    10000224:	0d023303          	ld	t1,208(tp) # d0 <_tbss_end+0xd0>
    10000228:	0d823383          	ld	t2,216(tp) # d8 <_tbss_end+0xd8>
    1000022c:	0e023e03          	ld	t3,224(tp) # e0 <_tbss_end+0xe0>
    10000230:	0e823e83          	ld	t4,232(tp) # e8 <_tbss_end+0xe8>
    10000234:	0f023183          	ld	gp,240(tp) # f0 <_tbss_end+0xf0>
    10000238:	30200073          	mret
    1000023c:	0000                	unimp
    1000023e:	0000                	unimp
    10000240:	0000                	unimp
    10000242:	0000                	unimp
    10000244:	0000                	unimp
    10000246:	0000                	unimp
    10000248:	0000                	unimp
    1000024a:	0000                	unimp
    1000024c:	0000                	unimp
    1000024e:	0000                	unimp
    10000250:	0000                	unimp
    10000252:	0000                	unimp
    10000254:	0000                	unimp
    10000256:	0000                	unimp
    10000258:	0000                	unimp
    1000025a:	0000                	unimp
    1000025c:	0000                	unimp
    1000025e:	0000                	unimp
    10000260:	0000                	unimp
    10000262:	0000                	unimp
    10000264:	0000                	unimp
    10000266:	0000                	unimp
    10000268:	0000                	unimp
    1000026a:	0000                	unimp
    1000026c:	0000                	unimp
    1000026e:	0000                	unimp
    10000270:	0000                	unimp
    10000272:	0000                	unimp
    10000274:	0000                	unimp
    10000276:	0000                	unimp
    10000278:	0000                	unimp
    1000027a:	0000                	unimp
    1000027c:	0000                	unimp
    1000027e:	0000                	unimp
    10000280:	0000                	unimp
    10000282:	0000                	unimp
    10000284:	0000                	unimp
    10000286:	0000                	unimp
    10000288:	0000                	unimp
    1000028a:	0000                	unimp
    1000028c:	0000                	unimp
    1000028e:	0000                	unimp
    10000290:	0000                	unimp
    10000292:	0000                	unimp
    10000294:	0000                	unimp
    10000296:	0000                	unimp
    10000298:	0000                	unimp
    1000029a:	0000                	unimp
    1000029c:	0000                	unimp
    1000029e:	0000                	unimp
    100002a0:	0000                	unimp
    100002a2:	0000                	unimp
    100002a4:	0000                	unimp
    100002a6:	0000                	unimp
    100002a8:	0000                	unimp
    100002aa:	0000                	unimp
    100002ac:	0000                	unimp
    100002ae:	0000                	unimp
    100002b0:	0000                	unimp
    100002b2:	0000                	unimp
    100002b4:	0000                	unimp
    100002b6:	0000                	unimp
    100002b8:	0000                	unimp
    100002ba:	0000                	unimp
    100002bc:	0000                	unimp
    100002be:	0000                	unimp
    100002c0:	0000                	unimp
    100002c2:	0000                	unimp
    100002c4:	0000                	unimp
    100002c6:	0000                	unimp
    100002c8:	0000                	unimp
    100002ca:	0000                	unimp
    100002cc:	0000                	unimp
    100002ce:	0000                	unimp
    100002d0:	0000                	unimp
    100002d2:	0000                	unimp
    100002d4:	0000                	unimp
    100002d6:	0000                	unimp
    100002d8:	0000                	unimp
    100002da:	0000                	unimp
    100002dc:	0000                	unimp
    100002de:	0000                	unimp
    100002e0:	0000                	unimp
    100002e2:	0000                	unimp
    100002e4:	0000                	unimp
    100002e6:	0000                	unimp
    100002e8:	0000                	unimp
    100002ea:	0000                	unimp
    100002ec:	0000                	unimp
    100002ee:	0000                	unimp
    100002f0:	0000                	unimp
    100002f2:	0000                	unimp
    100002f4:	0000                	unimp
    100002f6:	0000                	unimp
    100002f8:	0000                	unimp
    100002fa:	0000                	unimp
    100002fc:	0000                	unimp
    100002fe:	0000                	unimp
    10000300:	0000                	unimp

0000000010000302 <sbrk>:
    10000302:	00008517          	auipc	a0,0x8
    10000306:	6f653503          	ld	a0,1782(a0) # 100089f8 <_GLOBAL_OFFSET_TABLE_+0x18>
    1000030a:	8082                	ret

000000001000030c <print_uart>:
    1000030c:	02b05563          	blez	a1,10000336 <print_uart+0x2a>
    10000310:	35fd                	addiw	a1,a1,-1
    10000312:	1582                	slli	a1,a1,0x20
    10000314:	00080737          	lui	a4,0x80
    10000318:	00150693          	addi	a3,a0,1
    1000031c:	9181                	srli	a1,a1,0x20
    1000031e:	0705                	addi	a4,a4,1
    10000320:	96ae                	add	a3,a3,a1
    10000322:	0732                	slli	a4,a4,0xc
    10000324:	431c                	lw	a5,0(a4)
    10000326:	8b85                	andi	a5,a5,1
    10000328:	fff5                	bnez	a5,10000324 <print_uart+0x18>
    1000032a:	00054783          	lbu	a5,0(a0)
    1000032e:	0505                	addi	a0,a0,1
    10000330:	cb1c                	sw	a5,16(a4)
    10000332:	fed519e3          	bne	a0,a3,10000324 <print_uart+0x18>
    10000336:	8082                	ret

0000000010000338 <print_uart_hex>:
    10000338:	000807b7          	lui	a5,0x80
    1000033c:	0785                	addi	a5,a5,1
    1000033e:	03c00613          	li	a2,60
    10000342:	00c79713          	slli	a4,a5,0xc
    10000346:	4825                	li	a6,9
    10000348:	55f1                	li	a1,-4
    1000034a:	431c                	lw	a5,0(a4)
    1000034c:	8b85                	andi	a5,a5,1
    1000034e:	fff5                	bnez	a5,1000034a <print_uart_hex+0x12>
    10000350:	40c557b3          	sra	a5,a0,a2
    10000354:	8bbd                	andi	a5,a5,15
    10000356:	3671                	addiw	a2,a2,-4
    10000358:	05778693          	addi	a3,a5,87 # 80057 <_tbss_end+0x80057>
    1000035c:	00f86463          	bltu	a6,a5,10000364 <print_uart_hex+0x2c>
    10000360:	03078693          	addi	a3,a5,48
    10000364:	2681                	sext.w	a3,a3
    10000366:	cb14                	sw	a3,16(a4)
    10000368:	feb611e3          	bne	a2,a1,1000034a <print_uart_hex+0x12>
    1000036c:	8082                	ret

000000001000036e <isr_example_c>:
    1000036e:	1101                	addi	sp,sp,-32
    10000370:	e822                	sd	s0,16(sp)
    10000372:	e426                	sd	s1,8(sp)
    10000374:	842e                	mv	s0,a1
    10000376:	84aa                	mv	s1,a0
    10000378:	459d                	li	a1,7
    1000037a:	00007517          	auipc	a0,0x7
    1000037e:	b5e50513          	addi	a0,a0,-1186 # 10006ed8 <__clzdi2+0x32>
    10000382:	ec06                	sd	ra,24(sp)
    10000384:	f89ff0ef          	jal	ra,1000030c <print_uart>
    10000388:	8526                	mv	a0,s1
    1000038a:	00000097          	auipc	ra,0x0
    1000038e:	fae080e7          	jalr	-82(ra) # 10000338 <print_uart_hex>
    10000392:	4599                	li	a1,6
    10000394:	00007517          	auipc	a0,0x7
    10000398:	b4c50513          	addi	a0,a0,-1204 # 10006ee0 <__clzdi2+0x3a>
    1000039c:	f71ff0ef          	jal	ra,1000030c <print_uart>
    100003a0:	8522                	mv	a0,s0
    100003a2:	00000097          	auipc	ra,0x0
    100003a6:	f96080e7          	jalr	-106(ra) # 10000338 <print_uart_hex>
    100003aa:	4589                	li	a1,2
    100003ac:	00007517          	auipc	a0,0x7
    100003b0:	b3c50513          	addi	a0,a0,-1220 # 10006ee8 <__clzdi2+0x42>
    100003b4:	f59ff0ef          	jal	ra,1000030c <print_uart>
    100003b8:	000807b7          	lui	a5,0x80
    100003bc:	0795                	addi	a5,a5,5
    100003be:	07b2                	slli	a5,a5,0xc
    100003c0:	0007a423          	sw	zero,8(a5) # 80008 <_tbss_end+0x80008>
    100003c4:	400017b7          	lui	a5,0x40001
    100003c8:	0786                	slli	a5,a5,0x1
    100003ca:	577d                	li	a4,-1
    100003cc:	c798                	sw	a4,8(a5)
    100003ce:	4591                	li	a1,4
    100003d0:	00007517          	auipc	a0,0x7
    100003d4:	b2050513          	addi	a0,a0,-1248 # 10006ef0 <__clzdi2+0x4a>
    100003d8:	f35ff0ef          	jal	ra,1000030c <print_uart>
    100003dc:	60e2                	ld	ra,24(sp)
    100003de:	6442                	ld	s0,16(sp)
    100003e0:	00008797          	auipc	a5,0x8
    100003e4:	6107b783          	ld	a5,1552(a5) # 100089f0 <_GLOBAL_OFFSET_TABLE_+0x10>
    100003e8:	4705                	li	a4,1
    100003ea:	c398                	sw	a4,0(a5)
    100003ec:	64a2                	ld	s1,8(sp)
    100003ee:	6105                	addi	sp,sp,32
    100003f0:	8082                	ret

00000000100003f2 <helloWorld>:
    100003f2:	001007b7          	lui	a5,0x100
    100003f6:	17fd                	addi	a5,a5,-1
    100003f8:	7169                	addi	sp,sp,-304
    100003fa:	07b2                	slli	a5,a5,0xc
    100003fc:	f222                	sd	s0,288(sp)
    100003fe:	f606                	sd	ra,296(sp)
    10000400:	0087c403          	lbu	s0,8(a5) # 100008 <_tbss_end+0x100008>
    10000404:	ee26                	sd	s1,280(sp)
    10000406:	ea4a                	sd	s2,272(sp)
    10000408:	e64e                	sd	s3,264(sp)
    1000040a:	cf7ff0ef          	jal	ra,10000100 <init_mtvec>
    1000040e:	000807b7          	lui	a5,0x80
    10000412:	0795                	addi	a5,a5,5
    10000414:	07b2                	slli	a5,a5,0xc
    10000416:	e83d                	bnez	s0,1000048c <helloWorld+0x9a>
    10000418:	6715                	lui	a4,0x5
    1000041a:	e2070713          	addi	a4,a4,-480 # 4e20 <_tbss_end+0x4e20>
    1000041e:	ebb8                	sd	a4,80(a5)
    10000420:	000807b7          	lui	a5,0x80
    10000424:	0795                	addi	a5,a5,5
    10000426:	07b2                	slli	a5,a5,0xc
    10000428:	470d                	li	a4,3
    1000042a:	c3b8                	sw	a4,64(a5)
    1000042c:	400017b7          	lui	a5,0x40001
    10000430:	0786                	slli	a5,a5,0x1
    10000432:	4394                	lw	a3,0(a5)
    10000434:	4701                	li	a4,0
    10000436:	00008497          	auipc	s1,0x8
    1000043a:	5ba4b483          	ld	s1,1466(s1) # 100089f0 <_GLOBAL_OFFSET_TABLE_+0x10>
    1000043e:	9add                	andi	a3,a3,-9
    10000440:	c394                	sw	a3,0(a5)
    10000442:	0207a423          	sw	zero,40(a5) # 40001028 <_end+0x2fff8584>
    10000446:	840a                	mv	s0,sp
    10000448:	00007997          	auipc	s3,0x7
    1000044c:	ab098993          	addi	s3,s3,-1360 # 10006ef8 <__clzdi2+0x52>
    10000450:	409c                	lw	a5,0(s1)
    10000452:	863a                	mv	a2,a4
    10000454:	85ce                	mv	a1,s3
    10000456:	2781                	sext.w	a5,a5
    10000458:	8522                	mv	a0,s0
    1000045a:	0017091b          	addiw	s2,a4,1
    1000045e:	dbed                	beqz	a5,10000450 <helloWorld+0x5e>
    10000460:	0004a023          	sw	zero,0(s1)
    10000464:	00000097          	auipc	ra,0x0
    10000468:	07a080e7          	jalr	122(ra) # 100004de <sprintf>
    1000046c:	85aa                	mv	a1,a0
    1000046e:	8522                	mv	a0,s0
    10000470:	00000097          	auipc	ra,0x0
    10000474:	e9c080e7          	jalr	-356(ra) # 1000030c <print_uart>
    10000478:	409c                	lw	a5,0(s1)
    1000047a:	874a                	mv	a4,s2
    1000047c:	863a                	mv	a2,a4
    1000047e:	2781                	sext.w	a5,a5
    10000480:	85ce                	mv	a1,s3
    10000482:	8522                	mv	a0,s0
    10000484:	0017091b          	addiw	s2,a4,1
    10000488:	d7e1                	beqz	a5,10000450 <helloWorld+0x5e>
    1000048a:	bfd9                	j	10000460 <helloWorld+0x6e>
    1000048c:	02626737          	lui	a4,0x2626
    10000490:	a0070713          	addi	a4,a4,-1536 # 2625a00 <_tbss_end+0x2625a00>
    10000494:	ebb8                	sd	a4,80(a5)
    10000496:	b769                	j	10000420 <helloWorld+0x2e>
    10000498:	0000                	unimp

000000001000049a <_sprintf_r>:
    1000049a:	7111                	addi	sp,sp,-256
    1000049c:	f5be                	sd	a5,232(sp)
    1000049e:	800007b7          	lui	a5,0x80000
    100004a2:	fff7c793          	not	a5,a5
    100004a6:	d83e                	sw	a5,48(sp)
    100004a8:	800007b7          	lui	a5,0x80000
    100004ac:	fff7c793          	not	a5,a5
    100004b0:	ce3e                	sw	a5,28(sp)
    100004b2:	77c1                	lui	a5,0xffff0
    100004b4:	edb6                	sd	a3,216(sp)
    100004b6:	e82e                	sd	a1,16(sp)
    100004b8:	f42e                	sd	a1,40(sp)
    100004ba:	20878793          	addi	a5,a5,520 # ffffffffffff0208 <_end+0xffffffffeffe7764>
    100004be:	09b4                	addi	a3,sp,216
    100004c0:	080c                	addi	a1,sp,16
    100004c2:	e586                	sd	ra,200(sp)
    100004c4:	d03e                	sw	a5,32(sp)
    100004c6:	f1ba                	sd	a4,224(sp)
    100004c8:	f9c2                	sd	a6,240(sp)
    100004ca:	fdc6                	sd	a7,248(sp)
    100004cc:	e436                	sd	a3,8(sp)
    100004ce:	066000ef          	jal	ra,10000534 <_svfprintf_r>
    100004d2:	67c2                	ld	a5,16(sp)
    100004d4:	00078023          	sb	zero,0(a5)
    100004d8:	60ae                	ld	ra,200(sp)
    100004da:	6111                	addi	sp,sp,256
    100004dc:	8082                	ret

00000000100004de <sprintf>:
    100004de:	7111                	addi	sp,sp,-256
    100004e0:	f5be                	sd	a5,232(sp)
    100004e2:	800007b7          	lui	a5,0x80000
    100004e6:	fff7c793          	not	a5,a5
    100004ea:	d83e                	sw	a5,48(sp)
    100004ec:	800007b7          	lui	a5,0x80000
    100004f0:	fff7c793          	not	a5,a5
    100004f4:	ce3e                	sw	a5,28(sp)
    100004f6:	77c1                	lui	a5,0xffff0
    100004f8:	20878793          	addi	a5,a5,520 # ffffffffffff0208 <_end+0xffffffffeffe7764>
    100004fc:	e9b2                	sd	a2,208(sp)
    100004fe:	edb6                	sd	a3,216(sp)
    10000500:	f1ba                	sd	a4,224(sp)
    10000502:	f9c2                	sd	a6,240(sp)
    10000504:	fdc6                	sd	a7,248(sp)
    10000506:	d03e                	sw	a5,32(sp)
    10000508:	00008797          	auipc	a5,0x8
    1000050c:	53078793          	addi	a5,a5,1328 # 10008a38 <_impure_ptr>
    10000510:	e82a                	sd	a0,16(sp)
    10000512:	f42a                	sd	a0,40(sp)
    10000514:	6388                	ld	a0,0(a5)
    10000516:	0994                	addi	a3,sp,208
    10000518:	862e                	mv	a2,a1
    1000051a:	080c                	addi	a1,sp,16
    1000051c:	e586                	sd	ra,200(sp)
    1000051e:	e436                	sd	a3,8(sp)
    10000520:	00000097          	auipc	ra,0x0
    10000524:	014080e7          	jalr	20(ra) # 10000534 <_svfprintf_r>
    10000528:	67c2                	ld	a5,16(sp)
    1000052a:	00078023          	sb	zero,0(a5)
    1000052e:	60ae                	ld	ra,200(sp)
    10000530:	6111                	addi	sp,sp,256
    10000532:	8082                	ret

0000000010000534 <_svfprintf_r>:
    10000534:	da010113          	addi	sp,sp,-608
    10000538:	24113c23          	sd	ra,600(sp)
    1000053c:	24913423          	sd	s1,584(sp)
    10000540:	25213023          	sd	s2,576(sp)
    10000544:	23313c23          	sd	s3,568(sp)
    10000548:	21713c23          	sd	s7,536(sp)
    1000054c:	89ae                	mv	s3,a1
    1000054e:	84b2                	mv	s1,a2
    10000550:	8bb6                	mv	s7,a3
    10000552:	24813823          	sd	s0,592(sp)
    10000556:	23413823          	sd	s4,560(sp)
    1000055a:	23513423          	sd	s5,552(sp)
    1000055e:	23613023          	sd	s6,544(sp)
    10000562:	21813823          	sd	s8,528(sp)
    10000566:	21913423          	sd	s9,520(sp)
    1000056a:	21a13023          	sd	s10,512(sp)
    1000056e:	ffee                	sd	s11,504(sp)
    10000570:	892a                	mv	s2,a0
    10000572:	00003097          	auipc	ra,0x3
    10000576:	034080e7          	jalr	52(ra) # 100035a6 <_localeconv_r>
    1000057a:	611c                	ld	a5,0(a0)
    1000057c:	853e                	mv	a0,a5
    1000057e:	e8be                	sd	a5,80(sp)
    10000580:	0ec040ef          	jal	ra,1000466c <strlen>
    10000584:	0109d783          	lhu	a5,16(s3)
    10000588:	f02a                	sd	a0,32(sp)
    1000058a:	f182                	sd	zero,224(sp)
    1000058c:	f582                	sd	zero,232(sp)
    1000058e:	0807f793          	andi	a5,a5,128
    10000592:	cb85                	beqz	a5,100005c2 <_svfprintf_r+0x8e>
    10000594:	0189b783          	ld	a5,24(s3)
    10000598:	e78d                	bnez	a5,100005c2 <_svfprintf_r+0x8e>
    1000059a:	04000593          	li	a1,64
    1000059e:	854a                	mv	a0,s2
    100005a0:	040030ef          	jal	ra,100035e0 <_malloc_r>
    100005a4:	00a9b023          	sd	a0,0(s3)
    100005a8:	00a9bc23          	sd	a0,24(s3)
    100005ac:	e519                	bnez	a0,100005ba <_svfprintf_r+0x86>
    100005ae:	47b1                	li	a5,12
    100005b0:	00f92023          	sw	a5,0(s2)
    100005b4:	57fd                	li	a5,-1
    100005b6:	f83e                	sd	a5,48(sp)
    100005b8:	a34d                	j	10000b5a <_svfprintf_r+0x626>
    100005ba:	04000793          	li	a5,64
    100005be:	02f9a023          	sw	a5,32(s3)
    100005c2:	17010a93          	addi	s5,sp,368
    100005c6:	f9d6                	sd	s5,240(sp)
    100005c8:	e202                	sd	zero,256(sp)
    100005ca:	dd82                	sw	zero,248(sp)
    100005cc:	4a01                	li	s4,0
    100005ce:	8d56                	mv	s10,s5
    100005d0:	f482                	sd	zero,104(sp)
    100005d2:	f082                	sd	zero,96(sp)
    100005d4:	e402                	sd	zero,8(sp)
    100005d6:	e482                	sd	zero,72(sp)
    100005d8:	ec82                	sd	zero,88(sp)
    100005da:	f802                	sd	zero,48(sp)
    100005dc:	8426                	mv	s0,s1
    100005de:	02500713          	li	a4,37
    100005e2:	00044783          	lbu	a5,0(s0)
    100005e6:	c399                	beqz	a5,100005ec <_svfprintf_r+0xb8>
    100005e8:	08e79863          	bne	a5,a4,10000678 <_svfprintf_r+0x144>
    100005ec:	40940b3b          	subw	s6,s0,s1
    100005f0:	020b0d63          	beqz	s6,1000062a <_svfprintf_r+0xf6>
    100005f4:	6792                	ld	a5,256(sp)
    100005f6:	009d3023          	sd	s1,0(s10)
    100005fa:	016d3423          	sd	s6,8(s10)
    100005fe:	97da                	add	a5,a5,s6
    10000600:	e23e                	sd	a5,256(sp)
    10000602:	57ee                	lw	a5,248(sp)
    10000604:	0d41                	addi	s10,s10,16
    10000606:	0017871b          	addiw	a4,a5,1
    1000060a:	ddba                	sw	a4,248(sp)
    1000060c:	479d                	li	a5,7
    1000060e:	00e7da63          	ble	a4,a5,10000622 <_svfprintf_r+0xee>
    10000612:	1990                	addi	a2,sp,240
    10000614:	85ce                	mv	a1,s3
    10000616:	854a                	mv	a0,s2
    10000618:	09a040ef          	jal	ra,100046b2 <__ssprint_r>
    1000061c:	52051963          	bnez	a0,10000b4e <_svfprintf_r+0x61a>
    10000620:	8d56                	mv	s10,s5
    10000622:	57c2                	lw	a5,48(sp)
    10000624:	016787bb          	addw	a5,a5,s6
    10000628:	f83e                	sd	a5,48(sp)
    1000062a:	00044783          	lbu	a5,0(s0)
    1000062e:	e399                	bnez	a5,10000634 <_svfprintf_r+0x100>
    10000630:	4220106f          	j	10001a52 <_svfprintf_r+0x151e>
    10000634:	00140793          	addi	a5,s0,1
    10000638:	0a010fa3          	sb	zero,191(sp)
    1000063c:	5cfd                	li	s9,-1
    1000063e:	f402                	sd	zero,40(sp)
    10000640:	4401                	li	s0,0
    10000642:	4c29                	li	s8,10
    10000644:	4da5                	li	s11,9
    10000646:	0007cb03          	lbu	s6,0(a5)
    1000064a:	00178713          	addi	a4,a5,1
    1000064e:	ec3a                	sd	a4,24(sp)
    10000650:	05a00693          	li	a3,90
    10000654:	02a00613          	li	a2,42
    10000658:	fe0b079b          	addiw	a5,s6,-32
    1000065c:	0007871b          	sext.w	a4,a5
    10000660:	40e6e0e3          	bltu	a3,a4,10001260 <_svfprintf_r+0xd2c>
    10000664:	1782                	slli	a5,a5,0x20
    10000666:	00007717          	auipc	a4,0x7
    1000066a:	95a70713          	addi	a4,a4,-1702 # 10006fc0 <__clzdi2+0x11a>
    1000066e:	83f9                	srli	a5,a5,0x1e
    10000670:	97ba                	add	a5,a5,a4
    10000672:	439c                	lw	a5,0(a5)
    10000674:	97ba                	add	a5,a5,a4
    10000676:	8782                	jr	a5
    10000678:	0405                	addi	s0,s0,1
    1000067a:	b7a5                	j	100005e2 <_svfprintf_r+0xae>
    1000067c:	00007797          	auipc	a5,0x7
    10000680:	8d478793          	addi	a5,a5,-1836 # 10006f50 <__clzdi2+0xaa>
    10000684:	f4be                	sd	a5,104(sp)
    10000686:	008b8793          	addi	a5,s7,8
    1000068a:	fc3e                	sd	a5,56(sp)
    1000068c:	02047793          	andi	a5,s0,32
    10000690:	2a0781e3          	beqz	a5,10001132 <_svfprintf_r+0xbfe>
    10000694:	000bbb83          	ld	s7,0(s7)
    10000698:	00147793          	andi	a5,s0,1
    1000069c:	cf81                	beqz	a5,100006b4 <_svfprintf_r+0x180>
    1000069e:	000b8b63          	beqz	s7,100006b4 <_svfprintf_r+0x180>
    100006a2:	03000793          	li	a5,48
    100006a6:	00246413          	ori	s0,s0,2
    100006aa:	0cf10023          	sb	a5,192(sp)
    100006ae:	0d6100a3          	sb	s6,193(sp)
    100006b2:	2401                	sext.w	s0,s0
    100006b4:	bff47413          	andi	s0,s0,-1025
    100006b8:	2401                	sext.w	s0,s0
    100006ba:	4789                	li	a5,2
    100006bc:	1730006f          	j	1000102e <_svfprintf_r+0xafa>
    100006c0:	854a                	mv	a0,s2
    100006c2:	00003097          	auipc	ra,0x3
    100006c6:	ee4080e7          	jalr	-284(ra) # 100035a6 <_localeconv_r>
    100006ca:	651c                	ld	a5,8(a0)
    100006cc:	853e                	mv	a0,a5
    100006ce:	ecbe                	sd	a5,88(sp)
    100006d0:	79d030ef          	jal	ra,1000466c <strlen>
    100006d4:	e4aa                	sd	a0,72(sp)
    100006d6:	854a                	mv	a0,s2
    100006d8:	00003097          	auipc	ra,0x3
    100006dc:	ece080e7          	jalr	-306(ra) # 100035a6 <_localeconv_r>
    100006e0:	691c                	ld	a5,16(a0)
    100006e2:	e43e                	sd	a5,8(sp)
    100006e4:	67a6                	ld	a5,72(sp)
    100006e6:	c38d                	beqz	a5,10000708 <_svfprintf_r+0x1d4>
    100006e8:	67a2                	ld	a5,8(sp)
    100006ea:	cf99                	beqz	a5,10000708 <_svfprintf_r+0x1d4>
    100006ec:	0007c783          	lbu	a5,0(a5)
    100006f0:	cf81                	beqz	a5,10000708 <_svfprintf_r+0x1d4>
    100006f2:	40046413          	ori	s0,s0,1024
    100006f6:	2401                	sext.w	s0,s0
    100006f8:	a801                	j	10000708 <_svfprintf_r+0x1d4>
    100006fa:	0bf14783          	lbu	a5,191(sp)
    100006fe:	e789                	bnez	a5,10000708 <_svfprintf_r+0x1d4>
    10000700:	02000793          	li	a5,32
    10000704:	0af10fa3          	sb	a5,191(sp)
    10000708:	67e2                	ld	a5,24(sp)
    1000070a:	bf35                	j	10000646 <_svfprintf_r+0x112>
    1000070c:	00146413          	ori	s0,s0,1
    10000710:	b7dd                	j	100006f6 <_svfprintf_r+0x1c2>
    10000712:	000ba783          	lw	a5,0(s7)
    10000716:	0ba1                	addi	s7,s7,8
    10000718:	f43e                	sd	a5,40(sp)
    1000071a:	fe07d7e3          	bgez	a5,10000708 <_svfprintf_r+0x1d4>
    1000071e:	57a2                	lw	a5,40(sp)
    10000720:	40f007bb          	negw	a5,a5
    10000724:	f43e                	sd	a5,40(sp)
    10000726:	00446413          	ori	s0,s0,4
    1000072a:	b7f1                	j	100006f6 <_svfprintf_r+0x1c2>
    1000072c:	02b00793          	li	a5,43
    10000730:	bfd1                	j	10000704 <_svfprintf_r+0x1d0>
    10000732:	6762                	ld	a4,24(sp)
    10000734:	67e2                	ld	a5,24(sp)
    10000736:	00074b03          	lbu	s6,0(a4)
    1000073a:	0785                	addi	a5,a5,1
    1000073c:	02cb1c63          	bne	s6,a2,10000774 <_svfprintf_r+0x240>
    10000740:	000bae03          	lw	t3,0(s7)
    10000744:	008b8713          	addi	a4,s7,8
    10000748:	000e5363          	bgez	t3,1000074e <_svfprintf_r+0x21a>
    1000074c:	5e7d                	li	t3,-1
    1000074e:	000e0c9b          	sext.w	s9,t3
    10000752:	8bba                	mv	s7,a4
    10000754:	ec3e                	sd	a5,24(sp)
    10000756:	bf4d                	j	10000708 <_svfprintf_r+0x1d4>
    10000758:	039c0e3b          	mulw	t3,s8,s9
    1000075c:	0785                	addi	a5,a5,1
    1000075e:	fff7cb03          	lbu	s6,-1(a5)
    10000762:	00ee0cbb          	addw	s9,t3,a4
    10000766:	fd0b059b          	addiw	a1,s6,-48
    1000076a:	872e                	mv	a4,a1
    1000076c:	febdf6e3          	bleu	a1,s11,10000758 <_svfprintf_r+0x224>
    10000770:	ec3e                	sd	a5,24(sp)
    10000772:	b5dd                	j	10000658 <_svfprintf_r+0x124>
    10000774:	4c81                	li	s9,0
    10000776:	bfc5                	j	10000766 <_svfprintf_r+0x232>
    10000778:	08046413          	ori	s0,s0,128
    1000077c:	bfad                	j	100006f6 <_svfprintf_r+0x1c2>
    1000077e:	67e2                	ld	a5,24(sp)
    10000780:	f402                	sd	zero,40(sp)
    10000782:	5722                	lw	a4,40(sp)
    10000784:	fd0b0b1b          	addiw	s6,s6,-48
    10000788:	0785                	addi	a5,a5,1
    1000078a:	02ec073b          	mulw	a4,s8,a4
    1000078e:	00eb073b          	addw	a4,s6,a4
    10000792:	fff7cb03          	lbu	s6,-1(a5)
    10000796:	f43a                	sd	a4,40(sp)
    10000798:	fd0b071b          	addiw	a4,s6,-48
    1000079c:	feedf3e3          	bleu	a4,s11,10000782 <_svfprintf_r+0x24e>
    100007a0:	bfc1                	j	10000770 <_svfprintf_r+0x23c>
    100007a2:	00846413          	ori	s0,s0,8
    100007a6:	bf81                	j	100006f6 <_svfprintf_r+0x1c2>
    100007a8:	67e2                	ld	a5,24(sp)
    100007aa:	0007c703          	lbu	a4,0(a5)
    100007ae:	06800793          	li	a5,104
    100007b2:	00f71863          	bne	a4,a5,100007c2 <_svfprintf_r+0x28e>
    100007b6:	67e2                	ld	a5,24(sp)
    100007b8:	20046413          	ori	s0,s0,512
    100007bc:	0785                	addi	a5,a5,1
    100007be:	ec3e                	sd	a5,24(sp)
    100007c0:	bf1d                	j	100006f6 <_svfprintf_r+0x1c2>
    100007c2:	04046413          	ori	s0,s0,64
    100007c6:	bf05                	j	100006f6 <_svfprintf_r+0x1c2>
    100007c8:	67e2                	ld	a5,24(sp)
    100007ca:	0007c703          	lbu	a4,0(a5)
    100007ce:	06c00793          	li	a5,108
    100007d2:	00f71863          	bne	a4,a5,100007e2 <_svfprintf_r+0x2ae>
    100007d6:	67e2                	ld	a5,24(sp)
    100007d8:	0785                	addi	a5,a5,1
    100007da:	ec3e                	sd	a5,24(sp)
    100007dc:	02046413          	ori	s0,s0,32
    100007e0:	bf19                	j	100006f6 <_svfprintf_r+0x1c2>
    100007e2:	01046413          	ori	s0,s0,16
    100007e6:	bf01                	j	100006f6 <_svfprintf_r+0x1c2>
    100007e8:	008b8793          	addi	a5,s7,8
    100007ec:	fc3e                	sd	a5,56(sp)
    100007ee:	000ba783          	lw	a5,0(s7)
    100007f2:	0a010fa3          	sb	zero,191(sp)
    100007f6:	10f10423          	sb	a5,264(sp)
    100007fa:	4b81                	li	s7,0
    100007fc:	4c85                	li	s9,1
    100007fe:	4701                	li	a4,0
    10000800:	e802                	sd	zero,16(sp)
    10000802:	4c01                	li	s8,0
    10000804:	4d81                	li	s11,0
    10000806:	0224                	addi	s1,sp,264
    10000808:	86ba                	mv	a3,a4
    1000080a:	01975363          	ble	s9,a4,10000810 <_svfprintf_r+0x2dc>
    1000080e:	86e6                	mv	a3,s9
    10000810:	0bf14603          	lbu	a2,191(sp)
    10000814:	0006879b          	sext.w	a5,a3
    10000818:	e0be                	sd	a5,64(sp)
    1000081a:	c601                	beqz	a2,10000822 <_svfprintf_r+0x2ee>
    1000081c:	0016879b          	addiw	a5,a3,1
    10000820:	e0be                	sd	a5,64(sp)
    10000822:	00247693          	andi	a3,s0,2
    10000826:	0006879b          	sext.w	a5,a3
    1000082a:	f8be                	sd	a5,112(sp)
    1000082c:	c781                	beqz	a5,10000834 <_svfprintf_r+0x300>
    1000082e:	4786                	lw	a5,64(sp)
    10000830:	2789                	addiw	a5,a5,2
    10000832:	e0be                	sd	a5,64(sp)
    10000834:	08447793          	andi	a5,s0,132
    10000838:	fcbe                	sd	a5,120(sp)
    1000083a:	efa1                	bnez	a5,10000892 <_svfprintf_r+0x35e>
    1000083c:	57a2                	lw	a5,40(sp)
    1000083e:	4686                	lw	a3,64(sp)
    10000840:	40d786bb          	subw	a3,a5,a3
    10000844:	04d05763          	blez	a3,10000892 <_svfprintf_r+0x35e>
    10000848:	48c1                	li	a7,16
    1000084a:	00007817          	auipc	a6,0x7
    1000084e:	8e680813          	addi	a6,a6,-1818 # 10007130 <blanks.4397>
    10000852:	4e9d                	li	t4,7
    10000854:	55ee                	lw	a1,248(sp)
    10000856:	010d3023          	sd	a6,0(s10)
    1000085a:	6612                	ld	a2,256(sp)
    1000085c:	0015851b          	addiw	a0,a1,1
    10000860:	85aa                	mv	a1,a0
    10000862:	010d0f13          	addi	t5,s10,16
    10000866:	20d8c6e3          	blt	a7,a3,10001272 <_svfprintf_r+0xd3e>
    1000086a:	00dd3423          	sd	a3,8(s10)
    1000086e:	96b2                	add	a3,a3,a2
    10000870:	e236                	sd	a3,256(sp)
    10000872:	ddaa                	sw	a0,248(sp)
    10000874:	469d                	li	a3,7
    10000876:	8d7a                	mv	s10,t5
    10000878:	00a6dd63          	ble	a0,a3,10000892 <_svfprintf_r+0x35e>
    1000087c:	1990                	addi	a2,sp,240
    1000087e:	85ce                	mv	a1,s3
    10000880:	854a                	mv	a0,s2
    10000882:	e13a                	sd	a4,128(sp)
    10000884:	62f030ef          	jal	ra,100046b2 <__ssprint_r>
    10000888:	c119                	beqz	a0,1000088e <_svfprintf_r+0x35a>
    1000088a:	1840106f          	j	10001a0e <_svfprintf_r+0x14da>
    1000088e:	670a                	ld	a4,128(sp)
    10000890:	8d56                	mv	s10,s5
    10000892:	0bf14683          	lbu	a3,191(sp)
    10000896:	ce95                	beqz	a3,100008d2 <_svfprintf_r+0x39e>
    10000898:	0bf10693          	addi	a3,sp,191
    1000089c:	00dd3023          	sd	a3,0(s10)
    100008a0:	4685                	li	a3,1
    100008a2:	00dd3423          	sd	a3,8(s10)
    100008a6:	6692                	ld	a3,256(sp)
    100008a8:	0d41                	addi	s10,s10,16
    100008aa:	0685                	addi	a3,a3,1
    100008ac:	e236                	sd	a3,256(sp)
    100008ae:	56ee                	lw	a3,248(sp)
    100008b0:	0016861b          	addiw	a2,a3,1
    100008b4:	ddb2                	sw	a2,248(sp)
    100008b6:	469d                	li	a3,7
    100008b8:	00c6dd63          	ble	a2,a3,100008d2 <_svfprintf_r+0x39e>
    100008bc:	1990                	addi	a2,sp,240
    100008be:	85ce                	mv	a1,s3
    100008c0:	854a                	mv	a0,s2
    100008c2:	e13a                	sd	a4,128(sp)
    100008c4:	5ef030ef          	jal	ra,100046b2 <__ssprint_r>
    100008c8:	c119                	beqz	a0,100008ce <_svfprintf_r+0x39a>
    100008ca:	1440106f          	j	10001a0e <_svfprintf_r+0x14da>
    100008ce:	670a                	ld	a4,128(sp)
    100008d0:	8d56                	mv	s10,s5
    100008d2:	77c6                	ld	a5,112(sp)
    100008d4:	cf8d                	beqz	a5,1000090e <_svfprintf_r+0x3da>
    100008d6:	0194                	addi	a3,sp,192
    100008d8:	00dd3023          	sd	a3,0(s10)
    100008dc:	4689                	li	a3,2
    100008de:	00dd3423          	sd	a3,8(s10)
    100008e2:	6692                	ld	a3,256(sp)
    100008e4:	0d41                	addi	s10,s10,16
    100008e6:	0689                	addi	a3,a3,2
    100008e8:	e236                	sd	a3,256(sp)
    100008ea:	56ee                	lw	a3,248(sp)
    100008ec:	0016861b          	addiw	a2,a3,1
    100008f0:	ddb2                	sw	a2,248(sp)
    100008f2:	469d                	li	a3,7
    100008f4:	00c6dd63          	ble	a2,a3,1000090e <_svfprintf_r+0x3da>
    100008f8:	1990                	addi	a2,sp,240
    100008fa:	85ce                	mv	a1,s3
    100008fc:	854a                	mv	a0,s2
    100008fe:	f8ba                	sd	a4,112(sp)
    10000900:	5b3030ef          	jal	ra,100046b2 <__ssprint_r>
    10000904:	c119                	beqz	a0,1000090a <_svfprintf_r+0x3d6>
    10000906:	1080106f          	j	10001a0e <_svfprintf_r+0x14da>
    1000090a:	7746                	ld	a4,112(sp)
    1000090c:	8d56                	mv	s10,s5
    1000090e:	77e6                	ld	a5,120(sp)
    10000910:	08000693          	li	a3,128
    10000914:	04d79d63          	bne	a5,a3,1000096e <_svfprintf_r+0x43a>
    10000918:	57a2                	lw	a5,40(sp)
    1000091a:	4686                	lw	a3,64(sp)
    1000091c:	40d786bb          	subw	a3,a5,a3
    10000920:	04d05763          	blez	a3,1000096e <_svfprintf_r+0x43a>
    10000924:	4841                	li	a6,16
    10000926:	489d                	li	a7,7
    10000928:	55ee                	lw	a1,248(sp)
    1000092a:	00007797          	auipc	a5,0x7
    1000092e:	81678793          	addi	a5,a5,-2026 # 10007140 <zeroes.4398>
    10000932:	00fd3023          	sd	a5,0(s10)
    10000936:	0015851b          	addiw	a0,a1,1
    1000093a:	6612                	ld	a2,256(sp)
    1000093c:	85aa                	mv	a1,a0
    1000093e:	010d0e93          	addi	t4,s10,16
    10000942:	16d845e3          	blt	a6,a3,100012ac <_svfprintf_r+0xd78>
    10000946:	00dd3423          	sd	a3,8(s10)
    1000094a:	96b2                	add	a3,a3,a2
    1000094c:	e236                	sd	a3,256(sp)
    1000094e:	ddaa                	sw	a0,248(sp)
    10000950:	469d                	li	a3,7
    10000952:	8d76                	mv	s10,t4
    10000954:	00a6dd63          	ble	a0,a3,1000096e <_svfprintf_r+0x43a>
    10000958:	1990                	addi	a2,sp,240
    1000095a:	85ce                	mv	a1,s3
    1000095c:	854a                	mv	a0,s2
    1000095e:	f8ba                	sd	a4,112(sp)
    10000960:	553030ef          	jal	ra,100046b2 <__ssprint_r>
    10000964:	c119                	beqz	a0,1000096a <_svfprintf_r+0x436>
    10000966:	0a80106f          	j	10001a0e <_svfprintf_r+0x14da>
    1000096a:	7746                	ld	a4,112(sp)
    1000096c:	8d56                	mv	s10,s5
    1000096e:	4197073b          	subw	a4,a4,s9
    10000972:	04e05563          	blez	a4,100009bc <_svfprintf_r+0x488>
    10000976:	4841                	li	a6,16
    10000978:	489d                	li	a7,7
    1000097a:	566e                	lw	a2,248(sp)
    1000097c:	00006797          	auipc	a5,0x6
    10000980:	7c478793          	addi	a5,a5,1988 # 10007140 <zeroes.4398>
    10000984:	00fd3023          	sd	a5,0(s10)
    10000988:	0016059b          	addiw	a1,a2,1
    1000098c:	6692                	ld	a3,256(sp)
    1000098e:	862e                	mv	a2,a1
    10000990:	010d0513          	addi	a0,s10,16
    10000994:	14e847e3          	blt	a6,a4,100012e2 <_svfprintf_r+0xdae>
    10000998:	00ed3423          	sd	a4,8(s10)
    1000099c:	9736                	add	a4,a4,a3
    1000099e:	e23a                	sd	a4,256(sp)
    100009a0:	ddae                	sw	a1,248(sp)
    100009a2:	471d                	li	a4,7
    100009a4:	8d2a                	mv	s10,a0
    100009a6:	00b75b63          	ble	a1,a4,100009bc <_svfprintf_r+0x488>
    100009aa:	1990                	addi	a2,sp,240
    100009ac:	85ce                	mv	a1,s3
    100009ae:	854a                	mv	a0,s2
    100009b0:	503030ef          	jal	ra,100046b2 <__ssprint_r>
    100009b4:	c119                	beqz	a0,100009ba <_svfprintf_r+0x486>
    100009b6:	0580106f          	j	10001a0e <_svfprintf_r+0x14da>
    100009ba:	8d56                	mv	s10,s5
    100009bc:	10047693          	andi	a3,s0,256
    100009c0:	6712                	ld	a4,256(sp)
    100009c2:	140699e3          	bnez	a3,10001314 <_svfprintf_r+0xde0>
    100009c6:	57ee                	lw	a5,248(sp)
    100009c8:	00ec8e33          	add	t3,s9,a4
    100009cc:	009d3023          	sd	s1,0(s10)
    100009d0:	0017871b          	addiw	a4,a5,1
    100009d4:	019d3423          	sd	s9,8(s10)
    100009d8:	e272                	sd	t3,256(sp)
    100009da:	ddba                	sw	a4,248(sp)
    100009dc:	479d                	li	a5,7
    100009de:	0d41                	addi	s10,s10,16
    100009e0:	20e7d1e3          	ble	a4,a5,100013e2 <_svfprintf_r+0xeae>
    100009e4:	1990                	addi	a2,sp,240
    100009e6:	85ce                	mv	a1,s3
    100009e8:	854a                	mv	a0,s2
    100009ea:	4c9030ef          	jal	ra,100046b2 <__ssprint_r>
    100009ee:	c119                	beqz	a0,100009f4 <_svfprintf_r+0x4c0>
    100009f0:	01e0106f          	j	10001a0e <_svfprintf_r+0x14da>
    100009f4:	8d56                	mv	s10,s5
    100009f6:	1ed0006f          	j	100013e2 <_svfprintf_r+0xeae>
    100009fa:	01046413          	ori	s0,s0,16
    100009fe:	2401                	sext.w	s0,s0
    10000a00:	008b8793          	addi	a5,s7,8
    10000a04:	fc3e                	sd	a5,56(sp)
    10000a06:	02047793          	andi	a5,s0,32
    10000a0a:	cb85                	beqz	a5,10000a3a <_svfprintf_r+0x506>
    10000a0c:	000bbb83          	ld	s7,0(s7)
    10000a10:	000bd863          	bgez	s7,10000a20 <_svfprintf_r+0x4ec>
    10000a14:	02d00793          	li	a5,45
    10000a18:	41700bb3          	neg	s7,s7
    10000a1c:	0af10fa3          	sb	a5,191(sp)
    10000a20:	57fd                	li	a5,-1
    10000a22:	74fc9263          	bne	s9,a5,10001166 <_svfprintf_r+0xc32>
    10000a26:	47a5                	li	a5,9
    10000a28:	7977ed63          	bltu	a5,s7,100011c2 <_svfprintf_r+0xc8e>
    10000a2c:	030b8b9b          	addiw	s7,s7,48
    10000a30:	177105a3          	sb	s7,363(sp)
    10000a34:	16b10493          	addi	s1,sp,363
    10000a38:	af85                	j	100011a8 <_svfprintf_r+0xc74>
    10000a3a:	01047793          	andi	a5,s0,16
    10000a3e:	f7f9                	bnez	a5,10000a0c <_svfprintf_r+0x4d8>
    10000a40:	04047793          	andi	a5,s0,64
    10000a44:	c781                	beqz	a5,10000a4c <_svfprintf_r+0x518>
    10000a46:	000b9b83          	lh	s7,0(s7)
    10000a4a:	b7d9                	j	10000a10 <_svfprintf_r+0x4dc>
    10000a4c:	20047793          	andi	a5,s0,512
    10000a50:	c781                	beqz	a5,10000a58 <_svfprintf_r+0x524>
    10000a52:	000b8b83          	lb	s7,0(s7)
    10000a56:	bf6d                	j	10000a10 <_svfprintf_r+0x4dc>
    10000a58:	000bab83          	lw	s7,0(s7)
    10000a5c:	bf55                	j	10000a10 <_svfprintf_r+0x4dc>
    10000a5e:	00847793          	andi	a5,s0,8
    10000a62:	c3bd                	beqz	a5,10000ac8 <_svfprintf_r+0x594>
    10000a64:	0bbd                	addi	s7,s7,15
    10000a66:	ff0bfb93          	andi	s7,s7,-16
    10000a6a:	010b8793          	addi	a5,s7,16
    10000a6e:	fc3e                	sd	a5,56(sp)
    10000a70:	000bb783          	ld	a5,0(s7)
    10000a74:	f1be                	sd	a5,224(sp)
    10000a76:	008bb783          	ld	a5,8(s7)
    10000a7a:	f5be                	sd	a5,232(sp)
    10000a7c:	1188                	addi	a0,sp,224
    10000a7e:	2eb020ef          	jal	ra,10003568 <_ldcheck>
    10000a82:	c5aa                	sw	a0,200(sp)
    10000a84:	4789                	li	a5,2
    10000a86:	04f51b63          	bne	a0,a5,10000adc <_svfprintf_r+0x5a8>
    10000a8a:	750e                	ld	a0,224(sp)
    10000a8c:	75ae                	ld	a1,232(sp)
    10000a8e:	4601                	li	a2,0
    10000a90:	4681                	li	a3,0
    10000a92:	074050ef          	jal	ra,10005b06 <__letf2>
    10000a96:	00055663          	bgez	a0,10000aa2 <_svfprintf_r+0x56e>
    10000a9a:	02d00793          	li	a5,45
    10000a9e:	0af10fa3          	sb	a5,191(sp)
    10000aa2:	04700793          	li	a5,71
    10000aa6:	00006497          	auipc	s1,0x6
    10000aaa:	47a48493          	addi	s1,s1,1146 # 10006f20 <__clzdi2+0x7a>
    10000aae:	0167c663          	blt	a5,s6,10000aba <_svfprintf_r+0x586>
    10000ab2:	00006497          	auipc	s1,0x6
    10000ab6:	46648493          	addi	s1,s1,1126 # 10006f18 <__clzdi2+0x72>
    10000aba:	f7f47413          	andi	s0,s0,-129
    10000abe:	2401                	sext.w	s0,s0
    10000ac0:	4b81                	li	s7,0
    10000ac2:	4c8d                	li	s9,3
    10000ac4:	4701                	li	a4,0
    10000ac6:	a5fd                	j	100011b4 <_svfprintf_r+0xc80>
    10000ac8:	000bb507          	fld	fa0,0(s7)
    10000acc:	008b8793          	addi	a5,s7,8
    10000ad0:	fc3e                	sd	a5,56(sp)
    10000ad2:	09a060ef          	jal	ra,10006b6c <__extenddftf2>
    10000ad6:	f1aa                	sd	a0,224(sp)
    10000ad8:	f5ae                	sd	a1,232(sp)
    10000ada:	b74d                	j	10000a7c <_svfprintf_r+0x548>
    10000adc:	4785                	li	a5,1
    10000ade:	00f51f63          	bne	a0,a5,10000afc <_svfprintf_r+0x5c8>
    10000ae2:	04700793          	li	a5,71
    10000ae6:	00006497          	auipc	s1,0x6
    10000aea:	44a48493          	addi	s1,s1,1098 # 10006f30 <__clzdi2+0x8a>
    10000aee:	fd67c6e3          	blt	a5,s6,10000aba <_svfprintf_r+0x586>
    10000af2:	00006497          	auipc	s1,0x6
    10000af6:	43648493          	addi	s1,s1,1078 # 10006f28 <__clzdi2+0x82>
    10000afa:	b7c1                	j	10000aba <_svfprintf_r+0x586>
    10000afc:	fdfb7c13          	andi	s8,s6,-33
    10000b00:	04100793          	li	a5,65
    10000b04:	08fc1863          	bne	s8,a5,10000b94 <_svfprintf_r+0x660>
    10000b08:	03000793          	li	a5,48
    10000b0c:	0cf10023          	sb	a5,192(sp)
    10000b10:	06100713          	li	a4,97
    10000b14:	05800793          	li	a5,88
    10000b18:	00eb1463          	bne	s6,a4,10000b20 <_svfprintf_r+0x5ec>
    10000b1c:	07800793          	li	a5,120
    10000b20:	0cf100a3          	sb	a5,193(sp)
    10000b24:	00246413          	ori	s0,s0,2
    10000b28:	06300793          	li	a5,99
    10000b2c:	2401                	sext.w	s0,s0
    10000b2e:	1b97dc63          	ble	s9,a5,10000ce6 <_svfprintf_r+0x7b2>
    10000b32:	001c859b          	addiw	a1,s9,1
    10000b36:	854a                	mv	a0,s2
    10000b38:	2a9020ef          	jal	ra,100035e0 <_malloc_r>
    10000b3c:	84aa                	mv	s1,a0
    10000b3e:	1a051763          	bnez	a0,10000cec <_svfprintf_r+0x7b8>
    10000b42:	0109d783          	lhu	a5,16(s3)
    10000b46:	0407e793          	ori	a5,a5,64
    10000b4a:	00f99823          	sh	a5,16(s3)
    10000b4e:	0109d783          	lhu	a5,16(s3)
    10000b52:	0407f793          	andi	a5,a5,64
    10000b56:	a4079fe3          	bnez	a5,100005b4 <_svfprintf_r+0x80>
    10000b5a:	25813083          	ld	ra,600(sp)
    10000b5e:	25013403          	ld	s0,592(sp)
    10000b62:	7542                	ld	a0,48(sp)
    10000b64:	24813483          	ld	s1,584(sp)
    10000b68:	24013903          	ld	s2,576(sp)
    10000b6c:	23813983          	ld	s3,568(sp)
    10000b70:	23013a03          	ld	s4,560(sp)
    10000b74:	22813a83          	ld	s5,552(sp)
    10000b78:	22013b03          	ld	s6,544(sp)
    10000b7c:	21813b83          	ld	s7,536(sp)
    10000b80:	21013c03          	ld	s8,528(sp)
    10000b84:	20813c83          	ld	s9,520(sp)
    10000b88:	20013d03          	ld	s10,512(sp)
    10000b8c:	7dfe                	ld	s11,504(sp)
    10000b8e:	26010113          	addi	sp,sp,608
    10000b92:	8082                	ret
    10000b94:	57fd                	li	a5,-1
    10000b96:	14fc8d63          	beq	s9,a5,10000cf0 <_svfprintf_r+0x7bc>
    10000b9a:	04700793          	li	a5,71
    10000b9e:	4b81                	li	s7,0
    10000ba0:	00fc1463          	bne	s8,a5,10000ba8 <_svfprintf_r+0x674>
    10000ba4:	140c8963          	beqz	s9,10000cf6 <_svfprintf_r+0x7c2>
    10000ba8:	10046793          	ori	a5,s0,256
    10000bac:	7a2e                	ld	s4,232(sp)
    10000bae:	2781                	sext.w	a5,a5
    10000bb0:	e0be                	sd	a5,64(sp)
    10000bb2:	e102                	sd	zero,128(sp)
    10000bb4:	7e8e                	ld	t4,224(sp)
    10000bb6:	000a5963          	bgez	s4,10000bc8 <_svfprintf_r+0x694>
    10000bba:	57fd                	li	a5,-1
    10000bbc:	17fe                	slli	a5,a5,0x3f
    10000bbe:	00fa4a33          	xor	s4,s4,a5
    10000bc2:	02d00793          	li	a5,45
    10000bc6:	e13e                	sd	a5,128(sp)
    10000bc8:	04100793          	li	a5,65
    10000bcc:	24fc1763          	bne	s8,a5,10000e1a <_svfprintf_r+0x8e6>
    10000bd0:	8576                	mv	a0,t4
    10000bd2:	85d2                	mv	a1,s4
    10000bd4:	08e060ef          	jal	ra,10006c62 <__trunctfdf2>
    10000bd8:	01a8                	addi	a0,sp,200
    10000bda:	1cf030ef          	jal	ra,100045a8 <frexp>
    10000bde:	78f050ef          	jal	ra,10006b6c <__extenddftf2>
    10000be2:	00007797          	auipc	a5,0x7
    10000be6:	cce78793          	addi	a5,a5,-818 # 100078b0 <__clz_tab+0x100>
    10000bea:	6794                	ld	a3,8(a5)
    10000bec:	4601                	li	a2,0
    10000bee:	7df040ef          	jal	ra,10005bcc <__multf3>
    10000bf2:	4601                	li	a2,0
    10000bf4:	4681                	li	a3,0
    10000bf6:	e52a                	sd	a0,136(sp)
    10000bf8:	8dae                	mv	s11,a1
    10000bfa:	5a1040ef          	jal	ra,1000599a <__eqtf2>
    10000bfe:	e119                	bnez	a0,10000c04 <_svfprintf_r+0x6d0>
    10000c00:	4785                	li	a5,1
    10000c02:	c5be                	sw	a5,200(sp)
    10000c04:	00006717          	auipc	a4,0x6
    10000c08:	34c70713          	addi	a4,a4,844 # 10006f50 <__clzdi2+0xaa>
    10000c0c:	06100793          	li	a5,97
    10000c10:	e83a                	sd	a4,16(sp)
    10000c12:	00fb1763          	bne	s6,a5,10000c20 <_svfprintf_r+0x6ec>
    10000c16:	00006797          	auipc	a5,0x6
    10000c1a:	32278793          	addi	a5,a5,802 # 10006f38 <__clzdi2+0x92>
    10000c1e:	e83e                	sd	a5,16(sp)
    10000c20:	00007697          	auipc	a3,0x7
    10000c24:	ca068693          	addi	a3,a3,-864 # 100078c0 <__clz_tab+0x110>
    10000c28:	669c                	ld	a5,8(a3)
    10000c2a:	fffc871b          	addiw	a4,s9,-1
    10000c2e:	8a26                	mv	s4,s1
    10000c30:	e93e                	sd	a5,144(sp)
    10000c32:	66ca                	ld	a3,144(sp)
    10000c34:	652a                	ld	a0,136(sp)
    10000c36:	4601                	li	a2,0
    10000c38:	85ee                	mv	a1,s11
    10000c3a:	ed3a                	sd	a4,152(sp)
    10000c3c:	791040ef          	jal	ra,10005bcc <__multf3>
    10000c40:	8daa                	mv	s11,a0
    10000c42:	f8ae                	sd	a1,112(sp)
    10000c44:	601050ef          	jal	ra,10006a44 <__fixtfsi>
    10000c48:	0005079b          	sext.w	a5,a0
    10000c4c:	fcbe                	sd	a5,120(sp)
    10000c4e:	68b050ef          	jal	ra,10006ad8 <__floatsitf>
    10000c52:	77c6                	ld	a5,112(sp)
    10000c54:	86ae                	mv	a3,a1
    10000c56:	862a                	mv	a2,a0
    10000c58:	85be                	mv	a1,a5
    10000c5a:	856e                	mv	a0,s11
    10000c5c:	5c8050ef          	jal	ra,10006224 <__subtf3>
    10000c60:	67c2                	ld	a5,16(sp)
    10000c62:	7766                	ld	a4,120(sp)
    10000c64:	0a05                	addi	s4,s4,1
    10000c66:	e52a                	sd	a0,136(sp)
    10000c68:	00e786b3          	add	a3,a5,a4
    10000c6c:	676a                	ld	a4,152(sp)
    10000c6e:	0006c683          	lbu	a3,0(a3)
    10000c72:	88aa                	mv	a7,a0
    10000c74:	0007079b          	sext.w	a5,a4
    10000c78:	f8be                	sd	a5,112(sp)
    10000c7a:	feda0fa3          	sb	a3,-1(s4)
    10000c7e:	57fd                	li	a5,-1
    10000c80:	882e                	mv	a6,a1
    10000c82:	8dae                	mv	s11,a1
    10000c84:	06f70c63          	beq	a4,a5,10000cfc <_svfprintf_r+0x7c8>
    10000c88:	377d                	addiw	a4,a4,-1
    10000c8a:	4601                	li	a2,0
    10000c8c:	4681                	li	a3,0
    10000c8e:	ed3a                	sd	a4,152(sp)
    10000c90:	f52e                	sd	a1,168(sp)
    10000c92:	f12a                	sd	a0,160(sp)
    10000c94:	507040ef          	jal	ra,1000599a <__eqtf2>
    10000c98:	676a                	ld	a4,152(sp)
    10000c9a:	788a                	ld	a7,160(sp)
    10000c9c:	782a                	ld	a6,168(sp)
    10000c9e:	f951                	bnez	a0,10000c32 <_svfprintf_r+0x6fe>
    10000ca0:	00007717          	auipc	a4,0x7
    10000ca4:	c3070713          	addi	a4,a4,-976 # 100078d0 <__clz_tab+0x120>
    10000ca8:	00873d83          	ld	s11,8(a4)
    10000cac:	4601                	li	a2,0
    10000cae:	8546                	mv	a0,a7
    10000cb0:	86ee                	mv	a3,s11
    10000cb2:	85c2                	mv	a1,a6
    10000cb4:	e946                	sd	a7,144(sp)
    10000cb6:	e542                	sd	a6,136(sp)
    10000cb8:	589040ef          	jal	ra,10005a40 <__getf2>
    10000cbc:	04a04763          	bgtz	a0,10000d0a <_svfprintf_r+0x7d6>
    10000cc0:	68ca                	ld	a7,144(sp)
    10000cc2:	682a                	ld	a6,136(sp)
    10000cc4:	4601                	li	a2,0
    10000cc6:	86ee                	mv	a3,s11
    10000cc8:	8546                	mv	a0,a7
    10000cca:	85c2                	mv	a1,a6
    10000ccc:	4cf040ef          	jal	ra,1000599a <__eqtf2>
    10000cd0:	c90d                	beqz	a0,10000d02 <_svfprintf_r+0x7ce>
    10000cd2:	5746                	lw	a4,112(sp)
    10000cd4:	03000693          	li	a3,48
    10000cd8:	06074063          	bltz	a4,10000d38 <_svfprintf_r+0x804>
    10000cdc:	0a05                	addi	s4,s4,1
    10000cde:	feda0fa3          	sb	a3,-1(s4)
    10000ce2:	377d                	addiw	a4,a4,-1
    10000ce4:	bfd5                	j	10000cd8 <_svfprintf_r+0x7a4>
    10000ce6:	4b81                	li	s7,0
    10000ce8:	0224                	addi	s1,sp,264
    10000cea:	bd7d                	j	10000ba8 <_svfprintf_r+0x674>
    10000cec:	8baa                	mv	s7,a0
    10000cee:	bd6d                	j	10000ba8 <_svfprintf_r+0x674>
    10000cf0:	4b81                	li	s7,0
    10000cf2:	4c99                	li	s9,6
    10000cf4:	bd55                	j	10000ba8 <_svfprintf_r+0x674>
    10000cf6:	8be6                	mv	s7,s9
    10000cf8:	4c85                	li	s9,1
    10000cfa:	b57d                	j	10000ba8 <_svfprintf_r+0x674>
    10000cfc:	57fd                	li	a5,-1
    10000cfe:	f8be                	sd	a5,112(sp)
    10000d00:	b745                	j	10000ca0 <_svfprintf_r+0x76c>
    10000d02:	77e6                	ld	a5,120(sp)
    10000d04:	0017f713          	andi	a4,a5,1
    10000d08:	d769                	beqz	a4,10000cd2 <_svfprintf_r+0x79e>
    10000d0a:	67c2                	ld	a5,16(sp)
    10000d0c:	edd2                	sd	s4,216(sp)
    10000d0e:	03000593          	li	a1,48
    10000d12:	00f7c603          	lbu	a2,15(a5)
    10000d16:	66ee                	ld	a3,216(sp)
    10000d18:	fff68713          	addi	a4,a3,-1
    10000d1c:	edba                	sd	a4,216(sp)
    10000d1e:	fff6c703          	lbu	a4,-1(a3)
    10000d22:	0ec70563          	beq	a4,a2,10000e0c <_svfprintf_r+0x8d8>
    10000d26:	03900613          	li	a2,57
    10000d2a:	0ec71463          	bne	a4,a2,10000e12 <_svfprintf_r+0x8de>
    10000d2e:	67c2                	ld	a5,16(sp)
    10000d30:	00a7c703          	lbu	a4,10(a5)
    10000d34:	fee68fa3          	sb	a4,-1(a3)
    10000d38:	04700713          	li	a4,71
    10000d3c:	409a0a3b          	subw	s4,s4,s1
    10000d40:	4dae                	lw	s11,200(sp)
    10000d42:	18ec1663          	bne	s8,a4,10000ece <_svfprintf_r+0x99a>
    10000d46:	5775                	li	a4,-3
    10000d48:	00edc463          	blt	s11,a4,10000d50 <_svfprintf_r+0x81c>
    10000d4c:	1fbcd663          	ble	s11,s9,10000f38 <_svfprintf_r+0xa04>
    10000d50:	3b79                	addiw	s6,s6,-2
    10000d52:	fffd869b          	addiw	a3,s11,-1
    10000d56:	c5b6                	sw	a3,200(sp)
    10000d58:	fdfb7613          	andi	a2,s6,-33
    10000d5c:	04100513          	li	a0,65
    10000d60:	0ffb7713          	andi	a4,s6,255
    10000d64:	4581                	li	a1,0
    10000d66:	00a61663          	bne	a2,a0,10000d72 <_svfprintf_r+0x83e>
    10000d6a:	273d                	addiw	a4,a4,15
    10000d6c:	0ff77713          	andi	a4,a4,255
    10000d70:	4585                	li	a1,1
    10000d72:	0ce10823          	sb	a4,208(sp)
    10000d76:	02b00793          	li	a5,43
    10000d7a:	0006d763          	bgez	a3,10000d88 <_svfprintf_r+0x854>
    10000d7e:	4685                	li	a3,1
    10000d80:	41b686bb          	subw	a3,a3,s11
    10000d84:	02d00793          	li	a5,45
    10000d88:	0cf108a3          	sb	a5,209(sp)
    10000d8c:	47a5                	li	a5,9
    10000d8e:	16d7dc63          	ble	a3,a5,10000f06 <_svfprintf_r+0x9d2>
    10000d92:	0df10713          	addi	a4,sp,223
    10000d96:	853a                	mv	a0,a4
    10000d98:	45a9                	li	a1,10
    10000d9a:	4825                	li	a6,9
    10000d9c:	02b6e7bb          	remw	a5,a3,a1
    10000da0:	fff70613          	addi	a2,a4,-1
    10000da4:	02b6c6bb          	divw	a3,a3,a1
    10000da8:	0307879b          	addiw	a5,a5,48
    10000dac:	fef70fa3          	sb	a5,-1(a4)
    10000db0:	14d84263          	blt	a6,a3,10000ef4 <_svfprintf_r+0x9c0>
    10000db4:	0306879b          	addiw	a5,a3,48
    10000db8:	fef60fa3          	sb	a5,-1(a2)
    10000dbc:	1779                	addi	a4,a4,-2
    10000dbe:	0d210613          	addi	a2,sp,210
    10000dc2:	12a76b63          	bltu	a4,a0,10000ef8 <_svfprintf_r+0x9c4>
    10000dc6:	099c                	addi	a5,sp,208
    10000dc8:	40f607bb          	subw	a5,a2,a5
    10000dcc:	f0be                	sd	a5,96(sp)
    10000dce:	5786                	lw	a5,96(sp)
    10000dd0:	4705                	li	a4,1
    10000dd2:	01478cbb          	addw	s9,a5,s4
    10000dd6:	87e6                	mv	a5,s9
    10000dd8:	01474563          	blt	a4,s4,10000de2 <_svfprintf_r+0x8ae>
    10000ddc:	00147713          	andi	a4,s0,1
    10000de0:	c701                	beqz	a4,10000de8 <_svfprintf_r+0x8b4>
    10000de2:	5702                	lw	a4,32(sp)
    10000de4:	00e78cbb          	addw	s9,a5,a4
    10000de8:	bff47413          	andi	s0,s0,-1025
    10000dec:	2401                	sext.w	s0,s0
    10000dee:	10046793          	ori	a5,s0,256
    10000df2:	e0be                	sd	a5,64(sp)
    10000df4:	e802                	sd	zero,16(sp)
    10000df6:	4c01                	li	s8,0
    10000df8:	4d81                	li	s11,0
    10000dfa:	678a                	ld	a5,128(sp)
    10000dfc:	c789                	beqz	a5,10000e06 <_svfprintf_r+0x8d2>
    10000dfe:	02d00713          	li	a4,45
    10000e02:	0ae10fa3          	sb	a4,191(sp)
    10000e06:	6406                	ld	s0,64(sp)
    10000e08:	4701                	li	a4,0
    10000e0a:	bafd                	j	10000808 <_svfprintf_r+0x2d4>
    10000e0c:	feb68fa3          	sb	a1,-1(a3)
    10000e10:	b719                	j	10000d16 <_svfprintf_r+0x7e2>
    10000e12:	2705                	addiw	a4,a4,1
    10000e14:	0ff77713          	andi	a4,a4,255
    10000e18:	bf31                	j	10000d34 <_svfprintf_r+0x800>
    10000e1a:	04600793          	li	a5,70
    10000e1e:	00fc0b63          	beq	s8,a5,10000e34 <_svfprintf_r+0x900>
    10000e22:	04500793          	li	a5,69
    10000e26:	8de6                	mv	s11,s9
    10000e28:	00fc1463          	bne	s8,a5,10000e30 <_svfprintf_r+0x8fc>
    10000e2c:	001c8d9b          	addiw	s11,s9,1
    10000e30:	4689                	li	a3,2
    10000e32:	a019                	j	10000e38 <_svfprintf_r+0x904>
    10000e34:	8de6                	mv	s11,s9
    10000e36:	468d                	li	a3,3
    10000e38:	01bc                	addi	a5,sp,200
    10000e3a:	85f6                	mv	a1,t4
    10000e3c:	0d810893          	addi	a7,sp,216
    10000e40:	0cc10813          	addi	a6,sp,204
    10000e44:	876e                	mv	a4,s11
    10000e46:	8652                	mv	a2,s4
    10000e48:	854a                	mv	a0,s2
    10000e4a:	e876                	sd	t4,16(sp)
    10000e4c:	00002097          	auipc	ra,0x2
    10000e50:	d4c080e7          	jalr	-692(ra) # 10002b98 <_ldtoa_r>
    10000e54:	04700793          	li	a5,71
    10000e58:	84aa                	mv	s1,a0
    10000e5a:	6ec2                	ld	t4,16(sp)
    10000e5c:	00fc1563          	bne	s8,a5,10000e66 <_svfprintf_r+0x932>
    10000e60:	00147793          	andi	a5,s0,1
    10000e64:	cbb1                	beqz	a5,10000eb8 <_svfprintf_r+0x984>
    10000e66:	04600713          	li	a4,70
    10000e6a:	01b487b3          	add	a5,s1,s11
    10000e6e:	02ec1963          	bne	s8,a4,10000ea0 <_svfprintf_r+0x96c>
    10000e72:	0004c683          	lbu	a3,0(s1)
    10000e76:	03000713          	li	a4,48
    10000e7a:	02e69163          	bne	a3,a4,10000e9c <_svfprintf_r+0x968>
    10000e7e:	8576                	mv	a0,t4
    10000e80:	4601                	li	a2,0
    10000e82:	4681                	li	a3,0
    10000e84:	85d2                	mv	a1,s4
    10000e86:	f8be                	sd	a5,112(sp)
    10000e88:	e876                	sd	t4,16(sp)
    10000e8a:	311040ef          	jal	ra,1000599a <__eqtf2>
    10000e8e:	6ec2                	ld	t4,16(sp)
    10000e90:	77c6                	ld	a5,112(sp)
    10000e92:	c509                	beqz	a0,10000e9c <_svfprintf_r+0x968>
    10000e94:	4705                	li	a4,1
    10000e96:	41b70dbb          	subw	s11,a4,s11
    10000e9a:	c5ee                	sw	s11,200(sp)
    10000e9c:	472e                	lw	a4,200(sp)
    10000e9e:	97ba                	add	a5,a5,a4
    10000ea0:	4681                	li	a3,0
    10000ea2:	4601                	li	a2,0
    10000ea4:	8576                	mv	a0,t4
    10000ea6:	85d2                	mv	a1,s4
    10000ea8:	e83e                	sd	a5,16(sp)
    10000eaa:	2f1040ef          	jal	ra,1000599a <__eqtf2>
    10000eae:	67c2                	ld	a5,16(sp)
    10000eb0:	03000693          	li	a3,48
    10000eb4:	e909                	bnez	a0,10000ec6 <_svfprintf_r+0x992>
    10000eb6:	edbe                	sd	a5,216(sp)
    10000eb8:	6a6e                	ld	s4,216(sp)
    10000eba:	bdbd                	j	10000d38 <_svfprintf_r+0x804>
    10000ebc:	00170613          	addi	a2,a4,1
    10000ec0:	edb2                	sd	a2,216(sp)
    10000ec2:	00d70023          	sb	a3,0(a4)
    10000ec6:	676e                	ld	a4,216(sp)
    10000ec8:	fef76ae3          	bltu	a4,a5,10000ebc <_svfprintf_r+0x988>
    10000ecc:	b7f5                	j	10000eb8 <_svfprintf_r+0x984>
    10000ece:	04600713          	li	a4,70
    10000ed2:	e8ec10e3          	bne	s8,a4,10000d52 <_svfprintf_r+0x81e>
    10000ed6:	05b05863          	blez	s11,10000f26 <_svfprintf_r+0x9f2>
    10000eda:	000c9563          	bnez	s9,10000ee4 <_svfprintf_r+0x9b0>
    10000ede:	00147713          	andi	a4,s0,1
    10000ee2:	cf59                	beqz	a4,10000f80 <_svfprintf_r+0xa4c>
    10000ee4:	5782                	lw	a5,32(sp)
    10000ee6:	01b7873b          	addw	a4,a5,s11
    10000eea:	01970cbb          	addw	s9,a4,s9
    10000eee:	06600b13          	li	s6,102
    10000ef2:	a895                	j	10000f66 <_svfprintf_r+0xa32>
    10000ef4:	8732                	mv	a4,a2
    10000ef6:	b55d                	j	10000d9c <_svfprintf_r+0x868>
    10000ef8:	0705                	addi	a4,a4,1
    10000efa:	fff74783          	lbu	a5,-1(a4)
    10000efe:	0605                	addi	a2,a2,1
    10000f00:	fef60fa3          	sb	a5,-1(a2)
    10000f04:	bd7d                	j	10000dc2 <_svfprintf_r+0x88e>
    10000f06:	0d210713          	addi	a4,sp,210
    10000f0a:	e599                	bnez	a1,10000f18 <_svfprintf_r+0x9e4>
    10000f0c:	03000793          	li	a5,48
    10000f10:	0cf10923          	sb	a5,210(sp)
    10000f14:	0d310713          	addi	a4,sp,211
    10000f18:	0306879b          	addiw	a5,a3,48
    10000f1c:	00170613          	addi	a2,a4,1
    10000f20:	00f70023          	sb	a5,0(a4)
    10000f24:	b54d                	j	10000dc6 <_svfprintf_r+0x892>
    10000f26:	000c9563          	bnez	s9,10000f30 <_svfprintf_r+0x9fc>
    10000f2a:	00147713          	andi	a4,s0,1
    10000f2e:	cb39                	beqz	a4,10000f84 <_svfprintf_r+0xa50>
    10000f30:	5782                	lw	a5,32(sp)
    10000f32:	0017871b          	addiw	a4,a5,1
    10000f36:	bf55                	j	10000eea <_svfprintf_r+0x9b6>
    10000f38:	014dcc63          	blt	s11,s4,10000f50 <_svfprintf_r+0xa1c>
    10000f3c:	00147713          	andi	a4,s0,1
    10000f40:	8cee                	mv	s9,s11
    10000f42:	c701                	beqz	a4,10000f4a <_svfprintf_r+0xa16>
    10000f44:	5782                	lw	a5,32(sp)
    10000f46:	01b78cbb          	addw	s9,a5,s11
    10000f4a:	06700b13          	li	s6,103
    10000f4e:	a821                	j	10000f66 <_svfprintf_r+0xa32>
    10000f50:	5782                	lw	a5,32(sp)
    10000f52:	06700b13          	li	s6,103
    10000f56:	01478cbb          	addw	s9,a5,s4
    10000f5a:	01b04663          	bgtz	s11,10000f66 <_svfprintf_r+0xa32>
    10000f5e:	41bc8e3b          	subw	t3,s9,s11
    10000f62:	001e0c9b          	addiw	s9,t3,1
    10000f66:	40047413          	andi	s0,s0,1024
    10000f6a:	00040c1b          	sext.w	s8,s0
    10000f6e:	e802                	sd	zero,16(sp)
    10000f70:	e80c05e3          	beqz	s8,10000dfa <_svfprintf_r+0x8c6>
    10000f74:	4c01                	li	s8,0
    10000f76:	e9b052e3          	blez	s11,10000dfa <_svfprintf_r+0x8c6>
    10000f7a:	0ff00693          	li	a3,255
    10000f7e:	a01d                	j	10000fa4 <_svfprintf_r+0xa70>
    10000f80:	8cee                	mv	s9,s11
    10000f82:	b7b5                	j	10000eee <_svfprintf_r+0x9ba>
    10000f84:	06600b13          	li	s6,102
    10000f88:	4c85                	li	s9,1
    10000f8a:	bff1                	j	10000f66 <_svfprintf_r+0xa32>
    10000f8c:	2701                	sext.w	a4,a4
    10000f8e:	03b75063          	ble	s11,a4,10000fae <_svfprintf_r+0xa7a>
    10000f92:	67a2                	ld	a5,8(sp)
    10000f94:	40ed8dbb          	subw	s11,s11,a4
    10000f98:	0017c703          	lbu	a4,1(a5)
    10000f9c:	c315                	beqz	a4,10000fc0 <_svfprintf_r+0xa8c>
    10000f9e:	0785                	addi	a5,a5,1
    10000fa0:	2c05                	addiw	s8,s8,1
    10000fa2:	e43e                	sd	a5,8(sp)
    10000fa4:	67a2                	ld	a5,8(sp)
    10000fa6:	0007c703          	lbu	a4,0(a5)
    10000faa:	fed711e3          	bne	a4,a3,10000f8c <_svfprintf_r+0xa58>
    10000fae:	47c2                	lw	a5,16(sp)
    10000fb0:	00fc073b          	addw	a4,s8,a5
    10000fb4:	47a6                	lw	a5,72(sp)
    10000fb6:	02f7073b          	mulw	a4,a4,a5
    10000fba:	01970cbb          	addw	s9,a4,s9
    10000fbe:	bd35                	j	10000dfa <_svfprintf_r+0x8c6>
    10000fc0:	47c2                	lw	a5,16(sp)
    10000fc2:	2785                	addiw	a5,a5,1
    10000fc4:	e83e                	sd	a5,16(sp)
    10000fc6:	bff9                	j	10000fa4 <_svfprintf_r+0xa70>
    10000fc8:	008b8713          	addi	a4,s7,8
    10000fcc:	fc3a                	sd	a4,56(sp)
    10000fce:	02047713          	andi	a4,s0,32
    10000fd2:	000bb783          	ld	a5,0(s7)
    10000fd6:	c719                	beqz	a4,10000fe4 <_svfprintf_r+0xab0>
    10000fd8:	7742                	ld	a4,48(sp)
    10000fda:	e398                	sd	a4,0(a5)
    10000fdc:	7be2                	ld	s7,56(sp)
    10000fde:	64e2                	ld	s1,24(sp)
    10000fe0:	dfcff06f          	j	100005dc <_svfprintf_r+0xa8>
    10000fe4:	01047713          	andi	a4,s0,16
    10000fe8:	fb65                	bnez	a4,10000fd8 <_svfprintf_r+0xaa4>
    10000fea:	04047713          	andi	a4,s0,64
    10000fee:	c711                	beqz	a4,10000ffa <_svfprintf_r+0xac6>
    10000ff0:	03015703          	lhu	a4,48(sp)
    10000ff4:	00e79023          	sh	a4,0(a5)
    10000ff8:	b7d5                	j	10000fdc <_svfprintf_r+0xaa8>
    10000ffa:	20047413          	andi	s0,s0,512
    10000ffe:	c411                	beqz	s0,1000100a <_svfprintf_r+0xad6>
    10001000:	03014703          	lbu	a4,48(sp)
    10001004:	00e78023          	sb	a4,0(a5)
    10001008:	bfd1                	j	10000fdc <_svfprintf_r+0xaa8>
    1000100a:	5742                	lw	a4,48(sp)
    1000100c:	c398                	sw	a4,0(a5)
    1000100e:	b7f9                	j	10000fdc <_svfprintf_r+0xaa8>
    10001010:	01046413          	ori	s0,s0,16
    10001014:	2401                	sext.w	s0,s0
    10001016:	008b8793          	addi	a5,s7,8
    1000101a:	fc3e                	sd	a5,56(sp)
    1000101c:	02047793          	andi	a5,s0,32
    10001020:	cb85                	beqz	a5,10001050 <_svfprintf_r+0xb1c>
    10001022:	000bbb83          	ld	s7,0(s7)
    10001026:	bff47413          	andi	s0,s0,-1025
    1000102a:	2401                	sext.w	s0,s0
    1000102c:	4781                	li	a5,0
    1000102e:	0a010fa3          	sb	zero,191(sp)
    10001032:	577d                	li	a4,-1
    10001034:	12ec8c63          	beq	s9,a4,1000116c <_svfprintf_r+0xc38>
    10001038:	8722                	mv	a4,s0
    1000103a:	f7f47413          	andi	s0,s0,-129
    1000103e:	2401                	sext.w	s0,s0
    10001040:	120b9663          	bnez	s7,1000116c <_svfprintf_r+0xc38>
    10001044:	200c8463          	beqz	s9,1000124c <_svfprintf_r+0xd18>
    10001048:	4705                	li	a4,1
    1000104a:	12e79463          	bne	a5,a4,10001172 <_svfprintf_r+0xc3e>
    1000104e:	baf9                	j	10000a2c <_svfprintf_r+0x4f8>
    10001050:	01047793          	andi	a5,s0,16
    10001054:	f7f9                	bnez	a5,10001022 <_svfprintf_r+0xaee>
    10001056:	04047793          	andi	a5,s0,64
    1000105a:	000bab83          	lw	s7,0(s7)
    1000105e:	c789                	beqz	a5,10001068 <_svfprintf_r+0xb34>
    10001060:	1bc2                	slli	s7,s7,0x30
    10001062:	030bdb93          	srli	s7,s7,0x30
    10001066:	b7c1                	j	10001026 <_svfprintf_r+0xaf2>
    10001068:	20047793          	andi	a5,s0,512
    1000106c:	c781                	beqz	a5,10001074 <_svfprintf_r+0xb40>
    1000106e:	0ffbfb93          	andi	s7,s7,255
    10001072:	bf55                	j	10001026 <_svfprintf_r+0xaf2>
    10001074:	1b82                	slli	s7,s7,0x20
    10001076:	020bdb93          	srli	s7,s7,0x20
    1000107a:	b775                	j	10001026 <_svfprintf_r+0xaf2>
    1000107c:	008b8793          	addi	a5,s7,8
    10001080:	fc3e                	sd	a5,56(sp)
    10001082:	77e1                	lui	a5,0xffff8
    10001084:	8307c793          	xori	a5,a5,-2000
    10001088:	00246413          	ori	s0,s0,2
    1000108c:	0cf11023          	sh	a5,192(sp)
    10001090:	00006797          	auipc	a5,0x6
    10001094:	ea878793          	addi	a5,a5,-344 # 10006f38 <__clzdi2+0x92>
    10001098:	f4be                	sd	a5,104(sp)
    1000109a:	000bbb83          	ld	s7,0(s7)
    1000109e:	2401                	sext.w	s0,s0
    100010a0:	4789                	li	a5,2
    100010a2:	07800b13          	li	s6,120
    100010a6:	b761                	j	1000102e <_svfprintf_r+0xafa>
    100010a8:	008b8793          	addi	a5,s7,8
    100010ac:	fc3e                	sd	a5,56(sp)
    100010ae:	0a010fa3          	sb	zero,191(sp)
    100010b2:	57fd                	li	a5,-1
    100010b4:	000bb483          	ld	s1,0(s7)
    100010b8:	00fc8e63          	beq	s9,a5,100010d4 <_svfprintf_r+0xba0>
    100010bc:	8666                	mv	a2,s9
    100010be:	4581                	li	a1,0
    100010c0:	8526                	mv	a0,s1
    100010c2:	27b020ef          	jal	ra,10003b3c <memchr>
    100010c6:	8baa                	mv	s7,a0
    100010c8:	9e050ee3          	beqz	a0,10000ac4 <_svfprintf_r+0x590>
    100010cc:	40950cbb          	subw	s9,a0,s1
    100010d0:	4b81                	li	s7,0
    100010d2:	bacd                	j	10000ac4 <_svfprintf_r+0x590>
    100010d4:	8526                	mv	a0,s1
    100010d6:	596030ef          	jal	ra,1000466c <strlen>
    100010da:	00050c9b          	sext.w	s9,a0
    100010de:	bfcd                	j	100010d0 <_svfprintf_r+0xb9c>
    100010e0:	01046413          	ori	s0,s0,16
    100010e4:	2401                	sext.w	s0,s0
    100010e6:	008b8793          	addi	a5,s7,8
    100010ea:	fc3e                	sd	a5,56(sp)
    100010ec:	02047793          	andi	a5,s0,32
    100010f0:	c789                	beqz	a5,100010fa <_svfprintf_r+0xbc6>
    100010f2:	000bbb83          	ld	s7,0(s7)
    100010f6:	4785                	li	a5,1
    100010f8:	bf1d                	j	1000102e <_svfprintf_r+0xafa>
    100010fa:	01047793          	andi	a5,s0,16
    100010fe:	fbf5                	bnez	a5,100010f2 <_svfprintf_r+0xbbe>
    10001100:	04047793          	andi	a5,s0,64
    10001104:	000bab83          	lw	s7,0(s7)
    10001108:	c789                	beqz	a5,10001112 <_svfprintf_r+0xbde>
    1000110a:	1bc2                	slli	s7,s7,0x30
    1000110c:	030bdb93          	srli	s7,s7,0x30
    10001110:	b7dd                	j	100010f6 <_svfprintf_r+0xbc2>
    10001112:	20047793          	andi	a5,s0,512
    10001116:	c781                	beqz	a5,1000111e <_svfprintf_r+0xbea>
    10001118:	0ffbfb93          	andi	s7,s7,255
    1000111c:	bfe9                	j	100010f6 <_svfprintf_r+0xbc2>
    1000111e:	1b82                	slli	s7,s7,0x20
    10001120:	020bdb93          	srli	s7,s7,0x20
    10001124:	bfc9                	j	100010f6 <_svfprintf_r+0xbc2>
    10001126:	00006797          	auipc	a5,0x6
    1000112a:	e1278793          	addi	a5,a5,-494 # 10006f38 <__clzdi2+0x92>
    1000112e:	d56ff06f          	j	10000684 <_svfprintf_r+0x150>
    10001132:	01047793          	andi	a5,s0,16
    10001136:	d4079f63          	bnez	a5,10000694 <_svfprintf_r+0x160>
    1000113a:	04047793          	andi	a5,s0,64
    1000113e:	000bab83          	lw	s7,0(s7)
    10001142:	c791                	beqz	a5,1000114e <_svfprintf_r+0xc1a>
    10001144:	1bc2                	slli	s7,s7,0x30
    10001146:	030bdb93          	srli	s7,s7,0x30
    1000114a:	d4eff06f          	j	10000698 <_svfprintf_r+0x164>
    1000114e:	20047793          	andi	a5,s0,512
    10001152:	c789                	beqz	a5,1000115c <_svfprintf_r+0xc28>
    10001154:	0ffbfb93          	andi	s7,s7,255
    10001158:	d40ff06f          	j	10000698 <_svfprintf_r+0x164>
    1000115c:	1b82                	slli	s7,s7,0x20
    1000115e:	020bdb93          	srli	s7,s7,0x20
    10001162:	d36ff06f          	j	10000698 <_svfprintf_r+0x164>
    10001166:	8722                	mv	a4,s0
    10001168:	4785                	li	a5,1
    1000116a:	bdc1                	j	1000103a <_svfprintf_r+0xb06>
    1000116c:	4705                	li	a4,1
    1000116e:	8ae78ce3          	beq	a5,a4,10000a26 <_svfprintf_r+0x4f2>
    10001172:	4709                	li	a4,2
    10001174:	0ae78d63          	beq	a5,a4,1000122e <_svfprintf_r+0xcfa>
    10001178:	12fc                	addi	a5,sp,364
    1000117a:	007bf713          	andi	a4,s7,7
    1000117e:	03070713          	addi	a4,a4,48
    10001182:	fee78fa3          	sb	a4,-1(a5)
    10001186:	003bdb93          	srli	s7,s7,0x3
    1000118a:	fff78493          	addi	s1,a5,-1
    1000118e:	020b9863          	bnez	s7,100011be <_svfprintf_r+0xc8a>
    10001192:	00147693          	andi	a3,s0,1
    10001196:	ca89                	beqz	a3,100011a8 <_svfprintf_r+0xc74>
    10001198:	03000693          	li	a3,48
    1000119c:	00d70663          	beq	a4,a3,100011a8 <_svfprintf_r+0xc74>
    100011a0:	fed48fa3          	sb	a3,-1(s1)
    100011a4:	ffe78493          	addi	s1,a5,-2
    100011a8:	16c10e13          	addi	t3,sp,364
    100011ac:	8766                	mv	a4,s9
    100011ae:	4b81                	li	s7,0
    100011b0:	409e0cbb          	subw	s9,t3,s1
    100011b4:	e802                	sd	zero,16(sp)
    100011b6:	4c01                	li	s8,0
    100011b8:	4d81                	li	s11,0
    100011ba:	e4eff06f          	j	10000808 <_svfprintf_r+0x2d4>
    100011be:	87a6                	mv	a5,s1
    100011c0:	bf6d                	j	1000117a <_svfprintf_r+0xc46>
    100011c2:	40047c13          	andi	s8,s0,1024
    100011c6:	4a01                	li	s4,0
    100011c8:	12fc                	addi	a5,sp,364
    100011ca:	4da9                	li	s11,10
    100011cc:	2c01                	sext.w	s8,s8
    100011ce:	0ff00693          	li	a3,255
    100011d2:	4825                	li	a6,9
    100011d4:	03bbf733          	remu	a4,s7,s11
    100011d8:	fff78493          	addi	s1,a5,-1
    100011dc:	2a05                	addiw	s4,s4,1
    100011de:	0307071b          	addiw	a4,a4,48
    100011e2:	fee78fa3          	sb	a4,-1(a5)
    100011e6:	020c0e63          	beqz	s8,10001222 <_svfprintf_r+0xcee>
    100011ea:	67a2                	ld	a5,8(sp)
    100011ec:	0007c783          	lbu	a5,0(a5)
    100011f0:	02fa1963          	bne	s4,a5,10001222 <_svfprintf_r+0xcee>
    100011f4:	02d78763          	beq	a5,a3,10001222 <_svfprintf_r+0xcee>
    100011f8:	03787563          	bleu	s7,a6,10001222 <_svfprintf_r+0xcee>
    100011fc:	67a6                	ld	a5,72(sp)
    100011fe:	65e6                	ld	a1,88(sp)
    10001200:	e0c2                	sd	a6,64(sp)
    10001202:	8c9d                	sub	s1,s1,a5
    10001204:	863e                	mv	a2,a5
    10001206:	8526                	mv	a0,s1
    10001208:	e836                	sd	a3,16(sp)
    1000120a:	476030ef          	jal	ra,10004680 <strncpy>
    1000120e:	67a2                	ld	a5,8(sp)
    10001210:	4a01                	li	s4,0
    10001212:	66c2                	ld	a3,16(sp)
    10001214:	0017c783          	lbu	a5,1(a5)
    10001218:	6806                	ld	a6,64(sp)
    1000121a:	c781                	beqz	a5,10001222 <_svfprintf_r+0xcee>
    1000121c:	67a2                	ld	a5,8(sp)
    1000121e:	0785                	addi	a5,a5,1
    10001220:	e43e                	sd	a5,8(sp)
    10001222:	03bbdbb3          	divu	s7,s7,s11
    10001226:	f80b81e3          	beqz	s7,100011a8 <_svfprintf_r+0xc74>
    1000122a:	87a6                	mv	a5,s1
    1000122c:	b765                	j	100011d4 <_svfprintf_r+0xca0>
    1000122e:	12e4                	addi	s1,sp,364
    10001230:	7726                	ld	a4,104(sp)
    10001232:	00fbf793          	andi	a5,s7,15
    10001236:	14fd                	addi	s1,s1,-1
    10001238:	97ba                	add	a5,a5,a4
    1000123a:	0007c783          	lbu	a5,0(a5)
    1000123e:	004bdb93          	srli	s7,s7,0x4
    10001242:	00f48023          	sb	a5,0(s1)
    10001246:	fe0b95e3          	bnez	s7,10001230 <_svfprintf_r+0xcfc>
    1000124a:	bfb9                	j	100011a8 <_svfprintf_r+0xc74>
    1000124c:	12e4                	addi	s1,sp,364
    1000124e:	ffa9                	bnez	a5,100011a8 <_svfprintf_r+0xc74>
    10001250:	8b05                	andi	a4,a4,1
    10001252:	db39                	beqz	a4,100011a8 <_svfprintf_r+0xc74>
    10001254:	03000793          	li	a5,48
    10001258:	16f105a3          	sb	a5,363(sp)
    1000125c:	fd8ff06f          	j	10000a34 <_svfprintf_r+0x500>
    10001260:	7e0b0963          	beqz	s6,10001a52 <_svfprintf_r+0x151e>
    10001264:	11610423          	sb	s6,264(sp)
    10001268:	0a010fa3          	sb	zero,191(sp)
    1000126c:	fc5e                	sd	s7,56(sp)
    1000126e:	d8cff06f          	j	100007fa <_svfprintf_r+0x2c6>
    10001272:	0641                	addi	a2,a2,16
    10001274:	011d3423          	sd	a7,8(s10)
    10001278:	e232                	sd	a2,256(sp)
    1000127a:	ddae                	sw	a1,248(sp)
    1000127c:	02aed463          	ble	a0,t4,100012a4 <_svfprintf_r+0xd70>
    10001280:	1990                	addi	a2,sp,240
    10001282:	85ce                	mv	a1,s3
    10001284:	854a                	mv	a0,s2
    10001286:	f176                	sd	t4,160(sp)
    10001288:	ed42                	sd	a6,152(sp)
    1000128a:	e946                	sd	a7,144(sp)
    1000128c:	e53a                	sd	a4,136(sp)
    1000128e:	e136                	sd	a3,128(sp)
    10001290:	422030ef          	jal	ra,100046b2 <__ssprint_r>
    10001294:	76051d63          	bnez	a0,10001a0e <_svfprintf_r+0x14da>
    10001298:	7e8a                	ld	t4,160(sp)
    1000129a:	686a                	ld	a6,152(sp)
    1000129c:	68ca                	ld	a7,144(sp)
    1000129e:	672a                	ld	a4,136(sp)
    100012a0:	668a                	ld	a3,128(sp)
    100012a2:	8f56                	mv	t5,s5
    100012a4:	36c1                	addiw	a3,a3,-16
    100012a6:	8d7a                	mv	s10,t5
    100012a8:	dacff06f          	j	10000854 <_svfprintf_r+0x320>
    100012ac:	0641                	addi	a2,a2,16
    100012ae:	010d3423          	sd	a6,8(s10)
    100012b2:	e232                	sd	a2,256(sp)
    100012b4:	ddae                	sw	a1,248(sp)
    100012b6:	02a8d263          	ble	a0,a7,100012da <_svfprintf_r+0xda6>
    100012ba:	1990                	addi	a2,sp,240
    100012bc:	85ce                	mv	a1,s3
    100012be:	854a                	mv	a0,s2
    100012c0:	e546                	sd	a7,136(sp)
    100012c2:	e142                	sd	a6,128(sp)
    100012c4:	fcba                	sd	a4,120(sp)
    100012c6:	f8b6                	sd	a3,112(sp)
    100012c8:	3ea030ef          	jal	ra,100046b2 <__ssprint_r>
    100012cc:	74051163          	bnez	a0,10001a0e <_svfprintf_r+0x14da>
    100012d0:	68aa                	ld	a7,136(sp)
    100012d2:	680a                	ld	a6,128(sp)
    100012d4:	7766                	ld	a4,120(sp)
    100012d6:	76c6                	ld	a3,112(sp)
    100012d8:	8ed6                	mv	t4,s5
    100012da:	36c1                	addiw	a3,a3,-16
    100012dc:	8d76                	mv	s10,t4
    100012de:	e4aff06f          	j	10000928 <_svfprintf_r+0x3f4>
    100012e2:	06c1                	addi	a3,a3,16
    100012e4:	010d3423          	sd	a6,8(s10)
    100012e8:	e236                	sd	a3,256(sp)
    100012ea:	ddb2                	sw	a2,248(sp)
    100012ec:	02b8d063          	ble	a1,a7,1000130c <_svfprintf_r+0xdd8>
    100012f0:	1990                	addi	a2,sp,240
    100012f2:	85ce                	mv	a1,s3
    100012f4:	854a                	mv	a0,s2
    100012f6:	e146                	sd	a7,128(sp)
    100012f8:	fcc2                	sd	a6,120(sp)
    100012fa:	f8ba                	sd	a4,112(sp)
    100012fc:	3b6030ef          	jal	ra,100046b2 <__ssprint_r>
    10001300:	70051763          	bnez	a0,10001a0e <_svfprintf_r+0x14da>
    10001304:	688a                	ld	a7,128(sp)
    10001306:	7866                	ld	a6,120(sp)
    10001308:	7746                	ld	a4,112(sp)
    1000130a:	8556                	mv	a0,s5
    1000130c:	3741                	addiw	a4,a4,-16
    1000130e:	8d2a                	mv	s10,a0
    10001310:	e6aff06f          	j	1000097a <_svfprintf_r+0x446>
    10001314:	06500693          	li	a3,101
    10001318:	5766d063          	ble	s6,a3,10001878 <_svfprintf_r+0x1344>
    1000131c:	750e                	ld	a0,224(sp)
    1000131e:	75ae                	ld	a1,232(sp)
    10001320:	4601                	li	a2,0
    10001322:	4681                	li	a3,0
    10001324:	f8ba                	sd	a4,112(sp)
    10001326:	674040ef          	jal	ra,1000599a <__eqtf2>
    1000132a:	7746                	ld	a4,112(sp)
    1000132c:	10051d63          	bnez	a0,10001446 <_svfprintf_r+0xf12>
    10001330:	00006797          	auipc	a5,0x6
    10001334:	c3878793          	addi	a5,a5,-968 # 10006f68 <__clzdi2+0xc2>
    10001338:	00fd3023          	sd	a5,0(s10)
    1000133c:	4785                	li	a5,1
    1000133e:	00fd3423          	sd	a5,8(s10)
    10001342:	57ee                	lw	a5,248(sp)
    10001344:	0705                	addi	a4,a4,1
    10001346:	e23a                	sd	a4,256(sp)
    10001348:	0017871b          	addiw	a4,a5,1
    1000134c:	ddba                	sw	a4,248(sp)
    1000134e:	479d                	li	a5,7
    10001350:	0d41                	addi	s10,s10,16
    10001352:	00e7da63          	ble	a4,a5,10001366 <_svfprintf_r+0xe32>
    10001356:	1990                	addi	a2,sp,240
    10001358:	85ce                	mv	a1,s3
    1000135a:	854a                	mv	a0,s2
    1000135c:	356030ef          	jal	ra,100046b2 <__ssprint_r>
    10001360:	6a051763          	bnez	a0,10001a0e <_svfprintf_r+0x14da>
    10001364:	8d56                	mv	s10,s5
    10001366:	47ae                	lw	a5,200(sp)
    10001368:	0147c563          	blt	a5,s4,10001372 <_svfprintf_r+0xe3e>
    1000136c:	00147793          	andi	a5,s0,1
    10001370:	cbad                	beqz	a5,100013e2 <_svfprintf_r+0xeae>
    10001372:	67c6                	ld	a5,80(sp)
    10001374:	7702                	ld	a4,32(sp)
    10001376:	0d41                	addi	s10,s10,16
    10001378:	fefd3823          	sd	a5,-16(s10)
    1000137c:	7782                	ld	a5,32(sp)
    1000137e:	fefd3c23          	sd	a5,-8(s10)
    10001382:	6792                	ld	a5,256(sp)
    10001384:	97ba                	add	a5,a5,a4
    10001386:	e23e                	sd	a5,256(sp)
    10001388:	57ee                	lw	a5,248(sp)
    1000138a:	0017871b          	addiw	a4,a5,1
    1000138e:	ddba                	sw	a4,248(sp)
    10001390:	479d                	li	a5,7
    10001392:	00e7da63          	ble	a4,a5,100013a6 <_svfprintf_r+0xe72>
    10001396:	1990                	addi	a2,sp,240
    10001398:	85ce                	mv	a1,s3
    1000139a:	854a                	mv	a0,s2
    1000139c:	316030ef          	jal	ra,100046b2 <__ssprint_r>
    100013a0:	66051763          	bnez	a0,10001a0e <_svfprintf_r+0x14da>
    100013a4:	8d56                	mv	s10,s5
    100013a6:	fffa049b          	addiw	s1,s4,-1
    100013aa:	02905c63          	blez	s1,100013e2 <_svfprintf_r+0xeae>
    100013ae:	4b41                	li	s6,16
    100013b0:	4c1d                	li	s8,7
    100013b2:	576e                	lw	a4,248(sp)
    100013b4:	6792                	ld	a5,256(sp)
    100013b6:	010d0613          	addi	a2,s10,16
    100013ba:	0017069b          	addiw	a3,a4,1
    100013be:	8736                	mv	a4,a3
    100013c0:	049b4b63          	blt	s6,s1,10001416 <_svfprintf_r+0xee2>
    100013c4:	009d3423          	sd	s1,8(s10)
    100013c8:	00006717          	auipc	a4,0x6
    100013cc:	d7870713          	addi	a4,a4,-648 # 10007140 <zeroes.4398>
    100013d0:	94be                	add	s1,s1,a5
    100013d2:	00ed3023          	sd	a4,0(s10)
    100013d6:	e226                	sd	s1,256(sp)
    100013d8:	ddb6                	sw	a3,248(sp)
    100013da:	479d                	li	a5,7
    100013dc:	8d32                	mv	s10,a2
    100013de:	e0d7c363          	blt	a5,a3,100009e4 <_svfprintf_r+0x4b0>
    100013e2:	8811                	andi	s0,s0,4
    100013e4:	5e041163          	bnez	s0,100019c6 <_svfprintf_r+0x1492>
    100013e8:	7722                	ld	a4,40(sp)
    100013ea:	6686                	ld	a3,64(sp)
    100013ec:	57a2                	lw	a5,40(sp)
    100013ee:	00d75363          	ble	a3,a4,100013f4 <_svfprintf_r+0xec0>
    100013f2:	4786                	lw	a5,64(sp)
    100013f4:	5742                	lw	a4,48(sp)
    100013f6:	9fb9                	addw	a5,a5,a4
    100013f8:	f83e                	sd	a5,48(sp)
    100013fa:	6792                	ld	a5,256(sp)
    100013fc:	cb81                	beqz	a5,1000140c <_svfprintf_r+0xed8>
    100013fe:	1990                	addi	a2,sp,240
    10001400:	85ce                	mv	a1,s3
    10001402:	854a                	mv	a0,s2
    10001404:	2ae030ef          	jal	ra,100046b2 <__ssprint_r>
    10001408:	60051363          	bnez	a0,10001a0e <_svfprintf_r+0x14da>
    1000140c:	dd82                	sw	zero,248(sp)
    1000140e:	620b9b63          	bnez	s7,10001a44 <_svfprintf_r+0x1510>
    10001412:	8d56                	mv	s10,s5
    10001414:	b6e1                	j	10000fdc <_svfprintf_r+0xaa8>
    10001416:	00006597          	auipc	a1,0x6
    1000141a:	d2a58593          	addi	a1,a1,-726 # 10007140 <zeroes.4398>
    1000141e:	07c1                	addi	a5,a5,16
    10001420:	00bd3023          	sd	a1,0(s10)
    10001424:	016d3423          	sd	s6,8(s10)
    10001428:	e23e                	sd	a5,256(sp)
    1000142a:	ddba                	sw	a4,248(sp)
    1000142c:	00dc5a63          	ble	a3,s8,10001440 <_svfprintf_r+0xf0c>
    10001430:	1990                	addi	a2,sp,240
    10001432:	85ce                	mv	a1,s3
    10001434:	854a                	mv	a0,s2
    10001436:	27c030ef          	jal	ra,100046b2 <__ssprint_r>
    1000143a:	5c051a63          	bnez	a0,10001a0e <_svfprintf_r+0x14da>
    1000143e:	8656                	mv	a2,s5
    10001440:	34c1                	addiw	s1,s1,-16
    10001442:	8d32                	mv	s10,a2
    10001444:	b7bd                	j	100013b2 <_svfprintf_r+0xe7e>
    10001446:	46ae                	lw	a3,200(sp)
    10001448:	10d04d63          	bgtz	a3,10001562 <_svfprintf_r+0x102e>
    1000144c:	00006797          	auipc	a5,0x6
    10001450:	b1c78793          	addi	a5,a5,-1252 # 10006f68 <__clzdi2+0xc2>
    10001454:	00fd3023          	sd	a5,0(s10)
    10001458:	4785                	li	a5,1
    1000145a:	00fd3423          	sd	a5,8(s10)
    1000145e:	57ee                	lw	a5,248(sp)
    10001460:	0705                	addi	a4,a4,1
    10001462:	e23a                	sd	a4,256(sp)
    10001464:	0017871b          	addiw	a4,a5,1
    10001468:	ddba                	sw	a4,248(sp)
    1000146a:	479d                	li	a5,7
    1000146c:	0d41                	addi	s10,s10,16
    1000146e:	00e7da63          	ble	a4,a5,10001482 <_svfprintf_r+0xf4e>
    10001472:	1990                	addi	a2,sp,240
    10001474:	85ce                	mv	a1,s3
    10001476:	854a                	mv	a0,s2
    10001478:	23a030ef          	jal	ra,100046b2 <__ssprint_r>
    1000147c:	58051963          	bnez	a0,10001a0e <_svfprintf_r+0x14da>
    10001480:	8d56                	mv	s10,s5
    10001482:	47ae                	lw	a5,200(sp)
    10001484:	e791                	bnez	a5,10001490 <_svfprintf_r+0xf5c>
    10001486:	000a1563          	bnez	s4,10001490 <_svfprintf_r+0xf5c>
    1000148a:	00147793          	andi	a5,s0,1
    1000148e:	dbb1                	beqz	a5,100013e2 <_svfprintf_r+0xeae>
    10001490:	67c6                	ld	a5,80(sp)
    10001492:	7702                	ld	a4,32(sp)
    10001494:	010d0313          	addi	t1,s10,16
    10001498:	00fd3023          	sd	a5,0(s10)
    1000149c:	7782                	ld	a5,32(sp)
    1000149e:	00fd3423          	sd	a5,8(s10)
    100014a2:	6792                	ld	a5,256(sp)
    100014a4:	97ba                	add	a5,a5,a4
    100014a6:	e23e                	sd	a5,256(sp)
    100014a8:	57ee                	lw	a5,248(sp)
    100014aa:	0017871b          	addiw	a4,a5,1
    100014ae:	ddba                	sw	a4,248(sp)
    100014b0:	479d                	li	a5,7
    100014b2:	00e7da63          	ble	a4,a5,100014c6 <_svfprintf_r+0xf92>
    100014b6:	1990                	addi	a2,sp,240
    100014b8:	85ce                	mv	a1,s3
    100014ba:	854a                	mv	a0,s2
    100014bc:	1f6030ef          	jal	ra,100046b2 <__ssprint_r>
    100014c0:	54051763          	bnez	a0,10001a0e <_svfprintf_r+0x14da>
    100014c4:	8356                	mv	t1,s5
    100014c6:	4b2e                	lw	s6,200(sp)
    100014c8:	040b5463          	bgez	s6,10001510 <_svfprintf_r+0xfdc>
    100014cc:	41600b3b          	negw	s6,s6
    100014d0:	879a                	mv	a5,t1
    100014d2:	4c41                	li	s8,16
    100014d4:	4d9d                	li	s11,7
    100014d6:	56ee                	lw	a3,248(sp)
    100014d8:	6712                	ld	a4,256(sp)
    100014da:	0341                	addi	t1,t1,16
    100014dc:	0016861b          	addiw	a2,a3,1
    100014e0:	86b2                	mv	a3,a2
    100014e2:	056c4963          	blt	s8,s6,10001534 <_svfprintf_r+0x1000>
    100014e6:	0167b423          	sd	s6,8(a5)
    100014ea:	00006697          	auipc	a3,0x6
    100014ee:	c5668693          	addi	a3,a3,-938 # 10007140 <zeroes.4398>
    100014f2:	9b3a                	add	s6,s6,a4
    100014f4:	e394                	sd	a3,0(a5)
    100014f6:	e25a                	sd	s6,256(sp)
    100014f8:	ddb2                	sw	a2,248(sp)
    100014fa:	479d                	li	a5,7
    100014fc:	00c7da63          	ble	a2,a5,10001510 <_svfprintf_r+0xfdc>
    10001500:	1990                	addi	a2,sp,240
    10001502:	85ce                	mv	a1,s3
    10001504:	854a                	mv	a0,s2
    10001506:	1ac030ef          	jal	ra,100046b2 <__ssprint_r>
    1000150a:	50051263          	bnez	a0,10001a0e <_svfprintf_r+0x14da>
    1000150e:	8356                	mv	t1,s5
    10001510:	6792                	ld	a5,256(sp)
    10001512:	00933023          	sd	s1,0(t1)
    10001516:	01433423          	sd	s4,8(t1)
    1000151a:	97d2                	add	a5,a5,s4
    1000151c:	e23e                	sd	a5,256(sp)
    1000151e:	57ee                	lw	a5,248(sp)
    10001520:	01030d13          	addi	s10,t1,16
    10001524:	0017871b          	addiw	a4,a5,1
    10001528:	ddba                	sw	a4,248(sp)
    1000152a:	479d                	li	a5,7
    1000152c:	eae7dbe3          	ble	a4,a5,100013e2 <_svfprintf_r+0xeae>
    10001530:	cb4ff06f          	j	100009e4 <_svfprintf_r+0x4b0>
    10001534:	00006597          	auipc	a1,0x6
    10001538:	c0c58593          	addi	a1,a1,-1012 # 10007140 <zeroes.4398>
    1000153c:	0741                	addi	a4,a4,16
    1000153e:	e38c                	sd	a1,0(a5)
    10001540:	0187b423          	sd	s8,8(a5)
    10001544:	e23a                	sd	a4,256(sp)
    10001546:	ddb6                	sw	a3,248(sp)
    10001548:	00cdda63          	ble	a2,s11,1000155c <_svfprintf_r+0x1028>
    1000154c:	1990                	addi	a2,sp,240
    1000154e:	85ce                	mv	a1,s3
    10001550:	854a                	mv	a0,s2
    10001552:	160030ef          	jal	ra,100046b2 <__ssprint_r>
    10001556:	4a051c63          	bnez	a0,10001a0e <_svfprintf_r+0x14da>
    1000155a:	8356                	mv	t1,s5
    1000155c:	3b41                	addiw	s6,s6,-16
    1000155e:	879a                	mv	a5,t1
    10001560:	bf9d                	j	100014d6 <_svfprintf_r+0xfa2>
    10001562:	86ee                	mv	a3,s11
    10001564:	01ba5363          	ble	s11,s4,1000156a <_svfprintf_r+0x1036>
    10001568:	86d2                	mv	a3,s4
    1000156a:	00068c9b          	sext.w	s9,a3
    1000156e:	03905863          	blez	s9,1000159e <_svfprintf_r+0x106a>
    10001572:	9766                	add	a4,a4,s9
    10001574:	e23a                	sd	a4,256(sp)
    10001576:	576e                	lw	a4,248(sp)
    10001578:	009d3023          	sd	s1,0(s10)
    1000157c:	019d3423          	sd	s9,8(s10)
    10001580:	0017061b          	addiw	a2,a4,1
    10001584:	ddb2                	sw	a2,248(sp)
    10001586:	471d                	li	a4,7
    10001588:	0d41                	addi	s10,s10,16
    1000158a:	00c75a63          	ble	a2,a4,1000159e <_svfprintf_r+0x106a>
    1000158e:	1990                	addi	a2,sp,240
    10001590:	85ce                	mv	a1,s3
    10001592:	854a                	mv	a0,s2
    10001594:	11e030ef          	jal	ra,100046b2 <__ssprint_r>
    10001598:	46051b63          	bnez	a0,10001a0e <_svfprintf_r+0x14da>
    1000159c:	8d56                	mv	s10,s5
    1000159e:	8b66                	mv	s6,s9
    100015a0:	000cd363          	bgez	s9,100015a6 <_svfprintf_r+0x1072>
    100015a4:	4b01                	li	s6,0
    100015a6:	416d8b3b          	subw	s6,s11,s6
    100015aa:	05605463          	blez	s6,100015f2 <_svfprintf_r+0x10be>
    100015ae:	4cc1                	li	s9,16
    100015b0:	489d                	li	a7,7
    100015b2:	56ee                	lw	a3,248(sp)
    100015b4:	00006797          	auipc	a5,0x6
    100015b8:	b8c78793          	addi	a5,a5,-1140 # 10007140 <zeroes.4398>
    100015bc:	00fd3023          	sd	a5,0(s10)
    100015c0:	0016861b          	addiw	a2,a3,1
    100015c4:	6712                	ld	a4,256(sp)
    100015c6:	86b2                	mv	a3,a2
    100015c8:	010d0593          	addi	a1,s10,16
    100015cc:	136cc863          	blt	s9,s6,100016fc <_svfprintf_r+0x11c8>
    100015d0:	016d3423          	sd	s6,8(s10)
    100015d4:	9b3a                	add	s6,s6,a4
    100015d6:	e25a                	sd	s6,256(sp)
    100015d8:	ddb2                	sw	a2,248(sp)
    100015da:	471d                	li	a4,7
    100015dc:	8d2e                	mv	s10,a1
    100015de:	00c75a63          	ble	a2,a4,100015f2 <_svfprintf_r+0x10be>
    100015e2:	1990                	addi	a2,sp,240
    100015e4:	85ce                	mv	a1,s3
    100015e6:	854a                	mv	a0,s2
    100015e8:	0ca030ef          	jal	ra,100046b2 <__ssprint_r>
    100015ec:	42051163          	bnez	a0,10001a0e <_svfprintf_r+0x14da>
    100015f0:	8d56                	mv	s10,s5
    100015f2:	40047793          	andi	a5,s0,1024
    100015f6:	01b48b33          	add	s6,s1,s11
    100015fa:	cf99                	beqz	a5,10001618 <_svfprintf_r+0x10e4>
    100015fc:	014487b3          	add	a5,s1,s4
    10001600:	4c9d                	li	s9,7
    10001602:	8dbe                	mv	s11,a5
    10001604:	67c2                	ld	a5,16(sp)
    10001606:	100c1f63          	bnez	s8,10001724 <_svfprintf_r+0x11f0>
    1000160a:	10079e63          	bnez	a5,10001726 <_svfprintf_r+0x11f2>
    1000160e:	014487b3          	add	a5,s1,s4
    10001612:	0167f363          	bleu	s6,a5,10001618 <_svfprintf_r+0x10e4>
    10001616:	8b3e                	mv	s6,a5
    10001618:	47ae                	lw	a5,200(sp)
    1000161a:	0147c563          	blt	a5,s4,10001624 <_svfprintf_r+0x10f0>
    1000161e:	00147793          	andi	a5,s0,1
    10001622:	cb9d                	beqz	a5,10001658 <_svfprintf_r+0x1124>
    10001624:	67c6                	ld	a5,80(sp)
    10001626:	7702                	ld	a4,32(sp)
    10001628:	0d41                	addi	s10,s10,16
    1000162a:	fefd3823          	sd	a5,-16(s10)
    1000162e:	7782                	ld	a5,32(sp)
    10001630:	fefd3c23          	sd	a5,-8(s10)
    10001634:	6792                	ld	a5,256(sp)
    10001636:	97ba                	add	a5,a5,a4
    10001638:	e23e                	sd	a5,256(sp)
    1000163a:	57ee                	lw	a5,248(sp)
    1000163c:	0017871b          	addiw	a4,a5,1
    10001640:	ddba                	sw	a4,248(sp)
    10001642:	479d                	li	a5,7
    10001644:	00e7da63          	ble	a4,a5,10001658 <_svfprintf_r+0x1124>
    10001648:	1990                	addi	a2,sp,240
    1000164a:	85ce                	mv	a1,s3
    1000164c:	854a                	mv	a0,s2
    1000164e:	064030ef          	jal	ra,100046b2 <__ssprint_r>
    10001652:	3a051e63          	bnez	a0,10001a0e <_svfprintf_r+0x14da>
    10001656:	8d56                	mv	s10,s5
    10001658:	4c2e                	lw	s8,200(sp)
    1000165a:	94d2                	add	s1,s1,s4
    1000165c:	416484bb          	subw	s1,s1,s6
    10001660:	418a07bb          	subw	a5,s4,s8
    10001664:	8c3e                	mv	s8,a5
    10001666:	00f4d463          	ble	a5,s1,1000166e <_svfprintf_r+0x113a>
    1000166a:	00048c1b          	sext.w	s8,s1
    1000166e:	03805963          	blez	s8,100016a0 <_svfprintf_r+0x116c>
    10001672:	6792                	ld	a5,256(sp)
    10001674:	016d3023          	sd	s6,0(s10)
    10001678:	018d3423          	sd	s8,8(s10)
    1000167c:	97e2                	add	a5,a5,s8
    1000167e:	e23e                	sd	a5,256(sp)
    10001680:	57ee                	lw	a5,248(sp)
    10001682:	0d41                	addi	s10,s10,16
    10001684:	0017871b          	addiw	a4,a5,1
    10001688:	ddba                	sw	a4,248(sp)
    1000168a:	479d                	li	a5,7
    1000168c:	00e7da63          	ble	a4,a5,100016a0 <_svfprintf_r+0x116c>
    10001690:	1990                	addi	a2,sp,240
    10001692:	85ce                	mv	a1,s3
    10001694:	854a                	mv	a0,s2
    10001696:	01c030ef          	jal	ra,100046b2 <__ssprint_r>
    1000169a:	36051a63          	bnez	a0,10001a0e <_svfprintf_r+0x14da>
    1000169e:	8d56                	mv	s10,s5
    100016a0:	87e2                	mv	a5,s8
    100016a2:	000c5363          	bgez	s8,100016a8 <_svfprintf_r+0x1174>
    100016a6:	4781                	li	a5,0
    100016a8:	44ae                	lw	s1,200(sp)
    100016aa:	409a04bb          	subw	s1,s4,s1
    100016ae:	9c9d                	subw	s1,s1,a5
    100016b0:	d29059e3          	blez	s1,100013e2 <_svfprintf_r+0xeae>
    100016b4:	4b41                	li	s6,16
    100016b6:	4c1d                	li	s8,7
    100016b8:	576e                	lw	a4,248(sp)
    100016ba:	6792                	ld	a5,256(sp)
    100016bc:	010d0613          	addi	a2,s10,16
    100016c0:	0017069b          	addiw	a3,a4,1
    100016c4:	8736                	mv	a4,a3
    100016c6:	189b4163          	blt	s6,s1,10001848 <_svfprintf_r+0x1314>
    100016ca:	009d3423          	sd	s1,8(s10)
    100016ce:	00006717          	auipc	a4,0x6
    100016d2:	a7270713          	addi	a4,a4,-1422 # 10007140 <zeroes.4398>
    100016d6:	94be                	add	s1,s1,a5
    100016d8:	00ed3023          	sd	a4,0(s10)
    100016dc:	e226                	sd	s1,256(sp)
    100016de:	ddb6                	sw	a3,248(sp)
    100016e0:	479d                	li	a5,7
    100016e2:	8d32                	mv	s10,a2
    100016e4:	ced7dfe3          	ble	a3,a5,100013e2 <_svfprintf_r+0xeae>
    100016e8:	1990                	addi	a2,sp,240
    100016ea:	85ce                	mv	a1,s3
    100016ec:	854a                	mv	a0,s2
    100016ee:	7c5020ef          	jal	ra,100046b2 <__ssprint_r>
    100016f2:	30051e63          	bnez	a0,10001a0e <_svfprintf_r+0x14da>
    100016f6:	17010d13          	addi	s10,sp,368
    100016fa:	b1e5                	j	100013e2 <_svfprintf_r+0xeae>
    100016fc:	0741                	addi	a4,a4,16
    100016fe:	019d3423          	sd	s9,8(s10)
    10001702:	e23a                	sd	a4,256(sp)
    10001704:	ddb6                	sw	a3,248(sp)
    10001706:	00c8dc63          	ble	a2,a7,1000171e <_svfprintf_r+0x11ea>
    1000170a:	1990                	addi	a2,sp,240
    1000170c:	85ce                	mv	a1,s3
    1000170e:	854a                	mv	a0,s2
    10001710:	f8c6                	sd	a7,112(sp)
    10001712:	7a1020ef          	jal	ra,100046b2 <__ssprint_r>
    10001716:	2e051c63          	bnez	a0,10001a0e <_svfprintf_r+0x14da>
    1000171a:	78c6                	ld	a7,112(sp)
    1000171c:	85d6                	mv	a1,s5
    1000171e:	3b41                	addiw	s6,s6,-16
    10001720:	8d2e                	mv	s10,a1
    10001722:	bd41                	j	100015b2 <_svfprintf_r+0x107e>
    10001724:	c3cd                	beqz	a5,100017c6 <_svfprintf_r+0x1292>
    10001726:	47c2                	lw	a5,16(sp)
    10001728:	37fd                	addiw	a5,a5,-1
    1000172a:	e83e                	sd	a5,16(sp)
    1000172c:	67e6                	ld	a5,88(sp)
    1000172e:	6726                	ld	a4,72(sp)
    10001730:	0d41                	addi	s10,s10,16
    10001732:	fefd3823          	sd	a5,-16(s10)
    10001736:	67a6                	ld	a5,72(sp)
    10001738:	fefd3c23          	sd	a5,-8(s10)
    1000173c:	6792                	ld	a5,256(sp)
    1000173e:	97ba                	add	a5,a5,a4
    10001740:	e23e                	sd	a5,256(sp)
    10001742:	57ee                	lw	a5,248(sp)
    10001744:	0017871b          	addiw	a4,a5,1
    10001748:	ddba                	sw	a4,248(sp)
    1000174a:	00ecda63          	ble	a4,s9,1000175e <_svfprintf_r+0x122a>
    1000174e:	1990                	addi	a2,sp,240
    10001750:	85ce                	mv	a1,s3
    10001752:	854a                	mv	a0,s2
    10001754:	75f020ef          	jal	ra,100046b2 <__ssprint_r>
    10001758:	2a051b63          	bnez	a0,10001a0e <_svfprintf_r+0x14da>
    1000175c:	8d56                	mv	s10,s5
    1000175e:	6722                	ld	a4,8(sp)
    10001760:	416d87bb          	subw	a5,s11,s6
    10001764:	00074703          	lbu	a4,0(a4)
    10001768:	00e7d463          	ble	a4,a5,10001770 <_svfprintf_r+0x123c>
    1000176c:	0007871b          	sext.w	a4,a5
    10001770:	02e05b63          	blez	a4,100017a6 <_svfprintf_r+0x1272>
    10001774:	6792                	ld	a5,256(sp)
    10001776:	016d3023          	sd	s6,0(s10)
    1000177a:	00ed3423          	sd	a4,8(s10)
    1000177e:	97ba                	add	a5,a5,a4
    10001780:	e23e                	sd	a5,256(sp)
    10001782:	57ee                	lw	a5,248(sp)
    10001784:	0d41                	addi	s10,s10,16
    10001786:	0017869b          	addiw	a3,a5,1
    1000178a:	ddb6                	sw	a3,248(sp)
    1000178c:	00dcdd63          	ble	a3,s9,100017a6 <_svfprintf_r+0x1272>
    10001790:	1990                	addi	a2,sp,240
    10001792:	85ce                	mv	a1,s3
    10001794:	854a                	mv	a0,s2
    10001796:	f8ba                	sd	a4,112(sp)
    10001798:	71b020ef          	jal	ra,100046b2 <__ssprint_r>
    1000179c:	26051963          	bnez	a0,10001a0e <_svfprintf_r+0x14da>
    100017a0:	7746                	ld	a4,112(sp)
    100017a2:	17010d13          	addi	s10,sp,368
    100017a6:	86ba                	mv	a3,a4
    100017a8:	00075363          	bgez	a4,100017ae <_svfprintf_r+0x127a>
    100017ac:	4681                	li	a3,0
    100017ae:	67a2                	ld	a5,8(sp)
    100017b0:	4841                	li	a6,16
    100017b2:	0007c783          	lbu	a5,0(a5)
    100017b6:	9f95                	subw	a5,a5,a3
    100017b8:	04f04763          	bgtz	a5,10001806 <_svfprintf_r+0x12d2>
    100017bc:	67a2                	ld	a5,8(sp)
    100017be:	0007c783          	lbu	a5,0(a5)
    100017c2:	9b3e                	add	s6,s6,a5
    100017c4:	b581                	j	10001604 <_svfprintf_r+0x10d0>
    100017c6:	67a2                	ld	a5,8(sp)
    100017c8:	3c7d                	addiw	s8,s8,-1
    100017ca:	17fd                	addi	a5,a5,-1
    100017cc:	e43e                	sd	a5,8(sp)
    100017ce:	bfb9                	j	1000172c <_svfprintf_r+0x11f8>
    100017d0:	00006517          	auipc	a0,0x6
    100017d4:	97050513          	addi	a0,a0,-1680 # 10007140 <zeroes.4398>
    100017d8:	0741                	addi	a4,a4,16
    100017da:	00ad3023          	sd	a0,0(s10)
    100017de:	010d3423          	sd	a6,8(s10)
    100017e2:	e23a                	sd	a4,256(sp)
    100017e4:	ddb6                	sw	a3,248(sp)
    100017e6:	00ccde63          	ble	a2,s9,10001802 <_svfprintf_r+0x12ce>
    100017ea:	1990                	addi	a2,sp,240
    100017ec:	85ce                	mv	a1,s3
    100017ee:	854a                	mv	a0,s2
    100017f0:	fcc2                	sd	a6,120(sp)
    100017f2:	f8be                	sd	a5,112(sp)
    100017f4:	6bf020ef          	jal	ra,100046b2 <__ssprint_r>
    100017f8:	20051b63          	bnez	a0,10001a0e <_svfprintf_r+0x14da>
    100017fc:	7866                	ld	a6,120(sp)
    100017fe:	77c6                	ld	a5,112(sp)
    10001800:	85d6                	mv	a1,s5
    10001802:	37c1                	addiw	a5,a5,-16
    10001804:	8d2e                	mv	s10,a1
    10001806:	56ee                	lw	a3,248(sp)
    10001808:	6712                	ld	a4,256(sp)
    1000180a:	010d0593          	addi	a1,s10,16
    1000180e:	0016861b          	addiw	a2,a3,1
    10001812:	86b2                	mv	a3,a2
    10001814:	faf84ee3          	blt	a6,a5,100017d0 <_svfprintf_r+0x129c>
    10001818:	00fd3423          	sd	a5,8(s10)
    1000181c:	00006697          	auipc	a3,0x6
    10001820:	92468693          	addi	a3,a3,-1756 # 10007140 <zeroes.4398>
    10001824:	97ba                	add	a5,a5,a4
    10001826:	00dd3023          	sd	a3,0(s10)
    1000182a:	e23e                	sd	a5,256(sp)
    1000182c:	ddb2                	sw	a2,248(sp)
    1000182e:	8d2e                	mv	s10,a1
    10001830:	f8ccd6e3          	ble	a2,s9,100017bc <_svfprintf_r+0x1288>
    10001834:	1990                	addi	a2,sp,240
    10001836:	85ce                	mv	a1,s3
    10001838:	854a                	mv	a0,s2
    1000183a:	679020ef          	jal	ra,100046b2 <__ssprint_r>
    1000183e:	1c051863          	bnez	a0,10001a0e <_svfprintf_r+0x14da>
    10001842:	17010d13          	addi	s10,sp,368
    10001846:	bf9d                	j	100017bc <_svfprintf_r+0x1288>
    10001848:	00006597          	auipc	a1,0x6
    1000184c:	8f858593          	addi	a1,a1,-1800 # 10007140 <zeroes.4398>
    10001850:	07c1                	addi	a5,a5,16
    10001852:	00bd3023          	sd	a1,0(s10)
    10001856:	016d3423          	sd	s6,8(s10)
    1000185a:	e23e                	sd	a5,256(sp)
    1000185c:	ddba                	sw	a4,248(sp)
    1000185e:	00dc5a63          	ble	a3,s8,10001872 <_svfprintf_r+0x133e>
    10001862:	1990                	addi	a2,sp,240
    10001864:	85ce                	mv	a1,s3
    10001866:	854a                	mv	a0,s2
    10001868:	64b020ef          	jal	ra,100046b2 <__ssprint_r>
    1000186c:	1a051163          	bnez	a0,10001a0e <_svfprintf_r+0x14da>
    10001870:	8656                	mv	a2,s5
    10001872:	34c1                	addiw	s1,s1,-16
    10001874:	8d32                	mv	s10,a2
    10001876:	b589                	j	100016b8 <_svfprintf_r+0x1184>
    10001878:	57ee                	lw	a5,248(sp)
    1000187a:	4605                	li	a2,1
    1000187c:	009d3023          	sd	s1,0(s10)
    10001880:	0017869b          	addiw	a3,a5,1
    10001884:	0705                	addi	a4,a4,1
    10001886:	87b6                	mv	a5,a3
    10001888:	010d0c13          	addi	s8,s10,16
    1000188c:	01464663          	blt	a2,s4,10001898 <_svfprintf_r+0x1364>
    10001890:	00147593          	andi	a1,s0,1
    10001894:	12058363          	beqz	a1,100019ba <_svfprintf_r+0x1486>
    10001898:	4605                	li	a2,1
    1000189a:	ddbe                	sw	a5,248(sp)
    1000189c:	00cd3423          	sd	a2,8(s10)
    100018a0:	e23a                	sd	a4,256(sp)
    100018a2:	479d                	li	a5,7
    100018a4:	00d7da63          	ble	a3,a5,100018b8 <_svfprintf_r+0x1384>
    100018a8:	1990                	addi	a2,sp,240
    100018aa:	85ce                	mv	a1,s3
    100018ac:	854a                	mv	a0,s2
    100018ae:	605020ef          	jal	ra,100046b2 <__ssprint_r>
    100018b2:	14051e63          	bnez	a0,10001a0e <_svfprintf_r+0x14da>
    100018b6:	8c56                	mv	s8,s5
    100018b8:	67c6                	ld	a5,80(sp)
    100018ba:	7702                	ld	a4,32(sp)
    100018bc:	0c41                	addi	s8,s8,16
    100018be:	fefc3823          	sd	a5,-16(s8)
    100018c2:	7782                	ld	a5,32(sp)
    100018c4:	fefc3c23          	sd	a5,-8(s8)
    100018c8:	6792                	ld	a5,256(sp)
    100018ca:	97ba                	add	a5,a5,a4
    100018cc:	e23e                	sd	a5,256(sp)
    100018ce:	57ee                	lw	a5,248(sp)
    100018d0:	0017871b          	addiw	a4,a5,1
    100018d4:	ddba                	sw	a4,248(sp)
    100018d6:	479d                	li	a5,7
    100018d8:	00e7da63          	ble	a4,a5,100018ec <_svfprintf_r+0x13b8>
    100018dc:	1990                	addi	a2,sp,240
    100018de:	85ce                	mv	a1,s3
    100018e0:	854a                	mv	a0,s2
    100018e2:	5d1020ef          	jal	ra,100046b2 <__ssprint_r>
    100018e6:	12051463          	bnez	a0,10001a0e <_svfprintf_r+0x14da>
    100018ea:	8c56                	mv	s8,s5
    100018ec:	750e                	ld	a0,224(sp)
    100018ee:	75ae                	ld	a1,232(sp)
    100018f0:	4601                	li	a2,0
    100018f2:	4681                	li	a3,0
    100018f4:	fffa0b1b          	addiw	s6,s4,-1
    100018f8:	0a2040ef          	jal	ra,1000599a <__eqtf2>
    100018fc:	cd29                	beqz	a0,10001956 <_svfprintf_r+0x1422>
    100018fe:	576e                	lw	a4,248(sp)
    10001900:	6792                	ld	a5,256(sp)
    10001902:	0485                	addi	s1,s1,1
    10001904:	0017069b          	addiw	a3,a4,1
    10001908:	97da                	add	a5,a5,s6
    1000190a:	009c3023          	sd	s1,0(s8)
    1000190e:	016c3423          	sd	s6,8(s8)
    10001912:	e23e                	sd	a5,256(sp)
    10001914:	ddb6                	sw	a3,248(sp)
    10001916:	479d                	li	a5,7
    10001918:	0c41                	addi	s8,s8,16
    1000191a:	00d7d963          	ble	a3,a5,1000192c <_svfprintf_r+0x13f8>
    1000191e:	1990                	addi	a2,sp,240
    10001920:	85ce                	mv	a1,s3
    10001922:	854a                	mv	a0,s2
    10001924:	58f020ef          	jal	ra,100046b2 <__ssprint_r>
    10001928:	e17d                	bnez	a0,10001a0e <_svfprintf_r+0x14da>
    1000192a:	8c56                	mv	s8,s5
    1000192c:	099c                	addi	a5,sp,208
    1000192e:	00fc3023          	sd	a5,0(s8)
    10001932:	7786                	ld	a5,96(sp)
    10001934:	7706                	ld	a4,96(sp)
    10001936:	010c0d13          	addi	s10,s8,16
    1000193a:	00fc3423          	sd	a5,8(s8)
    1000193e:	6792                	ld	a5,256(sp)
    10001940:	97ba                	add	a5,a5,a4
    10001942:	e23e                	sd	a5,256(sp)
    10001944:	57ee                	lw	a5,248(sp)
    10001946:	0017871b          	addiw	a4,a5,1
    1000194a:	ddba                	sw	a4,248(sp)
    1000194c:	479d                	li	a5,7
    1000194e:	a8e7dae3          	ble	a4,a5,100013e2 <_svfprintf_r+0xeae>
    10001952:	892ff06f          	j	100009e4 <_svfprintf_r+0x4b0>
    10001956:	fd605be3          	blez	s6,1000192c <_svfprintf_r+0x13f8>
    1000195a:	44c1                	li	s1,16
    1000195c:	4d9d                	li	s11,7
    1000195e:	576e                	lw	a4,248(sp)
    10001960:	6792                	ld	a5,256(sp)
    10001962:	010c0613          	addi	a2,s8,16
    10001966:	0017069b          	addiw	a3,a4,1
    1000196a:	8736                	mv	a4,a3
    1000196c:	0364c063          	blt	s1,s6,1000198c <_svfprintf_r+0x1458>
    10001970:	97da                	add	a5,a5,s6
    10001972:	00005717          	auipc	a4,0x5
    10001976:	7ce70713          	addi	a4,a4,1998 # 10007140 <zeroes.4398>
    1000197a:	00ec3023          	sd	a4,0(s8)
    1000197e:	016c3423          	sd	s6,8(s8)
    10001982:	e23e                	sd	a5,256(sp)
    10001984:	ddb6                	sw	a3,248(sp)
    10001986:	479d                	li	a5,7
    10001988:	8c32                	mv	s8,a2
    1000198a:	bf41                	j	1000191a <_svfprintf_r+0x13e6>
    1000198c:	00005597          	auipc	a1,0x5
    10001990:	7b458593          	addi	a1,a1,1972 # 10007140 <zeroes.4398>
    10001994:	07c1                	addi	a5,a5,16
    10001996:	00bc3023          	sd	a1,0(s8)
    1000199a:	009c3423          	sd	s1,8(s8)
    1000199e:	e23e                	sd	a5,256(sp)
    100019a0:	ddba                	sw	a4,248(sp)
    100019a2:	00ddd963          	ble	a3,s11,100019b4 <_svfprintf_r+0x1480>
    100019a6:	1990                	addi	a2,sp,240
    100019a8:	85ce                	mv	a1,s3
    100019aa:	854a                	mv	a0,s2
    100019ac:	507020ef          	jal	ra,100046b2 <__ssprint_r>
    100019b0:	ed39                	bnez	a0,10001a0e <_svfprintf_r+0x14da>
    100019b2:	8656                	mv	a2,s5
    100019b4:	3b41                	addiw	s6,s6,-16
    100019b6:	8c32                	mv	s8,a2
    100019b8:	b75d                	j	1000195e <_svfprintf_r+0x142a>
    100019ba:	00cd3423          	sd	a2,8(s10)
    100019be:	e23a                	sd	a4,256(sp)
    100019c0:	ddb6                	sw	a3,248(sp)
    100019c2:	479d                	li	a5,7
    100019c4:	bf99                	j	1000191a <_svfprintf_r+0x13e6>
    100019c6:	57a2                	lw	a5,40(sp)
    100019c8:	4706                	lw	a4,64(sp)
    100019ca:	40e7843b          	subw	s0,a5,a4
    100019ce:	a0805de3          	blez	s0,100013e8 <_svfprintf_r+0xeb4>
    100019d2:	4b41                	li	s6,16
    100019d4:	00005497          	auipc	s1,0x5
    100019d8:	75c48493          	addi	s1,s1,1884 # 10007130 <blanks.4397>
    100019dc:	4c1d                	li	s8,7
    100019de:	576e                	lw	a4,248(sp)
    100019e0:	009d3023          	sd	s1,0(s10)
    100019e4:	6792                	ld	a5,256(sp)
    100019e6:	0017069b          	addiw	a3,a4,1
    100019ea:	8736                	mv	a4,a3
    100019ec:	028b4b63          	blt	s6,s0,10001a22 <_svfprintf_r+0x14ee>
    100019f0:	008d3423          	sd	s0,8(s10)
    100019f4:	943e                	add	s0,s0,a5
    100019f6:	e222                	sd	s0,256(sp)
    100019f8:	ddb6                	sw	a3,248(sp)
    100019fa:	479d                	li	a5,7
    100019fc:	9ed7d6e3          	ble	a3,a5,100013e8 <_svfprintf_r+0xeb4>
    10001a00:	1990                	addi	a2,sp,240
    10001a02:	85ce                	mv	a1,s3
    10001a04:	854a                	mv	a0,s2
    10001a06:	4ad020ef          	jal	ra,100046b2 <__ssprint_r>
    10001a0a:	9c050fe3          	beqz	a0,100013e8 <_svfprintf_r+0xeb4>
    10001a0e:	940b8063          	beqz	s7,10000b4e <_svfprintf_r+0x61a>
    10001a12:	85de                	mv	a1,s7
    10001a14:	854a                	mv	a0,s2
    10001a16:	00000097          	auipc	ra,0x0
    10001a1a:	12a080e7          	jalr	298(ra) # 10001b40 <_free_r>
    10001a1e:	930ff06f          	j	10000b4e <_svfprintf_r+0x61a>
    10001a22:	07c1                	addi	a5,a5,16
    10001a24:	016d3423          	sd	s6,8(s10)
    10001a28:	e23e                	sd	a5,256(sp)
    10001a2a:	ddba                	sw	a4,248(sp)
    10001a2c:	0d41                	addi	s10,s10,16
    10001a2e:	00dc5963          	ble	a3,s8,10001a40 <_svfprintf_r+0x150c>
    10001a32:	1990                	addi	a2,sp,240
    10001a34:	85ce                	mv	a1,s3
    10001a36:	854a                	mv	a0,s2
    10001a38:	47b020ef          	jal	ra,100046b2 <__ssprint_r>
    10001a3c:	f969                	bnez	a0,10001a0e <_svfprintf_r+0x14da>
    10001a3e:	8d56                	mv	s10,s5
    10001a40:	3441                	addiw	s0,s0,-16
    10001a42:	bf71                	j	100019de <_svfprintf_r+0x14aa>
    10001a44:	85de                	mv	a1,s7
    10001a46:	854a                	mv	a0,s2
    10001a48:	00000097          	auipc	ra,0x0
    10001a4c:	0f8080e7          	jalr	248(ra) # 10001b40 <_free_r>
    10001a50:	b2c9                	j	10001412 <_svfprintf_r+0xede>
    10001a52:	6792                	ld	a5,256(sp)
    10001a54:	8e078d63          	beqz	a5,10000b4e <_svfprintf_r+0x61a>
    10001a58:	1990                	addi	a2,sp,240
    10001a5a:	85ce                	mv	a1,s3
    10001a5c:	854a                	mv	a0,s2
    10001a5e:	455020ef          	jal	ra,100046b2 <__ssprint_r>
    10001a62:	8ecff06f          	j	10000b4e <_svfprintf_r+0x61a>
    10001a66:	0000                	unimp

0000000010001a68 <_malloc_trim_r>:
    10001a68:	7139                	addi	sp,sp,-64
    10001a6a:	f822                	sd	s0,48(sp)
    10001a6c:	f426                	sd	s1,40(sp)
    10001a6e:	f04a                	sd	s2,32(sp)
    10001a70:	ec4e                	sd	s3,24(sp)
    10001a72:	e42e                	sd	a1,8(sp)
    10001a74:	fc06                	sd	ra,56(sp)
    10001a76:	892a                	mv	s2,a0
    10001a78:	00006997          	auipc	s3,0x6
    10001a7c:	5b098993          	addi	s3,s3,1456 # 10008028 <__malloc_av_>
    10001a80:	0d8020ef          	jal	ra,10003b58 <__malloc_lock>
    10001a84:	0109b783          	ld	a5,16(s3)
    10001a88:	65a2                	ld	a1,8(sp)
    10001a8a:	6784                	ld	s1,8(a5)
    10001a8c:	6785                	lui	a5,0x1
    10001a8e:	fdf78413          	addi	s0,a5,-33 # fdf <_tbss_end+0xfdf>
    10001a92:	98f1                	andi	s1,s1,-4
    10001a94:	8c0d                	sub	s0,s0,a1
    10001a96:	9426                	add	s0,s0,s1
    10001a98:	8031                	srli	s0,s0,0xc
    10001a9a:	147d                	addi	s0,s0,-1
    10001a9c:	0432                	slli	s0,s0,0xc
    10001a9e:	00f45f63          	ble	a5,s0,10001abc <_malloc_trim_r+0x54>
    10001aa2:	854a                	mv	a0,s2
    10001aa4:	00002097          	auipc	ra,0x2
    10001aa8:	0b6080e7          	jalr	182(ra) # 10003b5a <__malloc_unlock>
    10001aac:	4501                	li	a0,0
    10001aae:	70e2                	ld	ra,56(sp)
    10001ab0:	7442                	ld	s0,48(sp)
    10001ab2:	74a2                	ld	s1,40(sp)
    10001ab4:	7902                	ld	s2,32(sp)
    10001ab6:	69e2                	ld	s3,24(sp)
    10001ab8:	6121                	addi	sp,sp,64
    10001aba:	8082                	ret
    10001abc:	4581                	li	a1,0
    10001abe:	854a                	mv	a0,s2
    10001ac0:	365020ef          	jal	ra,10004624 <_sbrk_r>
    10001ac4:	0109b783          	ld	a5,16(s3)
    10001ac8:	97a6                	add	a5,a5,s1
    10001aca:	fcf51ce3          	bne	a0,a5,10001aa2 <_malloc_trim_r+0x3a>
    10001ace:	408005b3          	neg	a1,s0
    10001ad2:	854a                	mv	a0,s2
    10001ad4:	351020ef          	jal	ra,10004624 <_sbrk_r>
    10001ad8:	57fd                	li	a5,-1
    10001ada:	02f51b63          	bne	a0,a5,10001b10 <_malloc_trim_r+0xa8>
    10001ade:	4581                	li	a1,0
    10001ae0:	854a                	mv	a0,s2
    10001ae2:	343020ef          	jal	ra,10004624 <_sbrk_r>
    10001ae6:	0109b703          	ld	a4,16(s3)
    10001aea:	46fd                	li	a3,31
    10001aec:	40e507b3          	sub	a5,a0,a4
    10001af0:	faf6d9e3          	ble	a5,a3,10001aa2 <_malloc_trim_r+0x3a>
    10001af4:	00007697          	auipc	a3,0x7
    10001af8:	f4c68693          	addi	a3,a3,-180 # 10008a40 <__malloc_sbrk_base>
    10001afc:	6294                	ld	a3,0(a3)
    10001afe:	0017e793          	ori	a5,a5,1
    10001b02:	e71c                	sd	a5,8(a4)
    10001b04:	8d15                	sub	a0,a0,a3
    10001b06:	00007697          	auipc	a3,0x7
    10001b0a:	f6a6a923          	sw	a0,-142(a3) # 10008a78 <__malloc_current_mallinfo>
    10001b0e:	bf51                	j	10001aa2 <_malloc_trim_r+0x3a>
    10001b10:	0109b783          	ld	a5,16(s3)
    10001b14:	8c81                	sub	s1,s1,s0
    10001b16:	0014e493          	ori	s1,s1,1
    10001b1a:	e784                	sd	s1,8(a5)
    10001b1c:	00007797          	auipc	a5,0x7
    10001b20:	f5c78793          	addi	a5,a5,-164 # 10008a78 <__malloc_current_mallinfo>
    10001b24:	439c                	lw	a5,0(a5)
    10001b26:	854a                	mv	a0,s2
    10001b28:	4087843b          	subw	s0,a5,s0
    10001b2c:	00007797          	auipc	a5,0x7
    10001b30:	f487a623          	sw	s0,-180(a5) # 10008a78 <__malloc_current_mallinfo>
    10001b34:	00002097          	auipc	ra,0x2
    10001b38:	026080e7          	jalr	38(ra) # 10003b5a <__malloc_unlock>
    10001b3c:	4505                	li	a0,1
    10001b3e:	bf85                	j	10001aae <_malloc_trim_r+0x46>

0000000010001b40 <_free_r>:
    10001b40:	1e058463          	beqz	a1,10001d28 <_free_r+0x1e8>
    10001b44:	1101                	addi	sp,sp,-32
    10001b46:	e822                	sd	s0,16(sp)
    10001b48:	e426                	sd	s1,8(sp)
    10001b4a:	842a                	mv	s0,a0
    10001b4c:	84ae                	mv	s1,a1
    10001b4e:	ec06                	sd	ra,24(sp)
    10001b50:	00002097          	auipc	ra,0x2
    10001b54:	008080e7          	jalr	8(ra) # 10003b58 <__malloc_lock>
    10001b58:	ff84b583          	ld	a1,-8(s1)
    10001b5c:	ff048693          	addi	a3,s1,-16
    10001b60:	00006517          	auipc	a0,0x6
    10001b64:	4c850513          	addi	a0,a0,1224 # 10008028 <__malloc_av_>
    10001b68:	ffe5f793          	andi	a5,a1,-2
    10001b6c:	00f68633          	add	a2,a3,a5
    10001b70:	6618                	ld	a4,8(a2)
    10001b72:	01053803          	ld	a6,16(a0)
    10001b76:	8985                	andi	a1,a1,1
    10001b78:	9b71                	andi	a4,a4,-4
    10001b7a:	04c81b63          	bne	a6,a2,10001bd0 <_free_r+0x90>
    10001b7e:	97ba                	add	a5,a5,a4
    10001b80:	e989                	bnez	a1,10001b92 <_free_r+0x52>
    10001b82:	ff04b703          	ld	a4,-16(s1)
    10001b86:	8e99                	sub	a3,a3,a4
    10001b88:	6a90                	ld	a2,16(a3)
    10001b8a:	97ba                	add	a5,a5,a4
    10001b8c:	6e98                	ld	a4,24(a3)
    10001b8e:	ee18                	sd	a4,24(a2)
    10001b90:	eb10                	sd	a2,16(a4)
    10001b92:	0017e713          	ori	a4,a5,1
    10001b96:	e698                	sd	a4,8(a3)
    10001b98:	00006717          	auipc	a4,0x6
    10001b9c:	4ad73023          	sd	a3,1184(a4) # 10008038 <__malloc_av_+0x10>
    10001ba0:	00007717          	auipc	a4,0x7
    10001ba4:	ea870713          	addi	a4,a4,-344 # 10008a48 <__malloc_trim_threshold>
    10001ba8:	6318                	ld	a4,0(a4)
    10001baa:	00e7ec63          	bltu	a5,a4,10001bc2 <_free_r+0x82>
    10001bae:	00007797          	auipc	a5,0x7
    10001bb2:	eb278793          	addi	a5,a5,-334 # 10008a60 <__malloc_top_pad>
    10001bb6:	638c                	ld	a1,0(a5)
    10001bb8:	8522                	mv	a0,s0
    10001bba:	00000097          	auipc	ra,0x0
    10001bbe:	eae080e7          	jalr	-338(ra) # 10001a68 <_malloc_trim_r>
    10001bc2:	8522                	mv	a0,s0
    10001bc4:	6442                	ld	s0,16(sp)
    10001bc6:	60e2                	ld	ra,24(sp)
    10001bc8:	64a2                	ld	s1,8(sp)
    10001bca:	6105                	addi	sp,sp,32
    10001bcc:	78f0106f          	j	10003b5a <__malloc_unlock>
    10001bd0:	e618                	sd	a4,8(a2)
    10001bd2:	4801                	li	a6,0
    10001bd4:	e195                	bnez	a1,10001bf8 <_free_r+0xb8>
    10001bd6:	ff04b583          	ld	a1,-16(s1)
    10001bda:	00006897          	auipc	a7,0x6
    10001bde:	45e88893          	addi	a7,a7,1118 # 10008038 <__malloc_av_+0x10>
    10001be2:	8e8d                	sub	a3,a3,a1
    10001be4:	97ae                	add	a5,a5,a1
    10001be6:	6a8c                	ld	a1,16(a3)
    10001be8:	09158a63          	beq	a1,a7,10001c7c <_free_r+0x13c>
    10001bec:	0186b883          	ld	a7,24(a3)
    10001bf0:	0115bc23          	sd	a7,24(a1)
    10001bf4:	00b8b823          	sd	a1,16(a7)
    10001bf8:	00e605b3          	add	a1,a2,a4
    10001bfc:	658c                	ld	a1,8(a1)
    10001bfe:	8985                	andi	a1,a1,1
    10001c00:	e595                	bnez	a1,10001c2c <_free_r+0xec>
    10001c02:	97ba                	add	a5,a5,a4
    10001c04:	6a18                	ld	a4,16(a2)
    10001c06:	06081d63          	bnez	a6,10001c80 <_free_r+0x140>
    10001c0a:	00006597          	auipc	a1,0x6
    10001c0e:	42e58593          	addi	a1,a1,1070 # 10008038 <__malloc_av_+0x10>
    10001c12:	06b71763          	bne	a4,a1,10001c80 <_free_r+0x140>
    10001c16:	00006617          	auipc	a2,0x6
    10001c1a:	42d63d23          	sd	a3,1082(a2) # 10008050 <__malloc_av_+0x28>
    10001c1e:	00006617          	auipc	a2,0x6
    10001c22:	42d63523          	sd	a3,1066(a2) # 10008048 <__malloc_av_+0x20>
    10001c26:	ee98                	sd	a4,24(a3)
    10001c28:	ea98                	sd	a4,16(a3)
    10001c2a:	4805                	li	a6,1
    10001c2c:	0017e713          	ori	a4,a5,1
    10001c30:	e698                	sd	a4,8(a3)
    10001c32:	00f68733          	add	a4,a3,a5
    10001c36:	e31c                	sd	a5,0(a4)
    10001c38:	f80815e3          	bnez	a6,10001bc2 <_free_r+0x82>
    10001c3c:	1ff00713          	li	a4,511
    10001c40:	04f76463          	bltu	a4,a5,10001c88 <_free_r+0x148>
    10001c44:	0037d713          	srli	a4,a5,0x3
    10001c48:	2701                	sext.w	a4,a4
    10001c4a:	4027561b          	sraiw	a2,a4,0x2
    10001c4e:	4785                	li	a5,1
    10001c50:	00c797b3          	sll	a5,a5,a2
    10001c54:	6510                	ld	a2,8(a0)
    10001c56:	8fd1                	or	a5,a5,a2
    10001c58:	00006617          	auipc	a2,0x6
    10001c5c:	3cf63c23          	sd	a5,984(a2) # 10008030 <__malloc_av_+0x8>
    10001c60:	0017079b          	addiw	a5,a4,1
    10001c64:	0017979b          	slliw	a5,a5,0x1
    10001c68:	078e                	slli	a5,a5,0x3
    10001c6a:	97aa                	add	a5,a5,a0
    10001c6c:	6398                	ld	a4,0(a5)
    10001c6e:	ff078613          	addi	a2,a5,-16
    10001c72:	ee90                	sd	a2,24(a3)
    10001c74:	ea98                	sd	a4,16(a3)
    10001c76:	e394                	sd	a3,0(a5)
    10001c78:	ef14                	sd	a3,24(a4)
    10001c7a:	b7a1                	j	10001bc2 <_free_r+0x82>
    10001c7c:	4805                	li	a6,1
    10001c7e:	bfad                	j	10001bf8 <_free_r+0xb8>
    10001c80:	6e10                	ld	a2,24(a2)
    10001c82:	ef10                	sd	a2,24(a4)
    10001c84:	ea18                	sd	a4,16(a2)
    10001c86:	b75d                	j	10001c2c <_free_r+0xec>
    10001c88:	0097d613          	srli	a2,a5,0x9
    10001c8c:	4711                	li	a4,4
    10001c8e:	04c76163          	bltu	a4,a2,10001cd0 <_free_r+0x190>
    10001c92:	0067d713          	srli	a4,a5,0x6
    10001c96:	0387071b          	addiw	a4,a4,56
    10001c9a:	0017061b          	addiw	a2,a4,1
    10001c9e:	0016161b          	slliw	a2,a2,0x1
    10001ca2:	060e                	slli	a2,a2,0x3
    10001ca4:	962a                	add	a2,a2,a0
    10001ca6:	ff060593          	addi	a1,a2,-16
    10001caa:	6210                	ld	a2,0(a2)
    10001cac:	06c59863          	bne	a1,a2,10001d1c <_free_r+0x1dc>
    10001cb0:	4785                	li	a5,1
    10001cb2:	4027571b          	sraiw	a4,a4,0x2
    10001cb6:	00e79733          	sll	a4,a5,a4
    10001cba:	651c                	ld	a5,8(a0)
    10001cbc:	8f5d                	or	a4,a4,a5
    10001cbe:	00006797          	auipc	a5,0x6
    10001cc2:	36e7b923          	sd	a4,882(a5) # 10008030 <__malloc_av_+0x8>
    10001cc6:	ee8c                	sd	a1,24(a3)
    10001cc8:	ea90                	sd	a2,16(a3)
    10001cca:	e994                	sd	a3,16(a1)
    10001ccc:	ee14                	sd	a3,24(a2)
    10001cce:	bdd5                	j	10001bc2 <_free_r+0x82>
    10001cd0:	4751                	li	a4,20
    10001cd2:	00c76563          	bltu	a4,a2,10001cdc <_free_r+0x19c>
    10001cd6:	05b6071b          	addiw	a4,a2,91
    10001cda:	b7c1                	j	10001c9a <_free_r+0x15a>
    10001cdc:	05400713          	li	a4,84
    10001ce0:	00c76763          	bltu	a4,a2,10001cee <_free_r+0x1ae>
    10001ce4:	00c7d713          	srli	a4,a5,0xc
    10001ce8:	06e7071b          	addiw	a4,a4,110
    10001cec:	b77d                	j	10001c9a <_free_r+0x15a>
    10001cee:	15400713          	li	a4,340
    10001cf2:	00c76763          	bltu	a4,a2,10001d00 <_free_r+0x1c0>
    10001cf6:	00f7d713          	srli	a4,a5,0xf
    10001cfa:	0777071b          	addiw	a4,a4,119
    10001cfe:	bf71                	j	10001c9a <_free_r+0x15a>
    10001d00:	55400593          	li	a1,1364
    10001d04:	07e00713          	li	a4,126
    10001d08:	f8c5e9e3          	bltu	a1,a2,10001c9a <_free_r+0x15a>
    10001d0c:	0127d713          	srli	a4,a5,0x12
    10001d10:	07c7071b          	addiw	a4,a4,124
    10001d14:	b759                	j	10001c9a <_free_r+0x15a>
    10001d16:	6a10                	ld	a2,16(a2)
    10001d18:	00c58663          	beq	a1,a2,10001d24 <_free_r+0x1e4>
    10001d1c:	6618                	ld	a4,8(a2)
    10001d1e:	9b71                	andi	a4,a4,-4
    10001d20:	fee7ebe3          	bltu	a5,a4,10001d16 <_free_r+0x1d6>
    10001d24:	6e0c                	ld	a1,24(a2)
    10001d26:	b745                	j	10001cc6 <_free_r+0x186>
    10001d28:	8082                	ret

0000000010001d2a <eclear>:
    10001d2a:	01450793          	addi	a5,a0,20
    10001d2e:	0509                	addi	a0,a0,2
    10001d30:	fe051f23          	sh	zero,-2(a0)
    10001d34:	fef51de3          	bne	a0,a5,10001d2e <eclear+0x4>
    10001d38:	8082                	ret

0000000010001d3a <emov>:
    10001d3a:	01450793          	addi	a5,a0,20
    10001d3e:	0509                	addi	a0,a0,2
    10001d40:	ffe55703          	lhu	a4,-2(a0)
    10001d44:	0589                	addi	a1,a1,2
    10001d46:	fee59f23          	sh	a4,-2(a1)
    10001d4a:	fea79ae3          	bne	a5,a0,10001d3e <emov+0x4>
    10001d4e:	8082                	ret

0000000010001d50 <ecleaz>:
    10001d50:	01a50793          	addi	a5,a0,26
    10001d54:	0509                	addi	a0,a0,2
    10001d56:	fe051f23          	sh	zero,-2(a0)
    10001d5a:	fef51de3          	bne	a0,a5,10001d54 <ecleaz+0x4>
    10001d5e:	8082                	ret

0000000010001d60 <emovz>:
    10001d60:	01850713          	addi	a4,a0,24
    10001d64:	87ae                	mv	a5,a1
    10001d66:	0509                	addi	a0,a0,2
    10001d68:	ffe55683          	lhu	a3,-2(a0)
    10001d6c:	0789                	addi	a5,a5,2
    10001d6e:	fed79f23          	sh	a3,-2(a5)
    10001d72:	fea71ae3          	bne	a4,a0,10001d66 <emovz+0x6>
    10001d76:	00059c23          	sh	zero,24(a1)
    10001d7a:	8082                	ret

0000000010001d7c <ecmpm>:
    10001d7c:	00450793          	addi	a5,a0,4
    10001d80:	0591                	addi	a1,a1,4
    10001d82:	0569                	addi	a0,a0,26
    10001d84:	0789                	addi	a5,a5,2
    10001d86:	0589                	addi	a1,a1,2
    10001d88:	ffe7d683          	lhu	a3,-2(a5)
    10001d8c:	ffe5d703          	lhu	a4,-2(a1)
    10001d90:	00e69663          	bne	a3,a4,10001d9c <ecmpm+0x20>
    10001d94:	fef518e3          	bne	a0,a5,10001d84 <ecmpm+0x8>
    10001d98:	4501                	li	a0,0
    10001d9a:	8082                	ret
    10001d9c:	4505                	li	a0,1
    10001d9e:	00d76363          	bltu	a4,a3,10001da4 <ecmpm+0x28>
    10001da2:	557d                	li	a0,-1
    10001da4:	8082                	ret

0000000010001da6 <eshdn1>:
    10001da6:	00450693          	addi	a3,a0,4
    10001daa:	4781                	li	a5,0
    10001dac:	0569                	addi	a0,a0,26
    10001dae:	7661                	lui	a2,0xffff8
    10001db0:	0006d703          	lhu	a4,0(a3)
    10001db4:	00177593          	andi	a1,a4,1
    10001db8:	c199                	beqz	a1,10001dbe <eshdn1+0x18>
    10001dba:	0017e793          	ori	a5,a5,1
    10001dbe:	0027f593          	andi	a1,a5,2
    10001dc2:	8305                	srli	a4,a4,0x1
    10001dc4:	e999                	bnez	a1,10001dda <eshdn1+0x34>
    10001dc6:	0017979b          	slliw	a5,a5,0x1
    10001dca:	00e69023          	sh	a4,0(a3)
    10001dce:	17c2                	slli	a5,a5,0x30
    10001dd0:	0689                	addi	a3,a3,2
    10001dd2:	93c1                	srli	a5,a5,0x30
    10001dd4:	fcd51ee3          	bne	a0,a3,10001db0 <eshdn1+0xa>
    10001dd8:	8082                	ret
    10001dda:	8f51                	or	a4,a4,a2
    10001ddc:	b7ed                	j	10001dc6 <eshdn1+0x20>

0000000010001dde <eshup1>:
    10001dde:	01650693          	addi	a3,a0,22
    10001de2:	4701                	li	a4,0
    10001de4:	0026d783          	lhu	a5,2(a3)
    10001de8:	0107961b          	slliw	a2,a5,0x10
    10001dec:	4106561b          	sraiw	a2,a2,0x10
    10001df0:	00065463          	bgez	a2,10001df8 <eshup1+0x1a>
    10001df4:	00176713          	ori	a4,a4,1
    10001df8:	0017979b          	slliw	a5,a5,0x1
    10001dfc:	17c2                	slli	a5,a5,0x30
    10001dfe:	00277613          	andi	a2,a4,2
    10001e02:	93c1                	srli	a5,a5,0x30
    10001e04:	ea19                	bnez	a2,10001e1a <eshup1+0x3c>
    10001e06:	0017171b          	slliw	a4,a4,0x1
    10001e0a:	00f69123          	sh	a5,2(a3)
    10001e0e:	1742                	slli	a4,a4,0x30
    10001e10:	16f9                	addi	a3,a3,-2
    10001e12:	9341                	srli	a4,a4,0x30
    10001e14:	fcd518e3          	bne	a0,a3,10001de4 <eshup1+0x6>
    10001e18:	8082                	ret
    10001e1a:	0017e793          	ori	a5,a5,1
    10001e1e:	b7e5                	j	10001e06 <eshup1+0x28>

0000000010001e20 <eshdn8>:
    10001e20:	00450793          	addi	a5,a0,4
    10001e24:	4701                	li	a4,0
    10001e26:	0569                	addi	a0,a0,26
    10001e28:	0007d683          	lhu	a3,0(a5)
    10001e2c:	0789                	addi	a5,a5,2
    10001e2e:	0086d61b          	srliw	a2,a3,0x8
    10001e32:	8f51                	or	a4,a4,a2
    10001e34:	fee79f23          	sh	a4,-2(a5)
    10001e38:	0086971b          	slliw	a4,a3,0x8
    10001e3c:	1742                	slli	a4,a4,0x30
    10001e3e:	9341                	srli	a4,a4,0x30
    10001e40:	fef514e3          	bne	a0,a5,10001e28 <eshdn8+0x8>
    10001e44:	8082                	ret

0000000010001e46 <eshup8>:
    10001e46:	01650793          	addi	a5,a0,22
    10001e4a:	4701                	li	a4,0
    10001e4c:	0027d683          	lhu	a3,2(a5)
    10001e50:	17f9                	addi	a5,a5,-2
    10001e52:	00869613          	slli	a2,a3,0x8
    10001e56:	8f51                	or	a4,a4,a2
    10001e58:	00e79223          	sh	a4,4(a5)
    10001e5c:	0086d713          	srli	a4,a3,0x8
    10001e60:	fef516e3          	bne	a0,a5,10001e4c <eshup8+0x6>
    10001e64:	8082                	ret

0000000010001e66 <eshup6>:
    10001e66:	00450793          	addi	a5,a0,4
    10001e6a:	01850713          	addi	a4,a0,24
    10001e6e:	0789                	addi	a5,a5,2
    10001e70:	0007d683          	lhu	a3,0(a5)
    10001e74:	fed79f23          	sh	a3,-2(a5)
    10001e78:	fef71be3          	bne	a4,a5,10001e6e <eshup6+0x8>
    10001e7c:	00051c23          	sh	zero,24(a0)
    10001e80:	8082                	ret

0000000010001e82 <eshdn6>:
    10001e82:	01850793          	addi	a5,a0,24
    10001e86:	01a50713          	addi	a4,a0,26
    10001e8a:	00450693          	addi	a3,a0,4
    10001e8e:	17f9                	addi	a5,a5,-2
    10001e90:	0007d603          	lhu	a2,0(a5)
    10001e94:	1779                	addi	a4,a4,-2
    10001e96:	00c71023          	sh	a2,0(a4)
    10001e9a:	fef69ae3          	bne	a3,a5,10001e8e <eshdn6+0xc>
    10001e9e:	00051223          	sh	zero,4(a0)
    10001ea2:	8082                	ret

0000000010001ea4 <eaddm>:
    10001ea4:	05e1                	addi	a1,a1,24
    10001ea6:	01650713          	addi	a4,a0,22
    10001eaa:	4681                	li	a3,0
    10001eac:	0005d783          	lhu	a5,0(a1)
    10001eb0:	1779                	addi	a4,a4,-2
    10001eb2:	15f9                	addi	a1,a1,-2
    10001eb4:	97b6                	add	a5,a5,a3
    10001eb6:	00475683          	lhu	a3,4(a4)
    10001eba:	97b6                	add	a5,a5,a3
    10001ebc:	00f59123          	sh	a5,2(a1)
    10001ec0:	83c1                	srli	a5,a5,0x10
    10001ec2:	0017f693          	andi	a3,a5,1
    10001ec6:	fee513e3          	bne	a0,a4,10001eac <eaddm+0x8>
    10001eca:	8082                	ret

0000000010001ecc <esubm>:
    10001ecc:	05e1                	addi	a1,a1,24
    10001ece:	01650713          	addi	a4,a0,22
    10001ed2:	4681                	li	a3,0
    10001ed4:	0005d783          	lhu	a5,0(a1)
    10001ed8:	00275603          	lhu	a2,2(a4)
    10001edc:	1779                	addi	a4,a4,-2
    10001ede:	15f9                	addi	a1,a1,-2
    10001ee0:	8f91                	sub	a5,a5,a2
    10001ee2:	8f95                	sub	a5,a5,a3
    10001ee4:	00f59123          	sh	a5,2(a1)
    10001ee8:	83c1                	srli	a5,a5,0x10
    10001eea:	0017f693          	andi	a3,a5,1
    10001eee:	fee513e3          	bne	a0,a4,10001ed4 <esubm+0x8>
    10001ef2:	8082                	ret

0000000010001ef4 <m16m>:
    10001ef4:	1101                	addi	sp,sp,-32
    10001ef6:	6341                	lui	t1,0x10
    10001ef8:	01858893          	addi	a7,a1,24
    10001efc:	00011b23          	sh	zero,22(sp)
    10001f00:	00011c23          	sh	zero,24(sp)
    10001f04:	0591                	addi	a1,a1,4
    10001f06:	0834                	addi	a3,sp,24
    10001f08:	137d                	addi	t1,t1,-1
    10001f0a:	0008d703          	lhu	a4,0(a7)
    10001f0e:	16f9                	addi	a3,a3,-2
    10001f10:	18f9                	addi	a7,a7,-2
    10001f12:	e705                	bnez	a4,10001f3a <m16m+0x46>
    10001f14:	fe069f23          	sh	zero,-2(a3)
    10001f18:	ff1599e3          	bne	a1,a7,10001f0a <m16m+0x16>
    10001f1c:	4791                	li	a5,4
    10001f1e:	4769                	li	a4,26
    10001f20:	00f105b3          	add	a1,sp,a5
    10001f24:	0005d583          	lhu	a1,0(a1)
    10001f28:	00f606b3          	add	a3,a2,a5
    10001f2c:	0789                	addi	a5,a5,2
    10001f2e:	00b69023          	sh	a1,0(a3)
    10001f32:	fee797e3          	bne	a5,a4,10001f20 <m16m+0x2c>
    10001f36:	6105                	addi	sp,sp,32
    10001f38:	8082                	ret
    10001f3a:	02a70733          	mul	a4,a4,a0
    10001f3e:	0026d803          	lhu	a6,2(a3)
    10001f42:	006777b3          	and	a5,a4,t1
    10001f46:	97c2                	add	a5,a5,a6
    10001f48:	0107d813          	srli	a6,a5,0x10
    10001f4c:	00f69123          	sh	a5,2(a3)
    10001f50:	01075793          	srli	a5,a4,0x10
    10001f54:	0006d703          	lhu	a4,0(a3)
    10001f58:	97ba                	add	a5,a5,a4
    10001f5a:	97c2                	add	a5,a5,a6
    10001f5c:	00f69023          	sh	a5,0(a3)
    10001f60:	83c1                	srli	a5,a5,0x10
    10001f62:	fef69f23          	sh	a5,-2(a3)
    10001f66:	bf4d                	j	10001f18 <m16m+0x24>

0000000010001f68 <eisnan>:
    10001f68:	01255783          	lhu	a5,18(a0)
    10001f6c:	fff7c793          	not	a5,a5
    10001f70:	03179713          	slli	a4,a5,0x31
    10001f74:	eb09                	bnez	a4,10001f86 <eisnan+0x1e>
    10001f76:	01250793          	addi	a5,a0,18
    10001f7a:	0509                	addi	a0,a0,2
    10001f7c:	ffe55703          	lhu	a4,-2(a0)
    10001f80:	e709                	bnez	a4,10001f8a <eisnan+0x22>
    10001f82:	fea79ce3          	bne	a5,a0,10001f7a <eisnan+0x12>
    10001f86:	4501                	li	a0,0
    10001f88:	8082                	ret
    10001f8a:	4505                	li	a0,1
    10001f8c:	8082                	ret

0000000010001f8e <eisneg>:
    10001f8e:	1141                	addi	sp,sp,-16
    10001f90:	e022                	sd	s0,0(sp)
    10001f92:	e406                	sd	ra,8(sp)
    10001f94:	842a                	mv	s0,a0
    10001f96:	00000097          	auipc	ra,0x0
    10001f9a:	fd2080e7          	jalr	-46(ra) # 10001f68 <eisnan>
    10001f9e:	e901                	bnez	a0,10001fae <eisneg+0x20>
    10001fa0:	01344503          	lbu	a0,19(s0)
    10001fa4:	811d                	srli	a0,a0,0x7
    10001fa6:	60a2                	ld	ra,8(sp)
    10001fa8:	6402                	ld	s0,0(sp)
    10001faa:	0141                	addi	sp,sp,16
    10001fac:	8082                	ret
    10001fae:	4501                	li	a0,0
    10001fb0:	bfdd                	j	10001fa6 <eisneg+0x18>

0000000010001fb2 <emovi>:
    10001fb2:	01251783          	lh	a5,18(a0)
    10001fb6:	1101                	addi	sp,sp,-32
    10001fb8:	ec06                	sd	ra,24(sp)
    10001fba:	e822                	sd	s0,16(sp)
    10001fbc:	e426                	sd	s1,8(sp)
    10001fbe:	e04a                	sd	s2,0(sp)
    10001fc0:	0407d963          	bgez	a5,10002012 <emovi+0x60>
    10001fc4:	57fd                	li	a5,-1
    10001fc6:	00f59023          	sh	a5,0(a1)
    10001fca:	01255703          	lhu	a4,18(a0)
    10001fce:	67a1                	lui	a5,0x8
    10001fd0:	17fd                	addi	a5,a5,-1
    10001fd2:	8f7d                	and	a4,a4,a5
    10001fd4:	00e59123          	sh	a4,2(a1)
    10001fd8:	01050913          	addi	s2,a0,16
    10001fdc:	04f71863          	bne	a4,a5,1000202c <emovi+0x7a>
    10001fe0:	842e                	mv	s0,a1
    10001fe2:	84aa                	mv	s1,a0
    10001fe4:	f85ff0ef          	jal	ra,10001f68 <eisnan>
    10001fe8:	c905                	beqz	a0,10002018 <emovi+0x66>
    10001fea:	00640793          	addi	a5,s0,6
    10001fee:	00041223          	sh	zero,4(s0)
    10001ff2:	ffc48513          	addi	a0,s1,-4
    10001ff6:	1979                	addi	s2,s2,-2
    10001ff8:	00295703          	lhu	a4,2(s2)
    10001ffc:	0789                	addi	a5,a5,2
    10001ffe:	fee79f23          	sh	a4,-2(a5) # 7ffe <_tbss_end+0x7ffe>
    10002002:	fea91ae3          	bne	s2,a0,10001ff6 <emovi+0x44>
    10002006:	60e2                	ld	ra,24(sp)
    10002008:	6442                	ld	s0,16(sp)
    1000200a:	64a2                	ld	s1,8(sp)
    1000200c:	6902                	ld	s2,0(sp)
    1000200e:	6105                	addi	sp,sp,32
    10002010:	8082                	ret
    10002012:	00059023          	sh	zero,0(a1)
    10002016:	bf55                	j	10001fca <emovi+0x18>
    10002018:	00440793          	addi	a5,s0,4
    1000201c:	01a40593          	addi	a1,s0,26
    10002020:	0789                	addi	a5,a5,2
    10002022:	fe079f23          	sh	zero,-2(a5)
    10002026:	feb79de3          	bne	a5,a1,10002020 <emovi+0x6e>
    1000202a:	bff1                	j	10002006 <emovi+0x54>
    1000202c:	00658793          	addi	a5,a1,6
    10002030:	00059223          	sh	zero,4(a1)
    10002034:	1579                	addi	a0,a0,-2
    10002036:	1979                	addi	s2,s2,-2
    10002038:	00295703          	lhu	a4,2(s2)
    1000203c:	0789                	addi	a5,a5,2
    1000203e:	fee79f23          	sh	a4,-2(a5)
    10002042:	fea91ae3          	bne	s2,a0,10002036 <emovi+0x84>
    10002046:	00059c23          	sh	zero,24(a1)
    1000204a:	bf75                	j	10002006 <emovi+0x54>

000000001000204c <ecmp>:
    1000204c:	711d                	addi	sp,sp,-96
    1000204e:	e4a6                	sd	s1,72(sp)
    10002050:	e0ca                	sd	s2,64(sp)
    10002052:	ec86                	sd	ra,88(sp)
    10002054:	e8a2                	sd	s0,80(sp)
    10002056:	892a                	mv	s2,a0
    10002058:	84ae                	mv	s1,a1
    1000205a:	00000097          	auipc	ra,0x0
    1000205e:	f0e080e7          	jalr	-242(ra) # 10001f68 <eisnan>
    10002062:	ed49                	bnez	a0,100020fc <ecmp+0xb0>
    10002064:	8526                	mv	a0,s1
    10002066:	00000097          	auipc	ra,0x0
    1000206a:	f02080e7          	jalr	-254(ra) # 10001f68 <eisnan>
    1000206e:	842a                	mv	s0,a0
    10002070:	e551                	bnez	a0,100020fc <ecmp+0xb0>
    10002072:	858a                	mv	a1,sp
    10002074:	854a                	mv	a0,s2
    10002076:	00000097          	auipc	ra,0x0
    1000207a:	f3c080e7          	jalr	-196(ra) # 10001fb2 <emovi>
    1000207e:	100c                	addi	a1,sp,32
    10002080:	8526                	mv	a0,s1
    10002082:	00000097          	auipc	ra,0x0
    10002086:	f30080e7          	jalr	-208(ra) # 10001fb2 <emovi>
    1000208a:	00015703          	lhu	a4,0(sp)
    1000208e:	02015783          	lhu	a5,32(sp)
    10002092:	02e78c63          	beq	a5,a4,100020ca <ecmp+0x7e>
    10002096:	4789                	li	a5,2
    10002098:	46e1                	li	a3,24
    1000209a:	00f10633          	add	a2,sp,a5
    1000209e:	00065603          	lhu	a2,0(a2) # ffffffffffff8000 <_end+0xffffffffeffef55c>
    100020a2:	e205                	bnez	a2,100020c2 <ecmp+0x76>
    100020a4:	1010                	addi	a2,sp,32
    100020a6:	963e                	add	a2,a2,a5
    100020a8:	00065603          	lhu	a2,0(a2)
    100020ac:	ea19                	bnez	a2,100020c2 <ecmp+0x76>
    100020ae:	0789                	addi	a5,a5,2
    100020b0:	fed795e3          	bne	a5,a3,1000209a <ecmp+0x4e>
    100020b4:	8522                	mv	a0,s0
    100020b6:	60e6                	ld	ra,88(sp)
    100020b8:	6446                	ld	s0,80(sp)
    100020ba:	64a6                	ld	s1,72(sp)
    100020bc:	6906                	ld	s2,64(sp)
    100020be:	6125                	addi	sp,sp,96
    100020c0:	8082                	ret
    100020c2:	4405                	li	s0,1
    100020c4:	db65                	beqz	a4,100020b4 <ecmp+0x68>
    100020c6:	547d                	li	s0,-1
    100020c8:	b7f5                	j	100020b4 <ecmp+0x68>
    100020ca:	4605                	li	a2,1
    100020cc:	c311                	beqz	a4,100020d0 <ecmp+0x84>
    100020ce:	567d                	li	a2,-1
    100020d0:	4781                	li	a5,0
    100020d2:	45e1                	li	a1,24
    100020d4:	00f10733          	add	a4,sp,a5
    100020d8:	00075683          	lhu	a3,0(a4)
    100020dc:	1018                	addi	a4,sp,32
    100020de:	973e                	add	a4,a4,a5
    100020e0:	00075703          	lhu	a4,0(a4)
    100020e4:	00e69663          	bne	a3,a4,100020f0 <ecmp+0xa4>
    100020e8:	0789                	addi	a5,a5,2
    100020ea:	feb795e3          	bne	a5,a1,100020d4 <ecmp+0x88>
    100020ee:	b7d9                	j	100020b4 <ecmp+0x68>
    100020f0:	8432                	mv	s0,a2
    100020f2:	fcd761e3          	bltu	a4,a3,100020b4 <ecmp+0x68>
    100020f6:	40c0043b          	negw	s0,a2
    100020fa:	bf6d                	j	100020b4 <ecmp+0x68>
    100020fc:	5479                	li	s0,-2
    100020fe:	bf5d                	j	100020b4 <ecmp+0x68>

0000000010002100 <eisinf>:
    10002100:	01255783          	lhu	a5,18(a0)
    10002104:	fff7c793          	not	a5,a5
    10002108:	03179713          	slli	a4,a5,0x31
    1000210c:	eb11                	bnez	a4,10002120 <eisinf+0x20>
    1000210e:	1141                	addi	sp,sp,-16
    10002110:	e406                	sd	ra,8(sp)
    10002112:	e57ff0ef          	jal	ra,10001f68 <eisnan>
    10002116:	60a2                	ld	ra,8(sp)
    10002118:	00153513          	seqz	a0,a0
    1000211c:	0141                	addi	sp,sp,16
    1000211e:	8082                	ret
    10002120:	4501                	li	a0,0
    10002122:	8082                	ret

0000000010002124 <einfin.isra.2>:
    10002124:	01250793          	addi	a5,a0,18
    10002128:	0509                	addi	a0,a0,2
    1000212a:	fe051f23          	sh	zero,-2(a0)
    1000212e:	fef51de3          	bne	a0,a5,10002128 <einfin.isra.2+0x4>
    10002132:	00055783          	lhu	a5,0(a0)
    10002136:	6721                	lui	a4,0x8
    10002138:	177d                	addi	a4,a4,-1
    1000213a:	8fd9                	or	a5,a5,a4
    1000213c:	00f51023          	sh	a5,0(a0)
    10002140:	8082                	ret

0000000010002142 <eshift.part.3>:
    10002142:	7139                	addi	sp,sp,-64
    10002144:	f822                	sd	s0,48(sp)
    10002146:	ec4e                	sd	s3,24(sp)
    10002148:	fc06                	sd	ra,56(sp)
    1000214a:	f426                	sd	s1,40(sp)
    1000214c:	f04a                	sd	s2,32(sp)
    1000214e:	e852                	sd	s4,16(sp)
    10002150:	e456                	sd	s5,8(sp)
    10002152:	89aa                	mv	s3,a0
    10002154:	842e                	mv	s0,a1
    10002156:	0a05df63          	bgez	a1,10002214 <eshift.part.3+0xd2>
    1000215a:	40b00a3b          	negw	s4,a1
    1000215e:	8952                	mv	s2,s4
    10002160:	4481                	li	s1,0
    10002162:	4abd                	li	s5,15
    10002164:	034ac763          	blt	s5,s4,10002192 <eshift.part.3+0x50>
    10002168:	0049591b          	srliw	s2,s2,0x4
    1000216c:	55c1                	li	a1,-16
    1000216e:	02b905bb          	mulw	a1,s2,a1
    10002172:	4a1d                	li	s4,7
    10002174:	4085893b          	subw	s2,a1,s0
    10002178:	844a                	mv	s0,s2
    1000217a:	032a4463          	blt	s4,s2,100021a2 <eshift.part.3+0x60>
    1000217e:	0034559b          	srliw	a1,s0,0x3
    10002182:	57e1                	li	a5,-8
    10002184:	02f585bb          	mulw	a1,a1,a5
    10002188:	9c2d                	addw	s0,s0,a1
    1000218a:	e415                	bnez	s0,100021b6 <eshift.part.3+0x74>
    1000218c:	00903533          	snez	a0,s1
    10002190:	a88d                	j	10002202 <eshift.part.3+0xc0>
    10002192:	0189d783          	lhu	a5,24(s3)
    10002196:	854e                	mv	a0,s3
    10002198:	3a41                	addiw	s4,s4,-16
    1000219a:	8cdd                	or	s1,s1,a5
    1000219c:	ce7ff0ef          	jal	ra,10001e82 <eshdn6>
    100021a0:	b7d1                	j	10002164 <eshift.part.3+0x22>
    100021a2:	0189c783          	lbu	a5,24(s3)
    100021a6:	854e                	mv	a0,s3
    100021a8:	3961                	addiw	s2,s2,-8
    100021aa:	8cdd                	or	s1,s1,a5
    100021ac:	00000097          	auipc	ra,0x0
    100021b0:	c74080e7          	jalr	-908(ra) # 10001e20 <eshdn8>
    100021b4:	b7d9                	j	1000217a <eshift.part.3+0x38>
    100021b6:	0189d783          	lhu	a5,24(s3)
    100021ba:	854e                	mv	a0,s3
    100021bc:	347d                	addiw	s0,s0,-1
    100021be:	8b85                	andi	a5,a5,1
    100021c0:	8cdd                	or	s1,s1,a5
    100021c2:	00000097          	auipc	ra,0x0
    100021c6:	be4080e7          	jalr	-1052(ra) # 10001da6 <eshdn1>
    100021ca:	b7c1                	j	1000218a <eshift.part.3+0x48>
    100021cc:	854e                	mv	a0,s3
    100021ce:	00000097          	auipc	ra,0x0
    100021d2:	c98080e7          	jalr	-872(ra) # 10001e66 <eshup6>
    100021d6:	34c1                	addiw	s1,s1,-16
    100021d8:	fe994ae3          	blt	s2,s1,100021cc <eshift.part.3+0x8a>
    100021dc:	0044559b          	srliw	a1,s0,0x4
    100021e0:	57c1                	li	a5,-16
    100021e2:	02f585bb          	mulw	a1,a1,a5
    100021e6:	491d                	li	s2,7
    100021e8:	00b404bb          	addw	s1,s0,a1
    100021ec:	8426                	mv	s0,s1
    100021ee:	02994663          	blt	s2,s1,1000221a <eshift.part.3+0xd8>
    100021f2:	0034559b          	srliw	a1,s0,0x3
    100021f6:	57e1                	li	a5,-8
    100021f8:	02f585bb          	mulw	a1,a1,a5
    100021fc:	9c2d                	addw	s0,s0,a1
    100021fe:	e01d                	bnez	s0,10002224 <eshift.part.3+0xe2>
    10002200:	4501                	li	a0,0
    10002202:	70e2                	ld	ra,56(sp)
    10002204:	7442                	ld	s0,48(sp)
    10002206:	74a2                	ld	s1,40(sp)
    10002208:	7902                	ld	s2,32(sp)
    1000220a:	69e2                	ld	s3,24(sp)
    1000220c:	6a42                	ld	s4,16(sp)
    1000220e:	6aa2                	ld	s5,8(sp)
    10002210:	6121                	addi	sp,sp,64
    10002212:	8082                	ret
    10002214:	84ae                	mv	s1,a1
    10002216:	493d                	li	s2,15
    10002218:	b7c1                	j	100021d8 <eshift.part.3+0x96>
    1000221a:	854e                	mv	a0,s3
    1000221c:	c2bff0ef          	jal	ra,10001e46 <eshup8>
    10002220:	34e1                	addiw	s1,s1,-8
    10002222:	b7f1                	j	100021ee <eshift.part.3+0xac>
    10002224:	854e                	mv	a0,s3
    10002226:	bb9ff0ef          	jal	ra,10001dde <eshup1>
    1000222a:	347d                	addiw	s0,s0,-1
    1000222c:	bfc9                	j	100021fe <eshift.part.3+0xbc>

000000001000222e <enormlz>:
    1000222e:	00455783          	lhu	a5,4(a0)
    10002232:	1101                	addi	sp,sp,-32
    10002234:	e426                	sd	s1,8(sp)
    10002236:	ec06                	sd	ra,24(sp)
    10002238:	e822                	sd	s0,16(sp)
    1000223a:	e04a                	sd	s2,0(sp)
    1000223c:	84aa                	mv	s1,a0
    1000223e:	e3bd                	bnez	a5,100022a4 <enormlz+0x76>
    10002240:	00651783          	lh	a5,6(a0)
    10002244:	4401                	li	s0,0
    10002246:	0a000913          	li	s2,160
    1000224a:	0007df63          	bgez	a5,10002268 <enormlz+0x3a>
    1000224e:	8522                	mv	a0,s0
    10002250:	60e2                	ld	ra,24(sp)
    10002252:	6442                	ld	s0,16(sp)
    10002254:	64a2                	ld	s1,8(sp)
    10002256:	6902                	ld	s2,0(sp)
    10002258:	6105                	addi	sp,sp,32
    1000225a:	8082                	ret
    1000225c:	8526                	mv	a0,s1
    1000225e:	2441                	addiw	s0,s0,16
    10002260:	c07ff0ef          	jal	ra,10001e66 <eshup6>
    10002264:	ff2405e3          	beq	s0,s2,1000224e <enormlz+0x20>
    10002268:	0064d783          	lhu	a5,6(s1)
    1000226c:	dbe5                	beqz	a5,1000225c <enormlz+0x2e>
    1000226e:	0064d783          	lhu	a5,6(s1)
    10002272:	f007f793          	andi	a5,a5,-256
    10002276:	c385                	beqz	a5,10002296 <enormlz+0x68>
    10002278:	0a000913          	li	s2,160
    1000227c:	00649783          	lh	a5,6(s1)
    10002280:	fc07c7e3          	bltz	a5,1000224e <enormlz+0x20>
    10002284:	8526                	mv	a0,s1
    10002286:	2405                	addiw	s0,s0,1
    10002288:	00000097          	auipc	ra,0x0
    1000228c:	b56080e7          	jalr	-1194(ra) # 10001dde <eshup1>
    10002290:	fe8956e3          	ble	s0,s2,1000227c <enormlz+0x4e>
    10002294:	bf6d                	j	1000224e <enormlz+0x20>
    10002296:	8526                	mv	a0,s1
    10002298:	00000097          	auipc	ra,0x0
    1000229c:	bae080e7          	jalr	-1106(ra) # 10001e46 <eshup8>
    100022a0:	2421                	addiw	s0,s0,8
    100022a2:	b7f1                	j	1000226e <enormlz+0x40>
    100022a4:	f007f793          	andi	a5,a5,-256
    100022a8:	4401                	li	s0,0
    100022aa:	c781                	beqz	a5,100022b2 <enormlz+0x84>
    100022ac:	b75ff0ef          	jal	ra,10001e20 <eshdn8>
    100022b0:	5461                	li	s0,-8
    100022b2:	f7000913          	li	s2,-144
    100022b6:	a039                	j	100022c4 <enormlz+0x96>
    100022b8:	8526                	mv	a0,s1
    100022ba:	347d                	addiw	s0,s0,-1
    100022bc:	aebff0ef          	jal	ra,10001da6 <eshdn1>
    100022c0:	f92447e3          	blt	s0,s2,1000224e <enormlz+0x20>
    100022c4:	0044d783          	lhu	a5,4(s1)
    100022c8:	fbe5                	bnez	a5,100022b8 <enormlz+0x8a>
    100022ca:	b751                	j	1000224e <enormlz+0x20>

00000000100022cc <enan.constprop.12>:
    100022cc:	01050793          	addi	a5,a0,16
    100022d0:	0509                	addi	a0,a0,2
    100022d2:	fe051f23          	sh	zero,-2(a0)
    100022d6:	fef51de3          	bne	a0,a5,100022d0 <enan.constprop.12+0x4>
    100022da:	77f1                	lui	a5,0xffffc
    100022dc:	00f51023          	sh	a5,0(a0)
    100022e0:	67a1                	lui	a5,0x8
    100022e2:	17fd                	addi	a5,a5,-1
    100022e4:	00f51123          	sh	a5,2(a0)
    100022e8:	8082                	ret

00000000100022ea <emovo.isra.6>:
    100022ea:	872a                	mv	a4,a0
    100022ec:	00075683          	lhu	a3,0(a4) # 8000 <_tbss_end+0x8000>
    100022f0:	852e                	mv	a0,a1
    100022f2:	00275783          	lhu	a5,2(a4)
    100022f6:	c299                	beqz	a3,100022fc <emovo.isra.6+0x12>
    100022f8:	76e1                	lui	a3,0xffff8
    100022fa:	8fd5                	or	a5,a5,a3
    100022fc:	00f51923          	sh	a5,18(a0)
    10002300:	00275603          	lhu	a2,2(a4)
    10002304:	66a1                	lui	a3,0x8
    10002306:	16fd                	addi	a3,a3,-1
    10002308:	00670793          	addi	a5,a4,6
    1000230c:	00d61b63          	bne	a2,a3,10002322 <emovo.isra.6+0x38>
    10002310:	0769                	addi	a4,a4,26
    10002312:	0007d683          	lhu	a3,0(a5) # 8000 <_tbss_end+0x8000>
    10002316:	e28d                	bnez	a3,10002338 <emovo.isra.6+0x4e>
    10002318:	0789                	addi	a5,a5,2
    1000231a:	fee79ce3          	bne	a5,a4,10002312 <emovo.isra.6+0x28>
    1000231e:	e07ff06f          	j	10002124 <einfin.isra.2>
    10002322:	0541                	addi	a0,a0,16
    10002324:	0761                	addi	a4,a4,24
    10002326:	0789                	addi	a5,a5,2
    10002328:	ffe7d683          	lhu	a3,-2(a5)
    1000232c:	1579                	addi	a0,a0,-2
    1000232e:	00d51123          	sh	a3,2(a0)
    10002332:	fee79ae3          	bne	a5,a4,10002326 <emovo.isra.6+0x3c>
    10002336:	8082                	ret
    10002338:	00000317          	auipc	t1,0x0
    1000233c:	f9430067          	jr	-108(t1) # 100022cc <enan.constprop.12>

0000000010002340 <e113toe.isra.8>:
    10002340:	7139                	addi	sp,sp,-64
    10002342:	f426                	sd	s1,40(sp)
    10002344:	84aa                	mv	s1,a0
    10002346:	850a                	mv	a0,sp
    10002348:	f822                	sd	s0,48(sp)
    1000234a:	fc06                	sd	ra,56(sp)
    1000234c:	842e                	mv	s0,a1
    1000234e:	a03ff0ef          	jal	ra,10001d50 <ecleaz>
    10002352:	00e4d703          	lhu	a4,14(s1)
    10002356:	0107179b          	slliw	a5,a4,0x10
    1000235a:	4107d79b          	sraiw	a5,a5,0x10
    1000235e:	0207c763          	bltz	a5,1000238c <e113toe.isra.8+0x4c>
    10002362:	00011023          	sh	zero,0(sp)
    10002366:	66a1                	lui	a3,0x8
    10002368:	16fd                	addi	a3,a3,-1
    1000236a:	8f75                	and	a4,a4,a3
    1000236c:	00e48793          	addi	a5,s1,14
    10002370:	04d71c63          	bne	a4,a3,100023c8 <e113toe.isra.8+0x88>
    10002374:	8726                	mv	a4,s1
    10002376:	00075683          	lhu	a3,0(a4)
    1000237a:	ce89                	beqz	a3,10002394 <e113toe.isra.8+0x54>
    1000237c:	8522                	mv	a0,s0
    1000237e:	f4fff0ef          	jal	ra,100022cc <enan.constprop.12>
    10002382:	70e2                	ld	ra,56(sp)
    10002384:	7442                	ld	s0,48(sp)
    10002386:	74a2                	ld	s1,40(sp)
    10002388:	6121                	addi	sp,sp,64
    1000238a:	8082                	ret
    1000238c:	57fd                	li	a5,-1
    1000238e:	00f11023          	sh	a5,0(sp)
    10002392:	bfd1                	j	10002366 <e113toe.isra.8+0x26>
    10002394:	0709                	addi	a4,a4,2
    10002396:	fee790e3          	bne	a5,a4,10002376 <e113toe.isra.8+0x36>
    1000239a:	8522                	mv	a0,s0
    1000239c:	98fff0ef          	jal	ra,10001d2a <eclear>
    100023a0:	8522                	mv	a0,s0
    100023a2:	00000097          	auipc	ra,0x0
    100023a6:	d82080e7          	jalr	-638(ra) # 10002124 <einfin.isra.2>
    100023aa:	00e49783          	lh	a5,14(s1)
    100023ae:	fc07dae3          	bgez	a5,10002382 <e113toe.isra.8+0x42>
    100023b2:	8522                	mv	a0,s0
    100023b4:	bb5ff0ef          	jal	ra,10001f68 <eisnan>
    100023b8:	f569                	bnez	a0,10002382 <e113toe.isra.8+0x42>
    100023ba:	01245783          	lhu	a5,18(s0)
    100023be:	7761                	lui	a4,0xffff8
    100023c0:	8fb9                	xor	a5,a5,a4
    100023c2:	00f41923          	sh	a5,18(s0)
    100023c6:	bf75                	j	10002382 <e113toe.isra.8+0x42>
    100023c8:	00e11123          	sh	a4,2(sp)
    100023cc:	868a                	mv	a3,sp
    100023ce:	17f9                	addi	a5,a5,-2
    100023d0:	0007d603          	lhu	a2,0(a5)
    100023d4:	0689                	addi	a3,a3,2
    100023d6:	00c69223          	sh	a2,4(a3) # 8004 <_tbss_end+0x8004>
    100023da:	fef49ae3          	bne	s1,a5,100023ce <e113toe.isra.8+0x8e>
    100023de:	eb11                	bnez	a4,100023f2 <e113toe.isra.8+0xb2>
    100023e0:	00011223          	sh	zero,4(sp)
    100023e4:	85a2                	mv	a1,s0
    100023e6:	850a                	mv	a0,sp
    100023e8:	00000097          	auipc	ra,0x0
    100023ec:	f02080e7          	jalr	-254(ra) # 100022ea <emovo.isra.6>
    100023f0:	bf49                	j	10002382 <e113toe.isra.8+0x42>
    100023f2:	4785                	li	a5,1
    100023f4:	55fd                	li	a1,-1
    100023f6:	850a                	mv	a0,sp
    100023f8:	00f11223          	sh	a5,4(sp)
    100023fc:	d47ff0ef          	jal	ra,10002142 <eshift.part.3>
    10002400:	b7d5                	j	100023e4 <e113toe.isra.8+0xa4>

0000000010002402 <emdnorm>:
    10002402:	7139                	addi	sp,sp,-64
    10002404:	f822                	sd	s0,48(sp)
    10002406:	f426                	sd	s1,40(sp)
    10002408:	f04a                	sd	s2,32(sp)
    1000240a:	ec4e                	sd	s3,24(sp)
    1000240c:	e852                	sd	s4,16(sp)
    1000240e:	e456                	sd	s5,8(sp)
    10002410:	8936                	mv	s2,a3
    10002412:	843e                	mv	s0,a5
    10002414:	fc06                	sd	ra,56(sp)
    10002416:	84aa                	mv	s1,a0
    10002418:	89ae                	mv	s3,a1
    1000241a:	8a32                	mv	s4,a2
    1000241c:	8aba                	mv	s5,a4
    1000241e:	e11ff0ef          	jal	ra,1000222e <enormlz>
    10002422:	09000793          	li	a5,144
    10002426:	40a90933          	sub	s2,s2,a0
    1000242a:	02a7d763          	ble	a0,a5,10002458 <emdnorm+0x56>
    1000242e:	67a1                	lui	a5,0x8
    10002430:	17f9                	addi	a5,a5,-2
    10002432:	2327cc63          	blt	a5,s2,1000266a <emdnorm+0x268>
    10002436:	00248793          	addi	a5,s1,2
    1000243a:	04e9                	addi	s1,s1,26
    1000243c:	0789                	addi	a5,a5,2
    1000243e:	fe079f23          	sh	zero,-2(a5) # 7ffe <_tbss_end+0x7ffe>
    10002442:	fe979de3          	bne	a5,s1,1000243c <emdnorm+0x3a>
    10002446:	70e2                	ld	ra,56(sp)
    10002448:	7442                	ld	s0,48(sp)
    1000244a:	74a2                	ld	s1,40(sp)
    1000244c:	7902                	ld	s2,32(sp)
    1000244e:	69e2                	ld	s3,24(sp)
    10002450:	6a42                	ld	s4,16(sp)
    10002452:	6aa2                	ld	s5,8(sp)
    10002454:	6121                	addi	sp,sp,64
    10002456:	8082                	ret
    10002458:	00095f63          	bgez	s2,10002476 <emdnorm+0x74>
    1000245c:	f7000793          	li	a5,-144
    10002460:	0ef94e63          	blt	s2,a5,1000255c <emdnorm+0x15a>
    10002464:	0009059b          	sext.w	a1,s2
    10002468:	8526                	mv	a0,s1
    1000246a:	00000097          	auipc	ra,0x0
    1000246e:	cd8080e7          	jalr	-808(ra) # 10002142 <eshift.part.3>
    10002472:	0e051e63          	bnez	a0,1000256e <emdnorm+0x16c>
    10002476:	1a0a8e63          	beqz	s5,10002632 <emdnorm+0x230>
    1000247a:	4058                	lw	a4,4(s0)
    1000247c:	401c                	lw	a5,0(s0)
    1000247e:	04f70a63          	beq	a4,a5,100024d2 <emdnorm+0xd0>
    10002482:	01a40513          	addi	a0,s0,26
    10002486:	00000097          	auipc	ra,0x0
    1000248a:	8ca080e7          	jalr	-1846(ra) # 10001d50 <ecleaz>
    1000248e:	405c                	lw	a5,4(s0)
    10002490:	03800713          	li	a4,56
    10002494:	10e78d63          	beq	a5,a4,100025ae <emdnorm+0x1ac>
    10002498:	0cf74d63          	blt	a4,a5,10002572 <emdnorm+0x170>
    1000249c:	4761                	li	a4,24
    1000249e:	12e78e63          	beq	a5,a4,100025da <emdnorm+0x1d8>
    100024a2:	03500713          	li	a4,53
    100024a6:	12e78163          	beq	a5,a4,100025c8 <emdnorm+0x1c6>
    100024aa:	80010737          	lui	a4,0x80010
    100024ae:	377d                	addiw	a4,a4,-1
    100024b0:	c858                	sw	a4,20(s0)
    100024b2:	4705                	li	a4,1
    100024b4:	00e41c23          	sh	a4,24(s0)
    100024b8:	472d                	li	a4,11
    100024ba:	1702                	slli	a4,a4,0x20
    100024bc:	0731                	addi	a4,a4,12
    100024be:	e418                	sd	a4,8(s0)
    100024c0:	4458                	lw	a4,12(s0)
    100024c2:	01845683          	lhu	a3,24(s0)
    100024c6:	0721                	addi	a4,a4,8
    100024c8:	0706                	slli	a4,a4,0x1
    100024ca:	9722                	add	a4,a4,s0
    100024cc:	00d71523          	sh	a3,10(a4) # ffffffff8001000a <_end+0xffffffff70007566>
    100024d0:	c01c                	sw	a5,0(s0)
    100024d2:	01204f63          	bgtz	s2,100024f0 <emdnorm+0xee>
    100024d6:	4058                	lw	a4,4(s0)
    100024d8:	09000793          	li	a5,144
    100024dc:	00f70a63          	beq	a4,a5,100024f0 <emdnorm+0xee>
    100024e0:	0184d783          	lhu	a5,24(s1)
    100024e4:	8526                	mv	a0,s1
    100024e6:	8b85                	andi	a5,a5,1
    100024e8:	00f9e9b3          	or	s3,s3,a5
    100024ec:	8bbff0ef          	jal	ra,10001da6 <eshdn1>
    100024f0:	4414                	lw	a3,8(s0)
    100024f2:	01445583          	lhu	a1,20(s0)
    100024f6:	4048                	lw	a0,4(s0)
    100024f8:	00169793          	slli	a5,a3,0x1
    100024fc:	00f48633          	add	a2,s1,a5
    10002500:	00065703          	lhu	a4,0(a2)
    10002504:	8f6d                	and	a4,a4,a1
    10002506:	08f00593          	li	a1,143
    1000250a:	00a5c863          	blt	a1,a0,1000251a <emdnorm+0x118>
    1000250e:	0789                	addi	a5,a5,2
    10002510:	2685                	addiw	a3,a3,1
    10002512:	97a6                	add	a5,a5,s1
    10002514:	45b1                	li	a1,12
    10002516:	0cd5df63          	ble	a3,a1,100025f4 <emdnorm+0x1f2>
    1000251a:	01445783          	lhu	a5,20(s0)
    1000251e:	00065683          	lhu	a3,0(a2)
    10002522:	fff7c793          	not	a5,a5
    10002526:	8ff5                	and	a5,a5,a3
    10002528:	00f61023          	sh	a5,0(a2)
    1000252c:	01645783          	lhu	a5,22(s0)
    10002530:	00e7f6b3          	and	a3,a5,a4
    10002534:	cee1                	beqz	a3,1000260c <emdnorm+0x20a>
    10002536:	00e79d63          	bne	a5,a4,10002550 <emdnorm+0x14e>
    1000253a:	0c099763          	bnez	s3,10002608 <emdnorm+0x206>
    1000253e:	445c                	lw	a5,12(s0)
    10002540:	01845703          	lhu	a4,24(s0)
    10002544:	0786                	slli	a5,a5,0x1
    10002546:	97a6                	add	a5,a5,s1
    10002548:	0007d783          	lhu	a5,0(a5)
    1000254c:	8ff9                	and	a5,a5,a4
    1000254e:	cfdd                	beqz	a5,1000260c <emdnorm+0x20a>
    10002550:	85a6                	mv	a1,s1
    10002552:	01a40513          	addi	a0,s0,26
    10002556:	94fff0ef          	jal	ra,10001ea4 <eaddm>
    1000255a:	a84d                	j	1000260c <emdnorm+0x20a>
    1000255c:	00248793          	addi	a5,s1,2
    10002560:	04e9                	addi	s1,s1,26
    10002562:	0789                	addi	a5,a5,2
    10002564:	fe079f23          	sh	zero,-2(a5)
    10002568:	fe979de3          	bne	a5,s1,10002562 <emdnorm+0x160>
    1000256c:	bde9                	j	10002446 <emdnorm+0x44>
    1000256e:	4985                	li	s3,1
    10002570:	b719                	j	10002476 <emdnorm+0x74>
    10002572:	04000713          	li	a4,64
    10002576:	02e78163          	beq	a5,a4,10002598 <emdnorm+0x196>
    1000257a:	07100713          	li	a4,113
    1000257e:	f2e796e3          	bne	a5,a4,100024aa <emdnorm+0xa8>
    10002582:	40008737          	lui	a4,0x40008
    10002586:	377d                	addiw	a4,a4,-1
    10002588:	c858                	sw	a4,20(s0)
    1000258a:	7761                	lui	a4,0xffff8
    1000258c:	00e41c23          	sh	a4,24(s0)
    10002590:	4729                	li	a4,10
    10002592:	1702                	slli	a4,a4,0x20
    10002594:	0729                	addi	a4,a4,10
    10002596:	b725                	j	100024be <emdnorm+0xbc>
    10002598:	80010737          	lui	a4,0x80010
    1000259c:	377d                	addiw	a4,a4,-1
    1000259e:	c858                	sw	a4,20(s0)
    100025a0:	4705                	li	a4,1
    100025a2:	00e41c23          	sh	a4,24(s0)
    100025a6:	470d                	li	a4,3
    100025a8:	1706                	slli	a4,a4,0x21
    100025aa:	071d                	addi	a4,a4,7
    100025ac:	bf09                	j	100024be <emdnorm+0xbc>
    100025ae:	00800737          	lui	a4,0x800
    100025b2:	0ff7071b          	addiw	a4,a4,255
    100025b6:	c858                	sw	a4,20(s0)
    100025b8:	10000713          	li	a4,256
    100025bc:	00e41c23          	sh	a4,24(s0)
    100025c0:	4719                	li	a4,6
    100025c2:	1702                	slli	a4,a4,0x20
    100025c4:	0719                	addi	a4,a4,6
    100025c6:	bde5                	j	100024be <emdnorm+0xbc>
    100025c8:	04000737          	lui	a4,0x4000
    100025cc:	7ff7071b          	addiw	a4,a4,2047
    100025d0:	c858                	sw	a4,20(s0)
    100025d2:	6705                	lui	a4,0x1
    100025d4:	8007071b          	addiw	a4,a4,-2048
    100025d8:	b7d5                	j	100025bc <emdnorm+0x1ba>
    100025da:	00800737          	lui	a4,0x800
    100025de:	0ff7071b          	addiw	a4,a4,255
    100025e2:	c858                	sw	a4,20(s0)
    100025e4:	10000713          	li	a4,256
    100025e8:	00e41c23          	sh	a4,24(s0)
    100025ec:	4711                	li	a4,4
    100025ee:	1702                	slli	a4,a4,0x20
    100025f0:	0711                	addi	a4,a4,4
    100025f2:	b5f1                	j	100024be <emdnorm+0xbc>
    100025f4:	0007d503          	lhu	a0,0(a5)
    100025f8:	c119                	beqz	a0,100025fe <emdnorm+0x1fc>
    100025fa:	00176713          	ori	a4,a4,1
    100025fe:	00079023          	sh	zero,0(a5)
    10002602:	2685                	addiw	a3,a3,1
    10002604:	0789                	addi	a5,a5,2
    10002606:	bf01                	j	10002516 <emdnorm+0x114>
    10002608:	f40a04e3          	beqz	s4,10002550 <emdnorm+0x14e>
    1000260c:	01204c63          	bgtz	s2,10002624 <emdnorm+0x222>
    10002610:	4058                	lw	a4,4(s0)
    10002612:	09000793          	li	a5,144
    10002616:	00f70763          	beq	a4,a5,10002624 <emdnorm+0x222>
    1000261a:	8526                	mv	a0,s1
    1000261c:	fffff097          	auipc	ra,0xfffff
    10002620:	7c2080e7          	jalr	1986(ra) # 10001dde <eshup1>
    10002624:	0044d783          	lhu	a5,4(s1)
    10002628:	c789                	beqz	a5,10002632 <emdnorm+0x230>
    1000262a:	8526                	mv	a0,s1
    1000262c:	f7aff0ef          	jal	ra,10001da6 <eshdn1>
    10002630:	0905                	addi	s2,s2,1
    10002632:	67a1                	lui	a5,0x8
    10002634:	00049c23          	sh	zero,24(s1)
    10002638:	17f9                	addi	a5,a5,-2
    1000263a:	0327d063          	ble	s2,a5,1000265a <emdnorm+0x258>
    1000263e:	77e1                	lui	a5,0xffff8
    10002640:	fff7c793          	not	a5,a5
    10002644:	00f49123          	sh	a5,2(s1)
    10002648:	00448793          	addi	a5,s1,4
    1000264c:	04e1                	addi	s1,s1,24
    1000264e:	00079023          	sh	zero,0(a5) # ffffffffffff8000 <_end+0xffffffffeffef55c>
    10002652:	0789                	addi	a5,a5,2
    10002654:	fef49de3          	bne	s1,a5,1000264e <emdnorm+0x24c>
    10002658:	b3fd                	j	10002446 <emdnorm+0x44>
    1000265a:	00095563          	bgez	s2,10002664 <emdnorm+0x262>
    1000265e:	00049123          	sh	zero,2(s1)
    10002662:	b3d5                	j	10002446 <emdnorm+0x44>
    10002664:	01249123          	sh	s2,2(s1)
    10002668:	bbf9                	j	10002446 <emdnorm+0x44>
    1000266a:	e00a98e3          	bnez	s5,1000247a <emdnorm+0x78>
    1000266e:	00049c23          	sh	zero,24(s1)
    10002672:	b7f1                	j	1000263e <emdnorm+0x23c>

0000000010002674 <eiremain>:
    10002674:	7139                	addi	sp,sp,-64
    10002676:	e852                	sd	s4,16(sp)
    10002678:	00255a03          	lhu	s4,2(a0)
    1000267c:	f822                	sd	s0,48(sp)
    1000267e:	842e                	mv	s0,a1
    10002680:	fc06                	sd	ra,56(sp)
    10002682:	f426                	sd	s1,40(sp)
    10002684:	f04a                	sd	s2,32(sp)
    10002686:	e456                	sd	s5,8(sp)
    10002688:	e05a                	sd	s6,0(sp)
    1000268a:	8932                	mv	s2,a2
    1000268c:	03460b13          	addi	s6,a2,52
    10002690:	ec4e                	sd	s3,24(sp)
    10002692:	8aaa                	mv	s5,a0
    10002694:	00000097          	auipc	ra,0x0
    10002698:	b9a080e7          	jalr	-1126(ra) # 1000222e <enormlz>
    1000269c:	00245483          	lhu	s1,2(s0)
    100026a0:	40aa0a33          	sub	s4,s4,a0
    100026a4:	8522                	mv	a0,s0
    100026a6:	00000097          	auipc	ra,0x0
    100026aa:	b88080e7          	jalr	-1144(ra) # 1000222e <enormlz>
    100026ae:	8c89                	sub	s1,s1,a0
    100026b0:	855a                	mv	a0,s6
    100026b2:	e9eff0ef          	jal	ra,10001d50 <ecleaz>
    100026b6:	0344d563          	ble	s4,s1,100026e0 <eiremain+0x6c>
    100026ba:	8522                	mv	a0,s0
    100026bc:	7442                	ld	s0,48(sp)
    100026be:	70e2                	ld	ra,56(sp)
    100026c0:	69e2                	ld	s3,24(sp)
    100026c2:	6a42                	ld	s4,16(sp)
    100026c4:	6aa2                	ld	s5,8(sp)
    100026c6:	6b02                	ld	s6,0(sp)
    100026c8:	87ca                	mv	a5,s2
    100026ca:	86a6                	mv	a3,s1
    100026cc:	7902                	ld	s2,32(sp)
    100026ce:	74a2                	ld	s1,40(sp)
    100026d0:	4701                	li	a4,0
    100026d2:	4601                	li	a2,0
    100026d4:	4581                	li	a1,0
    100026d6:	6121                	addi	sp,sp,64
    100026d8:	00000317          	auipc	t1,0x0
    100026dc:	d2a30067          	jr	-726(t1) # 10002402 <emdnorm>
    100026e0:	85a2                	mv	a1,s0
    100026e2:	8556                	mv	a0,s5
    100026e4:	e98ff0ef          	jal	ra,10001d7c <ecmpm>
    100026e8:	4981                	li	s3,0
    100026ea:	00a04763          	bgtz	a0,100026f8 <eiremain+0x84>
    100026ee:	85a2                	mv	a1,s0
    100026f0:	8556                	mv	a0,s5
    100026f2:	fdaff0ef          	jal	ra,10001ecc <esubm>
    100026f6:	4985                	li	s3,1
    100026f8:	855a                	mv	a0,s6
    100026fa:	ee4ff0ef          	jal	ra,10001dde <eshup1>
    100026fe:	04c95783          	lhu	a5,76(s2)
    10002702:	8522                	mv	a0,s0
    10002704:	14fd                	addi	s1,s1,-1
    10002706:	00f9e9b3          	or	s3,s3,a5
    1000270a:	05391623          	sh	s3,76(s2)
    1000270e:	ed0ff0ef          	jal	ra,10001dde <eshup1>
    10002712:	b755                	j	100026b6 <eiremain+0x42>

0000000010002714 <emul>:
    10002714:	7131                	addi	sp,sp,-192
    10002716:	f922                	sd	s0,176(sp)
    10002718:	f526                	sd	s1,168(sp)
    1000271a:	f14a                	sd	s2,160(sp)
    1000271c:	ed4e                	sd	s3,152(sp)
    1000271e:	fd06                	sd	ra,184(sp)
    10002720:	e952                	sd	s4,144(sp)
    10002722:	e556                	sd	s5,136(sp)
    10002724:	e15a                	sd	s6,128(sp)
    10002726:	fcde                	sd	s7,120(sp)
    10002728:	f8e2                	sd	s8,112(sp)
    1000272a:	f4e6                	sd	s9,104(sp)
    1000272c:	84aa                	mv	s1,a0
    1000272e:	842e                	mv	s0,a1
    10002730:	8932                	mv	s2,a2
    10002732:	89b6                	mv	s3,a3
    10002734:	00000097          	auipc	ra,0x0
    10002738:	834080e7          	jalr	-1996(ra) # 10001f68 <eisnan>
    1000273c:	c115                	beqz	a0,10002760 <emul+0x4c>
    1000273e:	85ca                	mv	a1,s2
    10002740:	8526                	mv	a0,s1
    10002742:	df8ff0ef          	jal	ra,10001d3a <emov>
    10002746:	70ea                	ld	ra,184(sp)
    10002748:	744a                	ld	s0,176(sp)
    1000274a:	74aa                	ld	s1,168(sp)
    1000274c:	790a                	ld	s2,160(sp)
    1000274e:	69ea                	ld	s3,152(sp)
    10002750:	6a4a                	ld	s4,144(sp)
    10002752:	6aaa                	ld	s5,136(sp)
    10002754:	6b0a                	ld	s6,128(sp)
    10002756:	7be6                	ld	s7,120(sp)
    10002758:	7c46                	ld	s8,112(sp)
    1000275a:	7ca6                	ld	s9,104(sp)
    1000275c:	6129                	addi	sp,sp,192
    1000275e:	8082                	ret
    10002760:	8522                	mv	a0,s0
    10002762:	00000097          	auipc	ra,0x0
    10002766:	806080e7          	jalr	-2042(ra) # 10001f68 <eisnan>
    1000276a:	c501                	beqz	a0,10002772 <emul+0x5e>
    1000276c:	85ca                	mv	a1,s2
    1000276e:	8522                	mv	a0,s0
    10002770:	bfc9                	j	10002742 <emul+0x2e>
    10002772:	8526                	mv	a0,s1
    10002774:	00000097          	auipc	ra,0x0
    10002778:	98c080e7          	jalr	-1652(ra) # 10002100 <eisinf>
    1000277c:	e939                	bnez	a0,100027d2 <emul+0xbe>
    1000277e:	8522                	mv	a0,s0
    10002780:	00000097          	auipc	ra,0x0
    10002784:	980080e7          	jalr	-1664(ra) # 10002100 <eisinf>
    10002788:	c909                	beqz	a0,1000279a <emul+0x86>
    1000278a:	00005597          	auipc	a1,0x5
    1000278e:	9c658593          	addi	a1,a1,-1594 # 10007150 <ezero>
    10002792:	8526                	mv	a0,s1
    10002794:	8b9ff0ef          	jal	ra,1000204c <ecmp>
    10002798:	c529                	beqz	a0,100027e2 <emul+0xce>
    1000279a:	8526                	mv	a0,s1
    1000279c:	00000097          	auipc	ra,0x0
    100027a0:	964080e7          	jalr	-1692(ra) # 10002100 <eisinf>
    100027a4:	e519                	bnez	a0,100027b2 <emul+0x9e>
    100027a6:	8522                	mv	a0,s0
    100027a8:	00000097          	auipc	ra,0x0
    100027ac:	958080e7          	jalr	-1704(ra) # 10002100 <eisinf>
    100027b0:	c131                	beqz	a0,100027f4 <emul+0xe0>
    100027b2:	8526                	mv	a0,s1
    100027b4:	fdaff0ef          	jal	ra,10001f8e <eisneg>
    100027b8:	84aa                	mv	s1,a0
    100027ba:	8522                	mv	a0,s0
    100027bc:	fd2ff0ef          	jal	ra,10001f8e <eisneg>
    100027c0:	02a48763          	beq	s1,a0,100027ee <emul+0xda>
    100027c4:	77e1                	lui	a5,0xffff8
    100027c6:	00f91923          	sh	a5,18(s2)
    100027ca:	854a                	mv	a0,s2
    100027cc:	959ff0ef          	jal	ra,10002124 <einfin.isra.2>
    100027d0:	bf9d                	j	10002746 <emul+0x32>
    100027d2:	00005597          	auipc	a1,0x5
    100027d6:	97e58593          	addi	a1,a1,-1666 # 10007150 <ezero>
    100027da:	8522                	mv	a0,s0
    100027dc:	871ff0ef          	jal	ra,1000204c <ecmp>
    100027e0:	fd59                	bnez	a0,1000277e <emul+0x6a>
    100027e2:	854a                	mv	a0,s2
    100027e4:	00000097          	auipc	ra,0x0
    100027e8:	ae8080e7          	jalr	-1304(ra) # 100022cc <enan.constprop.12>
    100027ec:	bfa9                	j	10002746 <emul+0x32>
    100027ee:	00091923          	sh	zero,18(s2)
    100027f2:	bfe1                	j	100027ca <emul+0xb6>
    100027f4:	8526                	mv	a0,s1
    100027f6:	858a                	mv	a1,sp
    100027f8:	fffff097          	auipc	ra,0xfffff
    100027fc:	7ba080e7          	jalr	1978(ra) # 10001fb2 <emovi>
    10002800:	8522                	mv	a0,s0
    10002802:	100c                	addi	a1,sp,32
    10002804:	fffff097          	auipc	ra,0xfffff
    10002808:	7ae080e7          	jalr	1966(ra) # 10001fb2 <emovi>
    1000280c:	00215403          	lhu	s0,2(sp)
    10002810:	02215483          	lhu	s1,34(sp)
    10002814:	ec09                	bnez	s0,1000282e <emul+0x11a>
    10002816:	4781                	li	a5,0
    10002818:	4759                	li	a4,22
    1000281a:	00f106b3          	add	a3,sp,a5
    1000281e:	0026d683          	lhu	a3,2(a3)
    10002822:	c6f9                	beqz	a3,100028f0 <emul+0x1dc>
    10002824:	850a                	mv	a0,sp
    10002826:	a09ff0ef          	jal	ra,1000222e <enormlz>
    1000282a:	40a00433          	neg	s0,a0
    1000282e:	02215783          	lhu	a5,34(sp)
    10002832:	8c26                	mv	s8,s1
    10002834:	ef81                	bnez	a5,1000284c <emul+0x138>
    10002836:	4759                	li	a4,22
    10002838:	1014                	addi	a3,sp,32
    1000283a:	96be                	add	a3,a3,a5
    1000283c:	0026d683          	lhu	a3,2(a3)
    10002840:	c2e9                	beqz	a3,10002902 <emul+0x1ee>
    10002842:	1008                	addi	a0,sp,32
    10002844:	9ebff0ef          	jal	ra,1000222e <enormlz>
    10002848:	40a48c33          	sub	s8,s1,a0
    1000284c:	02015783          	lhu	a5,32(sp)
    10002850:	03498b93          	addi	s7,s3,52
    10002854:	03898493          	addi	s1,s3,56
    10002858:	02f99a23          	sh	a5,52(s3)
    1000285c:	02215783          	lhu	a5,34(sp)
    10002860:	8a5e                	mv	s4,s7
    10002862:	02f99b23          	sh	a5,54(s3)
    10002866:	04e98793          	addi	a5,s3,78
    1000286a:	00049023          	sh	zero,0(s1)
    1000286e:	0489                	addi	s1,s1,2
    10002870:	fe979de3          	bne	a5,s1,1000286a <emul+0x156>
    10002874:	4a81                	li	s5,0
    10002876:	4b01                	li	s6,0
    10002878:	5cb1                	li	s9,-20
    1000287a:	015107b3          	add	a5,sp,s5
    1000287e:	0187d503          	lhu	a0,24(a5) # ffffffffffff8018 <_end+0xffffffffeffef574>
    10002882:	c909                	beqz	a0,10002894 <emul+0x180>
    10002884:	100c                	addi	a1,sp,32
    10002886:	0090                	addi	a2,sp,64
    10002888:	e6cff0ef          	jal	ra,10001ef4 <m16m>
    1000288c:	85de                	mv	a1,s7
    1000288e:	0088                	addi	a0,sp,64
    10002890:	e14ff0ef          	jal	ra,10001ea4 <eaddm>
    10002894:	04c9d783          	lhu	a5,76(s3)
    10002898:	855e                	mv	a0,s7
    1000289a:	1af9                	addi	s5,s5,-2
    1000289c:	00fb6b33          	or	s6,s6,a5
    100028a0:	fffff097          	auipc	ra,0xfffff
    100028a4:	5e2080e7          	jalr	1506(ra) # 10001e82 <eshdn6>
    100028a8:	fd9a99e3          	bne	s5,s9,1000287a <emul+0x166>
    100028ac:	101c                	addi	a5,sp,32
    100028ae:	000a5703          	lhu	a4,0(s4)
    100028b2:	0a09                	addi	s4,s4,2
    100028b4:	0789                	addi	a5,a5,2
    100028b6:	fee79f23          	sh	a4,-2(a5)
    100028ba:	fe9a1ae3          	bne	s4,s1,100028ae <emul+0x19a>
    100028be:	76f1                	lui	a3,0xffffc
    100028c0:	9462                	add	s0,s0,s8
    100028c2:	0689                	addi	a3,a3,2
    100028c4:	87ce                	mv	a5,s3
    100028c6:	04000713          	li	a4,64
    100028ca:	96a2                	add	a3,a3,s0
    100028cc:	4601                	li	a2,0
    100028ce:	85da                	mv	a1,s6
    100028d0:	1008                	addi	a0,sp,32
    100028d2:	b31ff0ef          	jal	ra,10002402 <emdnorm>
    100028d6:	00015703          	lhu	a4,0(sp)
    100028da:	02015783          	lhu	a5,32(sp)
    100028de:	02f71663          	bne	a4,a5,1000290a <emul+0x1f6>
    100028e2:	02011023          	sh	zero,32(sp)
    100028e6:	85ca                	mv	a1,s2
    100028e8:	1008                	addi	a0,sp,32
    100028ea:	a01ff0ef          	jal	ra,100022ea <emovo.isra.6>
    100028ee:	bda1                	j	10002746 <emul+0x32>
    100028f0:	0789                	addi	a5,a5,2
    100028f2:	f2e794e3          	bne	a5,a4,1000281a <emul+0x106>
    100028f6:	854a                	mv	a0,s2
    100028f8:	fffff097          	auipc	ra,0xfffff
    100028fc:	432080e7          	jalr	1074(ra) # 10001d2a <eclear>
    10002900:	b599                	j	10002746 <emul+0x32>
    10002902:	0789                	addi	a5,a5,2
    10002904:	f2e79ae3          	bne	a5,a4,10002838 <emul+0x124>
    10002908:	b7fd                	j	100028f6 <emul+0x1e2>
    1000290a:	57fd                	li	a5,-1
    1000290c:	02f11023          	sh	a5,32(sp)
    10002910:	bfd9                	j	100028e6 <emul+0x1d2>

0000000010002912 <ediv>:
    10002912:	7131                	addi	sp,sp,-192
    10002914:	f922                	sd	s0,176(sp)
    10002916:	f526                	sd	s1,168(sp)
    10002918:	f14a                	sd	s2,160(sp)
    1000291a:	e556                	sd	s5,136(sp)
    1000291c:	fd06                	sd	ra,184(sp)
    1000291e:	ed4e                	sd	s3,152(sp)
    10002920:	e952                	sd	s4,144(sp)
    10002922:	e15a                	sd	s6,128(sp)
    10002924:	fcde                	sd	s7,120(sp)
    10002926:	f8e2                	sd	s8,112(sp)
    10002928:	f4e6                	sd	s9,104(sp)
    1000292a:	f0ea                	sd	s10,96(sp)
    1000292c:	84aa                	mv	s1,a0
    1000292e:	842e                	mv	s0,a1
    10002930:	8932                	mv	s2,a2
    10002932:	8ab6                	mv	s5,a3
    10002934:	e34ff0ef          	jal	ra,10001f68 <eisnan>
    10002938:	c50d                	beqz	a0,10002962 <ediv+0x50>
    1000293a:	85ca                	mv	a1,s2
    1000293c:	8526                	mv	a0,s1
    1000293e:	fffff097          	auipc	ra,0xfffff
    10002942:	3fc080e7          	jalr	1020(ra) # 10001d3a <emov>
    10002946:	70ea                	ld	ra,184(sp)
    10002948:	744a                	ld	s0,176(sp)
    1000294a:	74aa                	ld	s1,168(sp)
    1000294c:	790a                	ld	s2,160(sp)
    1000294e:	69ea                	ld	s3,152(sp)
    10002950:	6a4a                	ld	s4,144(sp)
    10002952:	6aaa                	ld	s5,136(sp)
    10002954:	6b0a                	ld	s6,128(sp)
    10002956:	7be6                	ld	s7,120(sp)
    10002958:	7c46                	ld	s8,112(sp)
    1000295a:	7ca6                	ld	s9,104(sp)
    1000295c:	7d06                	ld	s10,96(sp)
    1000295e:	6129                	addi	sp,sp,192
    10002960:	8082                	ret
    10002962:	8522                	mv	a0,s0
    10002964:	e04ff0ef          	jal	ra,10001f68 <eisnan>
    10002968:	c501                	beqz	a0,10002970 <ediv+0x5e>
    1000296a:	85ca                	mv	a1,s2
    1000296c:	8522                	mv	a0,s0
    1000296e:	bfc1                	j	1000293e <ediv+0x2c>
    10002970:	00004597          	auipc	a1,0x4
    10002974:	7e058593          	addi	a1,a1,2016 # 10007150 <ezero>
    10002978:	8526                	mv	a0,s1
    1000297a:	fffff097          	auipc	ra,0xfffff
    1000297e:	6d2080e7          	jalr	1746(ra) # 1000204c <ecmp>
    10002982:	18050563          	beqz	a0,10002b0c <ediv+0x1fa>
    10002986:	8526                	mv	a0,s1
    10002988:	f78ff0ef          	jal	ra,10002100 <eisinf>
    1000298c:	89aa                	mv	s3,a0
    1000298e:	8522                	mv	a0,s0
    10002990:	f70ff0ef          	jal	ra,10002100 <eisinf>
    10002994:	18099b63          	bnez	s3,10002b2a <ediv+0x218>
    10002998:	18051e63          	bnez	a0,10002b34 <ediv+0x222>
    1000299c:	8526                	mv	a0,s1
    1000299e:	858a                	mv	a1,sp
    100029a0:	e12ff0ef          	jal	ra,10001fb2 <emovi>
    100029a4:	8522                	mv	a0,s0
    100029a6:	100c                	addi	a1,sp,32
    100029a8:	e0aff0ef          	jal	ra,10001fb2 <emovi>
    100029ac:	02215483          	lhu	s1,34(sp)
    100029b0:	00215403          	lhu	s0,2(sp)
    100029b4:	e085                	bnez	s1,100029d4 <ediv+0xc2>
    100029b6:	4781                	li	a5,0
    100029b8:	4759                	li	a4,22
    100029ba:	1014                	addi	a3,sp,32
    100029bc:	96be                	add	a3,a3,a5
    100029be:	0026d683          	lhu	a3,2(a3) # ffffffffffffc002 <_end+0xffffffffefff355e>
    100029c2:	18068f63          	beqz	a3,10002b60 <ediv+0x24e>
    100029c6:	1008                	addi	a0,sp,32
    100029c8:	00000097          	auipc	ra,0x0
    100029cc:	866080e7          	jalr	-1946(ra) # 1000222e <enormlz>
    100029d0:	40a004b3          	neg	s1,a0
    100029d4:	00215783          	lhu	a5,2(sp)
    100029d8:	8ba2                	mv	s7,s0
    100029da:	ef99                	bnez	a5,100029f8 <ediv+0xe6>
    100029dc:	4759                	li	a4,22
    100029de:	00f106b3          	add	a3,sp,a5
    100029e2:	0026d683          	lhu	a3,2(a3)
    100029e6:	18068163          	beqz	a3,10002b68 <ediv+0x256>
    100029ea:	850a                	mv	a0,sp
    100029ec:	00000097          	auipc	ra,0x0
    100029f0:	842080e7          	jalr	-1982(ra) # 1000222e <enormlz>
    100029f4:	40a40bb3          	sub	s7,s0,a0
    100029f8:	02015783          	lhu	a5,32(sp)
    100029fc:	02215703          	lhu	a4,34(sp)
    10002a00:	034a8993          	addi	s3,s5,52
    10002a04:	02fa9a23          	sh	a5,52(s5)
    10002a08:	038a8793          	addi	a5,s5,56
    10002a0c:	02ea9b23          	sh	a4,54(s5)
    10002a10:	8a3e                	mv	s4,a5
    10002a12:	04ea8713          	addi	a4,s5,78
    10002a16:	0789                	addi	a5,a5,2
    10002a18:	fe079f23          	sh	zero,-2(a5)
    10002a1c:	fee79de3          	bne	a5,a4,10002a16 <ediv+0x104>
    10002a20:	1008                	addi	a0,sp,32
    10002a22:	fffff097          	auipc	ra,0xfffff
    10002a26:	384080e7          	jalr	900(ra) # 10001da6 <eshdn1>
    10002a2a:	00615c03          	lhu	s8,6(sp)
    10002a2e:	6b41                	lui	s6,0x10
    10002a30:	1b7d                	addi	s6,s6,-1
    10002a32:	036c0d33          	mul	s10,s8,s6
    10002a36:	01a98c93          	addi	s9,s3,26
    10002a3a:	02415783          	lhu	a5,36(sp)
    10002a3e:	02615403          	lhu	s0,38(sp)
    10002a42:	07c2                	slli	a5,a5,0x10
    10002a44:	97a2                	add	a5,a5,s0
    10002a46:	845a                	mv	s0,s6
    10002a48:	00fd6663          	bltu	s10,a5,10002a54 <ediv+0x142>
    10002a4c:	0387d433          	divu	s0,a5,s8
    10002a50:	1442                	slli	s0,s0,0x30
    10002a52:	9041                	srli	s0,s0,0x30
    10002a54:	858a                	mv	a1,sp
    10002a56:	8522                	mv	a0,s0
    10002a58:	0090                	addi	a2,sp,64
    10002a5a:	fffff097          	auipc	ra,0xfffff
    10002a5e:	49a080e7          	jalr	1178(ra) # 10001ef4 <m16m>
    10002a62:	100c                	addi	a1,sp,32
    10002a64:	0088                	addi	a0,sp,64
    10002a66:	b16ff0ef          	jal	ra,10001d7c <ecmpm>
    10002a6a:	00a05f63          	blez	a0,10002a88 <ediv+0x176>
    10002a6e:	008c                	addi	a1,sp,64
    10002a70:	850a                	mv	a0,sp
    10002a72:	c5aff0ef          	jal	ra,10001ecc <esubm>
    10002a76:	100c                	addi	a1,sp,32
    10002a78:	0088                	addi	a0,sp,64
    10002a7a:	b02ff0ef          	jal	ra,10001d7c <ecmpm>
    10002a7e:	10a04163          	bgtz	a0,10002b80 <ediv+0x26e>
    10002a82:	347d                	addiw	s0,s0,-1
    10002a84:	1442                	slli	s0,s0,0x30
    10002a86:	9041                	srli	s0,s0,0x30
    10002a88:	100c                	addi	a1,sp,32
    10002a8a:	0088                	addi	a0,sp,64
    10002a8c:	c40ff0ef          	jal	ra,10001ecc <esubm>
    10002a90:	1008                	addi	a0,sp,32
    10002a92:	008a1023          	sh	s0,0(s4)
    10002a96:	0a09                	addi	s4,s4,2
    10002a98:	fffff097          	auipc	ra,0xfffff
    10002a9c:	3ce080e7          	jalr	974(ra) # 10001e66 <eshup6>
    10002aa0:	f99a1de3          	bne	s4,s9,10002a3a <ediv+0x128>
    10002aa4:	4781                	li	a5,0
    10002aa6:	4581                	li	a1,0
    10002aa8:	4759                	li	a4,22
    10002aaa:	1014                	addi	a3,sp,32
    10002aac:	96be                	add	a3,a3,a5
    10002aae:	0046d683          	lhu	a3,4(a3)
    10002ab2:	0789                	addi	a5,a5,2
    10002ab4:	8dd5                	or	a1,a1,a3
    10002ab6:	fee79ae3          	bne	a5,a4,10002aaa <ediv+0x198>
    10002aba:	2581                	sext.w	a1,a1
    10002abc:	00b035b3          	snez	a1,a1
    10002ac0:	101c                	addi	a5,sp,32
    10002ac2:	0009d703          	lhu	a4,0(s3)
    10002ac6:	0989                	addi	s3,s3,2
    10002ac8:	0789                	addi	a5,a5,2
    10002aca:	fee79f23          	sh	a4,-2(a5)
    10002ace:	ff3a1ae3          	bne	s4,s3,10002ac2 <ediv+0x1b0>
    10002ad2:	6691                	lui	a3,0x4
    10002ad4:	417484b3          	sub	s1,s1,s7
    10002ad8:	16fd                	addi	a3,a3,-1
    10002ada:	87d6                	mv	a5,s5
    10002adc:	04000713          	li	a4,64
    10002ae0:	96a6                	add	a3,a3,s1
    10002ae2:	4601                	li	a2,0
    10002ae4:	1008                	addi	a0,sp,32
    10002ae6:	00000097          	auipc	ra,0x0
    10002aea:	91c080e7          	jalr	-1764(ra) # 10002402 <emdnorm>
    10002aee:	00015703          	lhu	a4,0(sp)
    10002af2:	02015783          	lhu	a5,32(sp)
    10002af6:	08f71d63          	bne	a4,a5,10002b90 <ediv+0x27e>
    10002afa:	02011023          	sh	zero,32(sp)
    10002afe:	85ca                	mv	a1,s2
    10002b00:	1008                	addi	a0,sp,32
    10002b02:	fffff097          	auipc	ra,0xfffff
    10002b06:	7e8080e7          	jalr	2024(ra) # 100022ea <emovo.isra.6>
    10002b0a:	bd35                	j	10002946 <ediv+0x34>
    10002b0c:	00004597          	auipc	a1,0x4
    10002b10:	64458593          	addi	a1,a1,1604 # 10007150 <ezero>
    10002b14:	8522                	mv	a0,s0
    10002b16:	fffff097          	auipc	ra,0xfffff
    10002b1a:	536080e7          	jalr	1334(ra) # 1000204c <ecmp>
    10002b1e:	e60514e3          	bnez	a0,10002986 <ediv+0x74>
    10002b22:	854a                	mv	a0,s2
    10002b24:	fa8ff0ef          	jal	ra,100022cc <enan.constprop.12>
    10002b28:	bd39                	j	10002946 <ediv+0x34>
    10002b2a:	fd65                	bnez	a0,10002b22 <ediv+0x210>
    10002b2c:	854a                	mv	a0,s2
    10002b2e:	9fcff0ef          	jal	ra,10001d2a <eclear>
    10002b32:	bd11                	j	10002946 <ediv+0x34>
    10002b34:	8526                	mv	a0,s1
    10002b36:	fffff097          	auipc	ra,0xfffff
    10002b3a:	458080e7          	jalr	1112(ra) # 10001f8e <eisneg>
    10002b3e:	84aa                	mv	s1,a0
    10002b40:	8522                	mv	a0,s0
    10002b42:	fffff097          	auipc	ra,0xfffff
    10002b46:	44c080e7          	jalr	1100(ra) # 10001f8e <eisneg>
    10002b4a:	02a48863          	beq	s1,a0,10002b7a <ediv+0x268>
    10002b4e:	77e1                	lui	a5,0xffff8
    10002b50:	00f91923          	sh	a5,18(s2)
    10002b54:	854a                	mv	a0,s2
    10002b56:	fffff097          	auipc	ra,0xfffff
    10002b5a:	5ce080e7          	jalr	1486(ra) # 10002124 <einfin.isra.2>
    10002b5e:	b3e5                	j	10002946 <ediv+0x34>
    10002b60:	0789                	addi	a5,a5,2
    10002b62:	e4e79ce3          	bne	a5,a4,100029ba <ediv+0xa8>
    10002b66:	b7d9                	j	10002b2c <ediv+0x21a>
    10002b68:	0789                	addi	a5,a5,2
    10002b6a:	e6e79ae3          	bne	a5,a4,100029de <ediv+0xcc>
    10002b6e:	00015703          	lhu	a4,0(sp)
    10002b72:	02015783          	lhu	a5,32(sp)
    10002b76:	fcf71ce3          	bne	a4,a5,10002b4e <ediv+0x23c>
    10002b7a:	00091923          	sh	zero,18(s2)
    10002b7e:	bfd9                	j	10002b54 <ediv+0x242>
    10002b80:	3479                	addiw	s0,s0,-2
    10002b82:	1442                	slli	s0,s0,0x30
    10002b84:	008c                	addi	a1,sp,64
    10002b86:	850a                	mv	a0,sp
    10002b88:	9041                	srli	s0,s0,0x30
    10002b8a:	b42ff0ef          	jal	ra,10001ecc <esubm>
    10002b8e:	bded                	j	10002a88 <ediv+0x176>
    10002b90:	57fd                	li	a5,-1
    10002b92:	02f11023          	sh	a5,32(sp)
    10002b96:	b7a5                	j	10002afe <ediv+0x1ec>

0000000010002b98 <_ldtoa_r>:
    10002b98:	dc010113          	addi	sp,sp,-576
    10002b9c:	ffde                	sd	s7,504(sp)
    10002b9e:	8bbe                	mv	s7,a5
    10002ba0:	09100793          	li	a5,145
    10002ba4:	f82e                	sd	a1,48(sp)
    10002ba6:	1782                	slli	a5,a5,0x20
    10002ba8:	712c                	ld	a1,96(a0)
    10002baa:	17fd                	addi	a5,a5,-1
    10002bac:	22813823          	sd	s0,560(sp)
    10002bb0:	23213023          	sd	s2,544(sp)
    10002bb4:	21313c23          	sd	s3,536(sp)
    10002bb8:	21413823          	sd	s4,528(sp)
    10002bbc:	22113c23          	sd	ra,568(sp)
    10002bc0:	22913423          	sd	s1,552(sp)
    10002bc4:	21513423          	sd	s5,520(sp)
    10002bc8:	21613023          	sd	s6,512(sp)
    10002bcc:	fbe2                	sd	s8,496(sp)
    10002bce:	f7e6                	sd	s9,488(sp)
    10002bd0:	f3ea                	sd	s10,480(sp)
    10002bd2:	efee                	sd	s11,472(sp)
    10002bd4:	e446                	sd	a7,8(sp)
    10002bd6:	fc32                	sd	a2,56(sp)
    10002bd8:	e33e                	sd	a5,384(sp)
    10002bda:	892a                	mv	s2,a0
    10002bdc:	8a36                	mv	s4,a3
    10002bde:	89ba                	mv	s3,a4
    10002be0:	8442                	mv	s0,a6
    10002be2:	c999                	beqz	a1,10002bf8 <_ldtoa_r+0x60>
    10002be4:	5538                	lw	a4,104(a0)
    10002be6:	4785                	li	a5,1
    10002be8:	00e797bb          	sllw	a5,a5,a4
    10002bec:	c598                	sw	a4,8(a1)
    10002bee:	c5dc                	sw	a5,12(a1)
    10002bf0:	7d1000ef          	jal	ra,10003bc0 <_Bfree>
    10002bf4:	06093023          	sd	zero,96(s2)
    10002bf8:	1808                	addi	a0,sp,48
    10002bfa:	108c                	addi	a1,sp,96
    10002bfc:	fffff097          	auipc	ra,0xfffff
    10002c00:	744080e7          	jalr	1860(ra) # 10002340 <e113toe.isra.8>
    10002c04:	1088                	addi	a0,sp,96
    10002c06:	b88ff0ef          	jal	ra,10001f8e <eisneg>
    10002c0a:	14050c63          	beqz	a0,10002d62 <_ldtoa_r+0x1ca>
    10002c0e:	4785                	li	a5,1
    10002c10:	c01c                	sw	a5,0(s0)
    10002c12:	478d                	li	a5,3
    10002c14:	14fa0a63          	beq	s4,a5,10002d68 <_ldtoa_r+0x1d0>
    10002c18:	44d1                	li	s1,20
    10002c1a:	000a0c63          	beqz	s4,10002c32 <_ldtoa_r+0x9a>
    10002c1e:	fff9879b          	addiw	a5,s3,-1
    10002c22:	02a00713          	li	a4,42
    10002c26:	0007849b          	sext.w	s1,a5
    10002c2a:	00f75463          	ble	a5,a4,10002c32 <_ldtoa_r+0x9a>
    10002c2e:	02a00493          	li	s1,42
    10002c32:	18412783          	lw	a5,388(sp)
    10002c36:	1088                	addi	a0,sp,96
    10002c38:	e83e                	sd	a5,16(sp)
    10002c3a:	fffff097          	auipc	ra,0xfffff
    10002c3e:	32e080e7          	jalr	814(ra) # 10001f68 <eisnan>
    10002c42:	842a                	mv	s0,a0
    10002c44:	00004597          	auipc	a1,0x4
    10002c48:	32c58593          	addi	a1,a1,812 # 10006f70 <__clzdi2+0xca>
    10002c4c:	7c051e63          	bnez	a0,10003428 <_ldtoa_r+0x890>
    10002c50:	09000793          	li	a5,144
    10002c54:	010c                	addi	a1,sp,128
    10002c56:	1088                	addi	a0,sp,96
    10002c58:	18f12223          	sw	a5,388(sp)
    10002c5c:	8deff0ef          	jal	ra,10001d3a <emov>
    10002c60:	09215783          	lhu	a5,146(sp)
    10002c64:	4a81                	li	s5,0
    10002c66:	0107971b          	slliw	a4,a5,0x10
    10002c6a:	4107571b          	sraiw	a4,a4,0x10
    10002c6e:	00075963          	bgez	a4,10002c80 <_ldtoa_r+0xe8>
    10002c72:	6721                	lui	a4,0x8
    10002c74:	177d                	addi	a4,a4,-1
    10002c76:	8ff9                	and	a5,a5,a4
    10002c78:	6ac1                	lui	s5,0x10
    10002c7a:	08f11923          	sh	a5,146(sp)
    10002c7e:	1afd                	addi	s5,s5,-1
    10002c80:	110c                	addi	a1,sp,160
    10002c82:	00004517          	auipc	a0,0x4
    10002c86:	4e650513          	addi	a0,a0,1254 # 10007168 <eone>
    10002c8a:	8b0ff0ef          	jal	ra,10001d3a <emov>
    10002c8e:	09215703          	lhu	a4,146(sp)
    10002c92:	76071d63          	bnez	a4,1000340c <_ldtoa_r+0x874>
    10002c96:	011c                	addi	a5,sp,128
    10002c98:	09210713          	addi	a4,sp,146
    10002c9c:	0007d683          	lhu	a3,0(a5) # ffffffffffff8000 <_end+0xffffffffeffef55c>
    10002ca0:	eef1                	bnez	a3,10002d7c <_ldtoa_r+0x1e4>
    10002ca2:	0789                	addi	a5,a5,2
    10002ca4:	fef71ce3          	bne	a4,a5,10002c9c <_ldtoa_r+0x104>
    10002ca8:	118c                	addi	a1,sp,224
    10002caa:	1108                	addi	a0,sp,160
    10002cac:	fffff097          	auipc	ra,0xfffff
    10002cb0:	306080e7          	jalr	774(ra) # 10001fb2 <emovi>
    10002cb4:	110c                	addi	a1,sp,160
    10002cb6:	1188                	addi	a0,sp,224
    10002cb8:	8a8ff0ef          	jal	ra,10001d60 <emovz>
    10002cbc:	118c                	addi	a1,sp,224
    10002cbe:	0108                	addi	a0,sp,128
    10002cc0:	fffff097          	auipc	ra,0xfffff
    10002cc4:	2f2080e7          	jalr	754(ra) # 10001fb2 <emovi>
    10002cc8:	010c                	addi	a1,sp,128
    10002cca:	1188                	addi	a0,sp,224
    10002ccc:	894ff0ef          	jal	ra,10001d60 <emovz>
    10002cd0:	0310                	addi	a2,sp,384
    10002cd2:	010c                	addi	a1,sp,128
    10002cd4:	1108                	addi	a0,sp,160
    10002cd6:	00000097          	auipc	ra,0x0
    10002cda:	99e080e7          	jalr	-1634(ra) # 10002674 <eiremain>
    10002cde:	1cc15b03          	lhu	s6,460(sp)
    10002ce2:	00004c17          	auipc	s8,0x4
    10002ce6:	46ec0c13          	addi	s8,s8,1134 # 10007150 <ezero>
    10002cea:	000b1863          	bnez	s6,10002cfa <_ldtoa_r+0x162>
    10002cee:	85e2                	mv	a1,s8
    10002cf0:	0108                	addi	a0,sp,128
    10002cf2:	b5aff0ef          	jal	ra,1000204c <ecmp>
    10002cf6:	54051f63          	bnez	a0,10003254 <_ldtoa_r+0x6bc>
    10002cfa:	02d00793          	li	a5,45
    10002cfe:	000a9463          	bnez	s5,10002d06 <_ldtoa_r+0x16e>
    10002d02:	02000793          	li	a5,32
    10002d06:	14f10023          	sb	a5,320(sp)
    10002d0a:	478d                	li	a5,3
    10002d0c:	8c26                	mv	s8,s1
    10002d0e:	00fa1863          	bne	s4,a5,10002d1e <_ldtoa_r+0x186>
    10002d12:	00848c3b          	addw	s8,s1,s0
    10002d16:	02a00793          	li	a5,42
    10002d1a:	0387c4e3          	blt	a5,s8,10003542 <_ldtoa_r+0x9aa>
    10002d1e:	47a9                	li	a5,10
    10002d20:	56fb1c63          	bne	s6,a5,10003298 <_ldtoa_r+0x700>
    10002d24:	03100793          	li	a5,49
    10002d28:	14f100a3          	sb	a5,321(sp)
    10002d2c:	02e00793          	li	a5,46
    10002d30:	14f10123          	sb	a5,322(sp)
    10002d34:	14310b13          	addi	s6,sp,323
    10002d38:	01805963          	blez	s8,10002d4a <_ldtoa_r+0x1b2>
    10002d3c:	03000793          	li	a5,48
    10002d40:	14f101a3          	sb	a5,323(sp)
    10002d44:	3c7d                	addiw	s8,s8,-1
    10002d46:	14410b13          	addi	s6,sp,324
    10002d4a:	2405                	addiw	s0,s0,1
    10002d4c:	560c5063          	bgez	s8,100032ac <_ldtoa_r+0x714>
    10002d50:	8622                	mv	a2,s0
    10002d52:	00004597          	auipc	a1,0x4
    10002d56:	24e58593          	addi	a1,a1,590 # 10006fa0 <__clzdi2+0xfa>
    10002d5a:	855a                	mv	a0,s6
    10002d5c:	f82fd0ef          	jal	ra,100004de <sprintf>
    10002d60:	add1                	j	10003434 <_ldtoa_r+0x89c>
    10002d62:	00042023          	sw	zero,0(s0)
    10002d66:	b575                	j	10002c12 <_ldtoa_r+0x7a>
    10002d68:	87ce                	mv	a5,s3
    10002d6a:	bd65                	j	10002c22 <_ldtoa_r+0x8a>
    10002d6c:	09011783          	lh	a5,144(sp)
    10002d70:	00004597          	auipc	a1,0x4
    10002d74:	22858593          	addi	a1,a1,552 # 10006f98 <__clzdi2+0xf2>
    10002d78:	6a07d863          	bgez	a5,10003428 <_ldtoa_r+0x890>
    10002d7c:	010c                	addi	a1,sp,128
    10002d7e:	00004517          	auipc	a0,0x4
    10002d82:	3ea50513          	addi	a0,a0,1002 # 10007168 <eone>
    10002d86:	ac6ff0ef          	jal	ra,1000204c <ecmp>
    10002d8a:	dd19                	beqz	a0,10002ca8 <_ldtoa_r+0x110>
    10002d8c:	38055863          	bgez	a0,1000311c <_ldtoa_r+0x584>
    10002d90:	018c                	addi	a1,sp,192
    10002d92:	0108                	addi	a0,sp,128
    10002d94:	fa7fe0ef          	jal	ra,10001d3a <emov>
    10002d98:	6791                	lui	a5,0x4
    10002d9a:	08e7879b          	addiw	a5,a5,142
    10002d9e:	0cf11923          	sh	a5,210(sp)
    10002da2:	67a1                	lui	a5,0x8
    10002da4:	17fd                	addi	a5,a5,-1
    10002da6:	ec3e                	sd	a5,24(sp)
    10002da8:	77f1                	lui	a5,0xffffc
    10002daa:	2789                	addiw	a5,a5,2
    10002dac:	4c01                	li	s8,0
    10002dae:	4cc1                	li	s9,16
    10002db0:	d23e                	sw	a5,36(sp)
    10002db2:	00004797          	auipc	a5,0x4
    10002db6:	46e78793          	addi	a5,a5,1134 # 10007220 <etens+0xa0>
    10002dba:	01878533          	add	a0,a5,s8
    10002dbe:	0314                	addi	a3,sp,384
    10002dc0:	1110                	addi	a2,sp,160
    10002dc2:	018c                	addi	a1,sp,192
    10002dc4:	00000097          	auipc	ra,0x0
    10002dc8:	b4e080e7          	jalr	-1202(ra) # 10002912 <ediv>
    10002dcc:	00ac                	addi	a1,sp,72
    10002dce:	1108                	addi	a0,sp,160
    10002dd0:	f6bfe0ef          	jal	ra,10001d3a <emov>
    10002dd4:	67e2                	ld	a5,24(sp)
    10002dd6:	05a15b03          	lhu	s6,90(sp)
    10002dda:	00fb76b3          	and	a3,s6,a5
    10002dde:	5792                	lw	a5,36(sp)
    10002de0:	9ebd                	addw	a3,a3,a5
    10002de2:	04d04963          	bgtz	a3,10002e34 <_ldtoa_r+0x29c>
    10002de6:	1188                	addi	a0,sp,224
    10002de8:	fffff097          	auipc	ra,0xfffff
    10002dec:	f42080e7          	jalr	-190(ra) # 10001d2a <eclear>
    10002df0:	010b1b1b          	slliw	s6,s6,0x10
    10002df4:	410b5b1b          	sraiw	s6,s6,0x10
    10002df8:	0e0b5a63          	bgez	s6,10002eec <_ldtoa_r+0x354>
    10002dfc:	4781                	li	a5,0
    10002dfe:	00b8                	addi	a4,sp,72
    10002e00:	973e                	add	a4,a4,a5
    10002e02:	00075683          	lhu	a3,0(a4) # 8000 <_tbss_end+0x8000>
    10002e06:	1198                	addi	a4,sp,224
    10002e08:	973e                	add	a4,a4,a5
    10002e0a:	00075703          	lhu	a4,0(a4)
    10002e0e:	30e68263          	beq	a3,a4,10003112 <_ldtoa_r+0x57a>
    10002e12:	00004517          	auipc	a0,0x4
    10002e16:	35650513          	addi	a0,a0,854 # 10007168 <eone>
    10002e1a:	fffff097          	auipc	ra,0xfffff
    10002e1e:	14e080e7          	jalr	334(ra) # 10001f68 <eisnan>
    10002e22:	c925                	beqz	a0,10002e92 <_ldtoa_r+0x2fa>
    10002e24:	118c                	addi	a1,sp,224
    10002e26:	00004517          	auipc	a0,0x4
    10002e2a:	34250513          	addi	a0,a0,834 # 10007168 <eone>
    10002e2e:	f0dfe0ef          	jal	ra,10001d3a <emov>
    10002e32:	a86d                	j	10002eec <_ldtoa_r+0x354>
    10002e34:	09000793          	li	a5,144
    10002e38:	40d78dbb          	subw	s11,a5,a3
    10002e3c:	118c                	addi	a1,sp,224
    10002e3e:	00a8                	addi	a0,sp,72
    10002e40:	8d6e                	mv	s10,s11
    10002e42:	ef9fe0ef          	jal	ra,10001d3a <emov>
    10002e46:	0bb05363          	blez	s11,10002eec <_ldtoa_r+0x354>
    10002e4a:	119c                	addi	a5,sp,224
    10002e4c:	876e                	mv	a4,s11
    10002e4e:	463d                	li	a2,15
    10002e50:	02e64c63          	blt	a2,a4,10002e88 <_ldtoa_r+0x2f0>
    10002e54:	004d561b          	srliw	a2,s10,0x4
    10002e58:	02061713          	slli	a4,a2,0x20
    10002e5c:	119c                	addi	a5,sp,224
    10002e5e:	837d                	srli	a4,a4,0x1f
    10002e60:	973e                	add	a4,a4,a5
    10002e62:	57c1                	li	a5,-16
    10002e64:	02c787bb          	mulw	a5,a5,a2
    10002e68:	00004697          	auipc	a3,0x4
    10002e6c:	2e868693          	addi	a3,a3,744 # 10007150 <ezero>
    10002e70:	01a787bb          	addw	a5,a5,s10
    10002e74:	0786                	slli	a5,a5,0x1
    10002e76:	97b6                	add	a5,a5,a3
    10002e78:	1387d783          	lhu	a5,312(a5)
    10002e7c:	00075683          	lhu	a3,0(a4)
    10002e80:	8ff5                	and	a5,a5,a3
    10002e82:	00f71023          	sh	a5,0(a4)
    10002e86:	b7ad                	j	10002df0 <_ldtoa_r+0x258>
    10002e88:	00079023          	sh	zero,0(a5)
    10002e8c:	3741                	addiw	a4,a4,-16
    10002e8e:	0789                	addi	a5,a5,2
    10002e90:	b7c1                	j	10002e50 <_ldtoa_r+0x2b8>
    10002e92:	1188                	addi	a0,sp,224
    10002e94:	fffff097          	auipc	ra,0xfffff
    10002e98:	0d4080e7          	jalr	212(ra) # 10001f68 <eisnan>
    10002e9c:	c501                	beqz	a0,10002ea4 <_ldtoa_r+0x30c>
    10002e9e:	118c                	addi	a1,sp,224
    10002ea0:	852e                	mv	a0,a1
    10002ea2:	b771                	j	10002e2e <_ldtoa_r+0x296>
    10002ea4:	00004517          	auipc	a0,0x4
    10002ea8:	2c450513          	addi	a0,a0,708 # 10007168 <eone>
    10002eac:	fffff097          	auipc	ra,0xfffff
    10002eb0:	254080e7          	jalr	596(ra) # 10002100 <eisinf>
    10002eb4:	8d2a                	mv	s10,a0
    10002eb6:	1188                	addi	a0,sp,224
    10002eb8:	fffff097          	auipc	ra,0xfffff
    10002ebc:	248080e7          	jalr	584(ra) # 10002100 <eisinf>
    10002ec0:	8b2a                	mv	s6,a0
    10002ec2:	100d0a63          	beqz	s10,10002fd6 <_ldtoa_r+0x43e>
    10002ec6:	0e050463          	beqz	a0,10002fae <_ldtoa_r+0x416>
    10002eca:	00004517          	auipc	a0,0x4
    10002ece:	29e50513          	addi	a0,a0,670 # 10007168 <eone>
    10002ed2:	8bcff0ef          	jal	ra,10001f8e <eisneg>
    10002ed6:	8b2a                	mv	s6,a0
    10002ed8:	1188                	addi	a0,sp,224
    10002eda:	8b4ff0ef          	jal	ra,10001f8e <eisneg>
    10002ede:	0cab1863          	bne	s6,a0,10002fae <_ldtoa_r+0x416>
    10002ee2:	1188                	addi	a0,sp,224
    10002ee4:	fffff097          	auipc	ra,0xfffff
    10002ee8:	3e8080e7          	jalr	1000(ra) # 100022cc <enan.constprop.12>
    10002eec:	4781                	li	a5,0
    10002eee:	1118                	addi	a4,sp,160
    10002ef0:	973e                	add	a4,a4,a5
    10002ef2:	00075683          	lhu	a3,0(a4)
    10002ef6:	1198                	addi	a4,sp,224
    10002ef8:	973e                	add	a4,a4,a5
    10002efa:	00075703          	lhu	a4,0(a4)
    10002efe:	00e69c63          	bne	a3,a4,10002f16 <_ldtoa_r+0x37e>
    10002f02:	0789                	addi	a5,a5,2
    10002f04:	4749                	li	a4,18
    10002f06:	fee794e3          	bne	a5,a4,10002eee <_ldtoa_r+0x356>
    10002f0a:	018c                	addi	a1,sp,192
    10002f0c:	1108                	addi	a0,sp,160
    10002f0e:	e2dfe0ef          	jal	ra,10001d3a <emov>
    10002f12:	008c843b          	addw	s0,s9,s0
    10002f16:	0c51                	addi	s8,s8,20
    10002f18:	06400793          	li	a5,100
    10002f1c:	001cdc93          	srli	s9,s9,0x1
    10002f20:	e8fc19e3          	bne	s8,a5,10002db2 <_ldtoa_r+0x21a>
    10002f24:	0d215783          	lhu	a5,210(sp)
    10002f28:	09215703          	lhu	a4,146(sp)
    10002f2c:	010c                	addi	a1,sp,128
    10002f2e:	0188                	addi	a0,sp,192
    10002f30:	9fb9                	addw	a5,a5,a4
    10002f32:	7771                	lui	a4,0xffffc
    10002f34:	f727071b          	addiw	a4,a4,-142
    10002f38:	9fb9                	addw	a5,a5,a4
    10002f3a:	0cf11923          	sh	a5,210(sp)
    10002f3e:	dfdfe0ef          	jal	ra,10001d3a <emov>
    10002f42:	110c                	addi	a1,sp,160
    10002f44:	00004517          	auipc	a0,0x4
    10002f48:	22450513          	addi	a0,a0,548 # 10007168 <eone>
    10002f4c:	deffe0ef          	jal	ra,10001d3a <emov>
    10002f50:	4b01                	li	s6,0
    10002f52:	6c85                	lui	s9,0x1
    10002f54:	10400d93          	li	s11,260
    10002f58:	00004797          	auipc	a5,0x4
    10002f5c:	22878793          	addi	a5,a5,552 # 10007180 <etens>
    10002f60:	018c                	addi	a1,sp,192
    10002f62:	00004517          	auipc	a0,0x4
    10002f66:	30e50513          	addi	a0,a0,782 # 10007270 <etens+0xf0>
    10002f6a:	00fb0c33          	add	s8,s6,a5
    10002f6e:	8deff0ef          	jal	ra,1000204c <ecmp>
    10002f72:	d2a04be3          	bgtz	a0,10002ca8 <_ldtoa_r+0x110>
    10002f76:	018c                	addi	a1,sp,192
    10002f78:	8562                	mv	a0,s8
    10002f7a:	8d2ff0ef          	jal	ra,1000204c <ecmp>
    10002f7e:	02a04263          	bgtz	a0,10002fa2 <_ldtoa_r+0x40a>
    10002f82:	0190                	addi	a2,sp,192
    10002f84:	85b2                	mv	a1,a2
    10002f86:	0314                	addi	a3,sp,384
    10002f88:	8562                	mv	a0,s8
    10002f8a:	00000097          	auipc	ra,0x0
    10002f8e:	988080e7          	jalr	-1656(ra) # 10002912 <ediv>
    10002f92:	1110                	addi	a2,sp,160
    10002f94:	0314                	addi	a3,sp,384
    10002f96:	85b2                	mv	a1,a2
    10002f98:	8562                	mv	a0,s8
    10002f9a:	f7aff0ef          	jal	ra,10002714 <emul>
    10002f9e:	008c843b          	addw	s0,s9,s0
    10002fa2:	0b51                	addi	s6,s6,20
    10002fa4:	001cdc93          	srli	s9,s9,0x1
    10002fa8:	fbbb18e3          	bne	s6,s11,10002f58 <_ldtoa_r+0x3c0>
    10002fac:	b9f5                	j	10002ca8 <_ldtoa_r+0x110>
    10002fae:	00004517          	auipc	a0,0x4
    10002fb2:	1ba50513          	addi	a0,a0,442 # 10007168 <eone>
    10002fb6:	118c                	addi	a1,sp,224
    10002fb8:	d83fe0ef          	jal	ra,10001d3a <emov>
    10002fbc:	1188                	addi	a0,sp,224
    10002fbe:	fffff097          	auipc	ra,0xfffff
    10002fc2:	faa080e7          	jalr	-86(ra) # 10001f68 <eisnan>
    10002fc6:	f11d                	bnez	a0,10002eec <_ldtoa_r+0x354>
    10002fc8:	0f215783          	lhu	a5,242(sp)
    10002fcc:	7761                	lui	a4,0xffff8
    10002fce:	8fb9                	xor	a5,a5,a4
    10002fd0:	0ef11923          	sh	a5,242(sp)
    10002fd4:	bf21                	j	10002eec <_ldtoa_r+0x354>
    10002fd6:	ec0514e3          	bnez	a0,10002e9e <_ldtoa_r+0x306>
    10002fda:	020c                	addi	a1,sp,256
    10002fdc:	00004517          	auipc	a0,0x4
    10002fe0:	18c50513          	addi	a0,a0,396 # 10007168 <eone>
    10002fe4:	fffff097          	auipc	ra,0xfffff
    10002fe8:	fce080e7          	jalr	-50(ra) # 10001fb2 <emovi>
    10002fec:	120c                	addi	a1,sp,288
    10002fee:	1188                	addi	a0,sp,224
    10002ff0:	fffff097          	auipc	ra,0xfffff
    10002ff4:	fc2080e7          	jalr	-62(ra) # 10001fb2 <emovi>
    10002ff8:	10015703          	lhu	a4,256(sp)
    10002ffc:	12215d83          	lhu	s11,290(sp)
    10003000:	10215783          	lhu	a5,258(sp)
    10003004:	fff74713          	not	a4,a4
    10003008:	03071d13          	slli	s10,a4,0x30
    1000300c:	030d5d13          	srli	s10,s10,0x30
    10003010:	11a11023          	sh	s10,256(sp)
    10003014:	41b787b3          	sub	a5,a5,s11
    10003018:	06f05363          	blez	a5,1000307e <_ldtoa_r+0x4e6>
    1000301c:	028c                	addi	a1,sp,320
    1000301e:	1208                	addi	a0,sp,288
    10003020:	f43e                	sd	a5,40(sp)
    10003022:	d3ffe0ef          	jal	ra,10001d60 <emovz>
    10003026:	120c                	addi	a1,sp,288
    10003028:	0208                	addi	a0,sp,256
    1000302a:	d37fe0ef          	jal	ra,10001d60 <emovz>
    1000302e:	020c                	addi	a1,sp,256
    10003030:	0288                	addi	a0,sp,320
    10003032:	d2ffe0ef          	jal	ra,10001d60 <emovz>
    10003036:	77a2                	ld	a5,40(sp)
    10003038:	12215d83          	lhu	s11,290(sp)
    1000303c:	40f007b3          	neg	a5,a5
    10003040:	f6f00713          	li	a4,-145
    10003044:	06e7cb63          	blt	a5,a4,100030ba <_ldtoa_r+0x522>
    10003048:	85be                	mv	a1,a5
    1000304a:	0208                	addi	a0,sp,256
    1000304c:	fffff097          	auipc	ra,0xfffff
    10003050:	0f6080e7          	jalr	246(ra) # 10002142 <eshift.part.3>
    10003054:	8d2a                	mv	s10,a0
    10003056:	10015703          	lhu	a4,256(sp)
    1000305a:	12015783          	lhu	a5,288(sp)
    1000305e:	120c                	addi	a1,sp,288
    10003060:	0208                	addi	a0,sp,256
    10003062:	0af71263          	bne	a4,a5,10003106 <_ldtoa_r+0x56e>
    10003066:	e3ffe0ef          	jal	ra,10001ea4 <eaddm>
    1000306a:	031c                	addi	a5,sp,384
    1000306c:	04000713          	li	a4,64
    10003070:	86ee                	mv	a3,s11
    10003072:	865a                	mv	a2,s6
    10003074:	85ea                	mv	a1,s10
    10003076:	1208                	addi	a0,sp,288
    10003078:	b8aff0ef          	jal	ra,10002402 <emdnorm>
    1000307c:	a83d                	j	100030ba <_ldtoa_r+0x522>
    1000307e:	f3e9                	bnez	a5,10003040 <_ldtoa_r+0x4a8>
    10003080:	120c                	addi	a1,sp,288
    10003082:	0208                	addi	a0,sp,256
    10003084:	fffff097          	auipc	ra,0xfffff
    10003088:	cf8080e7          	jalr	-776(ra) # 10001d7c <ecmpm>
    1000308c:	ed21                	bnez	a0,100030e4 <_ldtoa_r+0x54c>
    1000308e:	12015783          	lhu	a5,288(sp)
    10003092:	01a78863          	beq	a5,s10,100030a2 <_ldtoa_r+0x50a>
    10003096:	1188                	addi	a0,sp,224
    10003098:	fffff097          	auipc	ra,0xfffff
    1000309c:	c92080e7          	jalr	-878(ra) # 10001d2a <eclear>
    100030a0:	b5b1                	j	10002eec <_ldtoa_r+0x354>
    100030a2:	020d9163          	bnez	s11,100030c4 <_ldtoa_r+0x52c>
    100030a6:	12611703          	lh	a4,294(sp)
    100030aa:	4781                	li	a5,0
    100030ac:	00074d63          	bltz	a4,100030c6 <_ldtoa_r+0x52e>
    100030b0:	1208                	addi	a0,sp,288
    100030b2:	fffff097          	auipc	ra,0xfffff
    100030b6:	d2c080e7          	jalr	-724(ra) # 10001dde <eshup1>
    100030ba:	118c                	addi	a1,sp,224
    100030bc:	1208                	addi	a0,sp,288
    100030be:	a2cff0ef          	jal	ra,100022ea <emovo.isra.6>
    100030c2:	b52d                	j	10002eec <_ldtoa_r+0x354>
    100030c4:	4781                	li	a5,0
    100030c6:	4759                	li	a4,22
    100030c8:	1214                	addi	a3,sp,288
    100030ca:	00f68633          	add	a2,a3,a5
    100030ce:	00265603          	lhu	a2,2(a2)
    100030d2:	c609                	beqz	a2,100030dc <_ldtoa_r+0x544>
    100030d4:	0d85                	addi	s11,s11,1
    100030d6:	13b11123          	sh	s11,290(sp)
    100030da:	b7c5                	j	100030ba <_ldtoa_r+0x522>
    100030dc:	0789                	addi	a5,a5,2
    100030de:	fee795e3          	bne	a5,a4,100030c8 <_ldtoa_r+0x530>
    100030e2:	bfd5                	j	100030d6 <_ldtoa_r+0x53e>
    100030e4:	4d01                	li	s10,0
    100030e6:	f6a058e3          	blez	a0,10003056 <_ldtoa_r+0x4be>
    100030ea:	028c                	addi	a1,sp,320
    100030ec:	1208                	addi	a0,sp,288
    100030ee:	c73fe0ef          	jal	ra,10001d60 <emovz>
    100030f2:	120c                	addi	a1,sp,288
    100030f4:	0208                	addi	a0,sp,256
    100030f6:	c6bfe0ef          	jal	ra,10001d60 <emovz>
    100030fa:	020c                	addi	a1,sp,256
    100030fc:	0288                	addi	a0,sp,320
    100030fe:	c63fe0ef          	jal	ra,10001d60 <emovz>
    10003102:	8d5a                	mv	s10,s6
    10003104:	bf89                	j	10003056 <_ldtoa_r+0x4be>
    10003106:	fffff097          	auipc	ra,0xfffff
    1000310a:	dc6080e7          	jalr	-570(ra) # 10001ecc <esubm>
    1000310e:	4b05                	li	s6,1
    10003110:	bfa9                	j	1000306a <_ldtoa_r+0x4d2>
    10003112:	0789                	addi	a5,a5,2
    10003114:	4749                	li	a4,18
    10003116:	cee794e3          	bne	a5,a4,10002dfe <_ldtoa_r+0x266>
    1000311a:	bbc9                	j	10002eec <_ldtoa_r+0x354>
    1000311c:	09215783          	lhu	a5,146(sp)
    10003120:	00004b17          	auipc	s6,0x4
    10003124:	150b0b13          	addi	s6,s6,336 # 10007270 <etens+0xf0>
    10003128:	cfbd                	beqz	a5,100031a6 <_ldtoa_r+0x60e>
    1000312a:	118c                	addi	a1,sp,224
    1000312c:	0108                	addi	a0,sp,128
    1000312e:	6b11                	lui	s6,0x4
    10003130:	fffff097          	auipc	ra,0xfffff
    10003134:	e82080e7          	jalr	-382(ra) # 10001fb2 <emovi>
    10003138:	1b79                	addi	s6,s6,-2
    1000313a:	fd500c13          	li	s8,-43
    1000313e:	0f815783          	lhu	a5,248(sp)
    10003142:	8b9d                	andi	a5,a5,7
    10003144:	e7a9                	bnez	a5,1000318e <_ldtoa_r+0x5f6>
    10003146:	018c                	addi	a1,sp,192
    10003148:	1188                	addi	a0,sp,224
    1000314a:	c17fe0ef          	jal	ra,10001d60 <emovz>
    1000314e:	0188                	addi	a0,sp,192
    10003150:	c57fe0ef          	jal	ra,10001da6 <eshdn1>
    10003154:	0188                	addi	a0,sp,192
    10003156:	c51fe0ef          	jal	ra,10001da6 <eshdn1>
    1000315a:	018c                	addi	a1,sp,192
    1000315c:	1188                	addi	a0,sp,224
    1000315e:	d47fe0ef          	jal	ra,10001ea4 <eaddm>
    10003162:	0c215783          	lhu	a5,194(sp)
    10003166:	278d                	addiw	a5,a5,3
    10003168:	0cf11123          	sh	a5,194(sp)
    1000316c:	0c415783          	lhu	a5,196(sp)
    10003170:	ebf9                	bnez	a5,10003246 <_ldtoa_r+0x6ae>
    10003172:	0d815783          	lhu	a5,216(sp)
    10003176:	ef81                	bnez	a5,1000318e <_ldtoa_r+0x5f6>
    10003178:	0c215783          	lhu	a5,194(sp)
    1000317c:	00fb6963          	bltu	s6,a5,1000318e <_ldtoa_r+0x5f6>
    10003180:	118c                	addi	a1,sp,224
    10003182:	0188                	addi	a0,sp,192
    10003184:	347d                	addiw	s0,s0,-1
    10003186:	bdbfe0ef          	jal	ra,10001d60 <emovz>
    1000318a:	fb841ae3          	bne	s0,s8,1000313e <_ldtoa_r+0x5a6>
    1000318e:	010c                	addi	a1,sp,128
    10003190:	1188                	addi	a0,sp,224
    10003192:	958ff0ef          	jal	ra,100022ea <emovo.isra.6>
    10003196:	a821                	j	100031ae <_ldtoa_r+0x616>
    10003198:	0110                	addi	a2,sp,128
    1000319a:	0314                	addi	a3,sp,384
    1000319c:	85b2                	mv	a1,a2
    1000319e:	855a                	mv	a0,s6
    100031a0:	d74ff0ef          	jal	ra,10002714 <emul>
    100031a4:	347d                	addiw	s0,s0,-1
    100031a6:	09011783          	lh	a5,144(sp)
    100031aa:	fe07d7e3          	bgez	a5,10003198 <_ldtoa_r+0x600>
    100031ae:	118c                	addi	a1,sp,224
    100031b0:	0108                	addi	a0,sp,128
    100031b2:	b89fe0ef          	jal	ra,10001d3a <emov>
    100031b6:	110c                	addi	a1,sp,160
    100031b8:	00004517          	auipc	a0,0x4
    100031bc:	fb050513          	addi	a0,a0,-80 # 10007168 <eone>
    100031c0:	b7bfe0ef          	jal	ra,10001d3a <emov>
    100031c4:	4c81                	li	s9,0
    100031c6:	7b7d                	lui	s6,0xfffff
    100031c8:	4d09                	li	s10,2
    100031ca:	10400d93          	li	s11,260
    100031ce:	00004797          	auipc	a5,0x4
    100031d2:	fb278793          	addi	a5,a5,-78 # 10007180 <etens>
    100031d6:	01978c33          	add	s8,a5,s9
    100031da:	00004797          	auipc	a5,0x4
    100031de:	0d678793          	addi	a5,a5,214 # 100072b0 <emtens>
    100031e2:	01978733          	add	a4,a5,s9
    100031e6:	118c                	addi	a1,sp,224
    100031e8:	00004517          	auipc	a0,0x4
    100031ec:	f8050513          	addi	a0,a0,-128 # 10007168 <eone>
    100031f0:	ec3a                	sd	a4,24(sp)
    100031f2:	e5bfe0ef          	jal	ra,1000204c <ecmp>
    100031f6:	6762                	ld	a4,24(sp)
    100031f8:	02a05b63          	blez	a0,1000322e <_ldtoa_r+0x696>
    100031fc:	118c                	addi	a1,sp,224
    100031fe:	853a                	mv	a0,a4
    10003200:	e4dfe0ef          	jal	ra,1000204c <ecmp>
    10003204:	02054063          	bltz	a0,10003224 <_ldtoa_r+0x68c>
    10003208:	1190                	addi	a2,sp,224
    1000320a:	85b2                	mv	a1,a2
    1000320c:	0314                	addi	a3,sp,384
    1000320e:	8562                	mv	a0,s8
    10003210:	d04ff0ef          	jal	ra,10002714 <emul>
    10003214:	1110                	addi	a2,sp,160
    10003216:	0314                	addi	a3,sp,384
    10003218:	85b2                	mv	a1,a2
    1000321a:	8562                	mv	a0,s8
    1000321c:	cf8ff0ef          	jal	ra,10002714 <emul>
    10003220:	008b043b          	addw	s0,s6,s0
    10003224:	0cd1                	addi	s9,s9,20
    10003226:	03ab4b3b          	divw	s6,s6,s10
    1000322a:	fbbc92e3          	bne	s9,s11,100031ce <_ldtoa_r+0x636>
    1000322e:	1110                	addi	a2,sp,160
    10003230:	0314                	addi	a3,sp,384
    10003232:	00004597          	auipc	a1,0x4
    10003236:	f3658593          	addi	a1,a1,-202 # 10007168 <eone>
    1000323a:	8532                	mv	a0,a2
    1000323c:	fffff097          	auipc	ra,0xfffff
    10003240:	6d6080e7          	jalr	1750(ra) # 10002912 <ediv>
    10003244:	b495                	j	10002ca8 <_ldtoa_r+0x110>
    10003246:	0188                	addi	a0,sp,192
    10003248:	b5ffe0ef          	jal	ra,10001da6 <eshdn1>
    1000324c:	0c215783          	lhu	a5,194(sp)
    10003250:	2785                	addiw	a5,a5,1
    10003252:	bf19                	j	10003168 <_ldtoa_r+0x5d0>
    10003254:	0108                	addi	a0,sp,128
    10003256:	fffff097          	auipc	ra,0xfffff
    1000325a:	b88080e7          	jalr	-1144(ra) # 10001dde <eshup1>
    1000325e:	018c                	addi	a1,sp,192
    10003260:	0108                	addi	a0,sp,128
    10003262:	afffe0ef          	jal	ra,10001d60 <emovz>
    10003266:	0188                	addi	a0,sp,192
    10003268:	fffff097          	auipc	ra,0xfffff
    1000326c:	b76080e7          	jalr	-1162(ra) # 10001dde <eshup1>
    10003270:	0188                	addi	a0,sp,192
    10003272:	fffff097          	auipc	ra,0xfffff
    10003276:	b6c080e7          	jalr	-1172(ra) # 10001dde <eshup1>
    1000327a:	010c                	addi	a1,sp,128
    1000327c:	0188                	addi	a0,sp,192
    1000327e:	c27fe0ef          	jal	ra,10001ea4 <eaddm>
    10003282:	0310                	addi	a2,sp,384
    10003284:	010c                	addi	a1,sp,128
    10003286:	1108                	addi	a0,sp,160
    10003288:	fffff097          	auipc	ra,0xfffff
    1000328c:	3ec080e7          	jalr	1004(ra) # 10002674 <eiremain>
    10003290:	347d                	addiw	s0,s0,-1
    10003292:	1cc15b03          	lhu	s6,460(sp)
    10003296:	bc91                	j	10002cea <_ldtoa_r+0x152>
    10003298:	030b0b1b          	addiw	s6,s6,48
    1000329c:	02e00793          	li	a5,46
    100032a0:	156100a3          	sb	s6,321(sp)
    100032a4:	14f10123          	sb	a5,322(sp)
    100032a8:	14310b13          	addi	s6,sp,323
    100032ac:	8ada                	mv	s5,s6
    100032ae:	416a87bb          	subw	a5,s5,s6
    100032b2:	04fc5063          	ble	a5,s8,100032f2 <_ldtoa_r+0x75a>
    100032b6:	1cc15783          	lhu	a5,460(sp)
    100032ba:	4711                	li	a4,4
    100032bc:	fffa8b13          	addi	s6,s5,-1 # ffff <_tbss_end+0xffff>
    100032c0:	a8f758e3          	ble	a5,a4,10002d50 <_ldtoa_r+0x1b8>
    100032c4:	4715                	li	a4,5
    100032c6:	06e78c63          	beq	a5,a4,1000333e <_ldtoa_r+0x7a6>
    100032ca:	87da                	mv	a5,s6
    100032cc:	02e00613          	li	a2,46
    100032d0:	03800593          	li	a1,56
    100032d4:	03000693          	li	a3,48
    100032d8:	17fd                	addi	a5,a5,-1
    100032da:	0007c703          	lbu	a4,0(a5)
    100032de:	07f77713          	andi	a4,a4,127
    100032e2:	080c5b63          	bgez	s8,10003378 <_ldtoa_r+0x7e0>
    100032e6:	03100713          	li	a4,49
    100032ea:	00e78023          	sb	a4,0(a5)
    100032ee:	2405                	addiw	s0,s0,1
    100032f0:	b485                	j	10002d50 <_ldtoa_r+0x1b8>
    100032f2:	0108                	addi	a0,sp,128
    100032f4:	fffff097          	auipc	ra,0xfffff
    100032f8:	aea080e7          	jalr	-1302(ra) # 10001dde <eshup1>
    100032fc:	018c                	addi	a1,sp,192
    100032fe:	0108                	addi	a0,sp,128
    10003300:	a61fe0ef          	jal	ra,10001d60 <emovz>
    10003304:	0188                	addi	a0,sp,192
    10003306:	fffff097          	auipc	ra,0xfffff
    1000330a:	ad8080e7          	jalr	-1320(ra) # 10001dde <eshup1>
    1000330e:	0188                	addi	a0,sp,192
    10003310:	fffff097          	auipc	ra,0xfffff
    10003314:	ace080e7          	jalr	-1330(ra) # 10001dde <eshup1>
    10003318:	010c                	addi	a1,sp,128
    1000331a:	0188                	addi	a0,sp,192
    1000331c:	b89fe0ef          	jal	ra,10001ea4 <eaddm>
    10003320:	0310                	addi	a2,sp,384
    10003322:	010c                	addi	a1,sp,128
    10003324:	1108                	addi	a0,sp,160
    10003326:	fffff097          	auipc	ra,0xfffff
    1000332a:	34e080e7          	jalr	846(ra) # 10002674 <eiremain>
    1000332e:	1cc14783          	lbu	a5,460(sp)
    10003332:	0a85                	addi	s5,s5,1
    10003334:	0307879b          	addiw	a5,a5,48
    10003338:	fefa8fa3          	sb	a5,-1(s5)
    1000333c:	bf8d                	j	100032ae <_ldtoa_r+0x716>
    1000333e:	110c                	addi	a1,sp,160
    10003340:	0108                	addi	a0,sp,128
    10003342:	fa9fe0ef          	jal	ra,100022ea <emovo.isra.6>
    10003346:	00004597          	auipc	a1,0x4
    1000334a:	e0a58593          	addi	a1,a1,-502 # 10007150 <ezero>
    1000334e:	1108                	addi	a0,sp,160
    10003350:	cfdfe0ef          	jal	ra,1000204c <ecmp>
    10003354:	f93d                	bnez	a0,100032ca <_ldtoa_r+0x732>
    10003356:	9e0c4de3          	bltz	s8,10002d50 <_ldtoa_r+0x1b8>
    1000335a:	ffeac783          	lbu	a5,-2(s5)
    1000335e:	fd278793          	addi	a5,a5,-46
    10003362:	0017b793          	seqz	a5,a5
    10003366:	fff7c793          	not	a5,a5
    1000336a:	97da                	add	a5,a5,s6
    1000336c:	0007c783          	lbu	a5,0(a5)
    10003370:	8b85                	andi	a5,a5,1
    10003372:	9c078fe3          	beqz	a5,10002d50 <_ldtoa_r+0x1b8>
    10003376:	bf91                	j	100032ca <_ldtoa_r+0x732>
    10003378:	02c71063          	bne	a4,a2,10003398 <_ldtoa_r+0x800>
    1000337c:	fff7c703          	lbu	a4,-1(a5)
    10003380:	03800693          	li	a3,56
    10003384:	00e6e663          	bltu	a3,a4,10003390 <_ldtoa_r+0x7f8>
    10003388:	2705                	addiw	a4,a4,1
    1000338a:	fee78fa3          	sb	a4,-1(a5)
    1000338e:	b2c9                	j	10002d50 <_ldtoa_r+0x1b8>
    10003390:	2405                	addiw	s0,s0,1
    10003392:	03100713          	li	a4,49
    10003396:	bfd5                	j	1000338a <_ldtoa_r+0x7f2>
    10003398:	00e5e663          	bltu	a1,a4,100033a4 <_ldtoa_r+0x80c>
    1000339c:	2705                	addiw	a4,a4,1
    1000339e:	00e78023          	sb	a4,0(a5)
    100033a2:	b27d                	j	10002d50 <_ldtoa_r+0x1b8>
    100033a4:	00d78023          	sb	a3,0(a5)
    100033a8:	bf05                	j	100032d8 <_ldtoa_r+0x740>
    100033aa:	2405                	addiw	s0,s0,1
    100033ac:	008ba023          	sw	s0,0(s7)
    100033b0:	87d6                	mv	a5,s5
    100033b2:	02e00693          	li	a3,46
    100033b6:	0007c703          	lbu	a4,0(a5)
    100033ba:	ef01                	bnez	a4,100033d2 <_ldtoa_r+0x83a>
    100033bc:	04500713          	li	a4,69
    100033c0:	0007c683          	lbu	a3,0(a5)
    100033c4:	00e68463          	beq	a3,a4,100033cc <_ldtoa_r+0x834>
    100033c8:	02fae263          	bltu	s5,a5,100033ec <_ldtoa_r+0x854>
    100033cc:	00078023          	sb	zero,0(a5)
    100033d0:	a851                	j	10003464 <_ldtoa_r+0x8cc>
    100033d2:	00d70963          	beq	a4,a3,100033e4 <_ldtoa_r+0x84c>
    100033d6:	0785                	addi	a5,a5,1
    100033d8:	bff9                	j	100033b6 <_ldtoa_r+0x81e>
    100033da:	0017c703          	lbu	a4,1(a5)
    100033de:	0785                	addi	a5,a5,1
    100033e0:	fee78fa3          	sb	a4,-1(a5)
    100033e4:	0007c703          	lbu	a4,0(a5)
    100033e8:	fb6d                	bnez	a4,100033da <_ldtoa_r+0x842>
    100033ea:	bfc9                	j	100033bc <_ldtoa_r+0x824>
    100033ec:	17fd                	addi	a5,a5,-1
    100033ee:	bfc9                	j	100033c0 <_ldtoa_r+0x828>
    100033f0:	0785                	addi	a5,a5,1
    100033f2:	a8b5                	j	1000346e <_ldtoa_r+0x8d6>
    100033f4:	8436                	mv	s0,a3
    100033f6:	a059                	j	1000347c <_ldtoa_r+0x8e4>
    100033f8:	147d                	addi	s0,s0,-1
    100033fa:	00040023          	sb	zero,0(s0)
    100033fe:	a05d                	j	100034a4 <_ldtoa_r+0x90c>
    10003400:	2585                	addiw	a1,a1,1
    10003402:	06b92423          	sw	a1,104(s2)
    10003406:	0017979b          	slliw	a5,a5,0x1
    1000340a:	a8d1                	j	100034de <_ldtoa_r+0x946>
    1000340c:	67a1                	lui	a5,0x8
    1000340e:	17fd                	addi	a5,a5,-1
    10003410:	94f71ee3          	bne	a4,a5,10002d6c <_ldtoa_r+0x1d4>
    10003414:	00004597          	auipc	a1,0x4
    10003418:	b7458593          	addi	a1,a1,-1164 # 10006f88 <__clzdi2+0xe2>
    1000341c:	000a8663          	beqz	s5,10003428 <_ldtoa_r+0x890>
    10003420:	00004597          	auipc	a1,0x4
    10003424:	b5858593          	addi	a1,a1,-1192 # 10006f78 <__clzdi2+0xd2>
    10003428:	0288                	addi	a0,sp,320
    1000342a:	6409                	lui	s0,0x2
    1000342c:	8b2fd0ef          	jal	ra,100004de <sprintf>
    10003430:	70f40413          	addi	s0,s0,1807 # 270f <_tbss_end+0x270f>
    10003434:	47c2                	lw	a5,16(sp)
    10003436:	1088                	addi	a0,sp,96
    10003438:	18812823          	sw	s0,400(sp)
    1000343c:	18f12223          	sw	a5,388(sp)
    10003440:	fffff097          	auipc	ra,0xfffff
    10003444:	cc0080e7          	jalr	-832(ra) # 10002100 <eisinf>
    10003448:	14010a93          	addi	s5,sp,320
    1000344c:	e519                	bnez	a0,1000345a <_ldtoa_r+0x8c2>
    1000344e:	1088                	addi	a0,sp,96
    10003450:	fffff097          	auipc	ra,0xfffff
    10003454:	b18080e7          	jalr	-1256(ra) # 10001f68 <eisnan>
    10003458:	d929                	beqz	a0,100033aa <_ldtoa_r+0x812>
    1000345a:	6789                	lui	a5,0x2
    1000345c:	70f7879b          	addiw	a5,a5,1807
    10003460:	00fba023          	sw	a5,0(s7)
    10003464:	87d6                	mv	a5,s5
    10003466:	02000613          	li	a2,32
    1000346a:	02d00693          	li	a3,45
    1000346e:	0007c703          	lbu	a4,0(a5) # 2000 <_tbss_end+0x2000>
    10003472:	f6c70fe3          	beq	a4,a2,100033f0 <_ldtoa_r+0x858>
    10003476:	f6d70de3          	beq	a4,a3,100033f0 <_ldtoa_r+0x858>
    1000347a:	8456                	mv	s0,s5
    1000347c:	0785                	addi	a5,a5,1
    1000347e:	fff7c703          	lbu	a4,-1(a5)
    10003482:	00140693          	addi	a3,s0,1
    10003486:	fee68fa3          	sb	a4,-1(a3)
    1000348a:	f72d                	bnez	a4,100033f4 <_ldtoa_r+0x85c>
    1000348c:	4709                	li	a4,2
    1000348e:	4785                	li	a5,1
    10003490:	00ea0863          	beq	s4,a4,100034a0 <_ldtoa_r+0x908>
    10003494:	19012783          	lw	a5,400(sp)
    10003498:	0097d363          	ble	s1,a5,1000349e <_ldtoa_r+0x906>
    1000349c:	87a6                	mv	a5,s1
    1000349e:	2781                	sext.w	a5,a5
    100034a0:	03000693          	li	a3,48
    100034a4:	fff44703          	lbu	a4,-1(s0)
    100034a8:	00d71663          	bne	a4,a3,100034b4 <_ldtoa_r+0x91c>
    100034ac:	41540733          	sub	a4,s0,s5
    100034b0:	f4e7c4e3          	blt	a5,a4,100033f8 <_ldtoa_r+0x860>
    100034b4:	478d                	li	a5,3
    100034b6:	0afa1763          	bne	s4,a5,10003564 <_ldtoa_r+0x9cc>
    100034ba:	19012783          	lw	a5,400(sp)
    100034be:	9cbd                	addw	s1,s1,a5
    100034c0:	0004d763          	bgez	s1,100034ce <_ldtoa_r+0x936>
    100034c4:	14010023          	sb	zero,320(sp)
    100034c8:	000ba023          	sw	zero,0(s7)
    100034cc:	8456                	mv	s0,s5
    100034ce:	000ba783          	lw	a5,0(s7)
    100034d2:	013789bb          	addw	s3,a5,s3
    100034d6:	298d                	addiw	s3,s3,3
    100034d8:	06092423          	sw	zero,104(s2)
    100034dc:	4791                	li	a5,4
    100034de:	01c78713          	addi	a4,a5,28
    100034e2:	06892583          	lw	a1,104(s2)
    100034e6:	f0e9fde3          	bleu	a4,s3,10003400 <_ldtoa_r+0x868>
    100034ea:	854a                	mv	a0,s2
    100034ec:	00000097          	auipc	ra,0x0
    100034f0:	670080e7          	jalr	1648(ra) # 10003b5c <_Balloc>
    100034f4:	06a93023          	sd	a0,96(s2)
    100034f8:	85d6                	mv	a1,s5
    100034fa:	84aa                	mv	s1,a0
    100034fc:	00001097          	auipc	ra,0x1
    10003500:	15c080e7          	jalr	348(ra) # 10004658 <strcpy>
    10003504:	67a2                	ld	a5,8(sp)
    10003506:	c789                	beqz	a5,10003510 <_ldtoa_r+0x978>
    10003508:	41540433          	sub	s0,s0,s5
    1000350c:	9426                	add	s0,s0,s1
    1000350e:	e380                	sd	s0,0(a5)
    10003510:	23813083          	ld	ra,568(sp)
    10003514:	23013403          	ld	s0,560(sp)
    10003518:	8526                	mv	a0,s1
    1000351a:	22013903          	ld	s2,544(sp)
    1000351e:	22813483          	ld	s1,552(sp)
    10003522:	21813983          	ld	s3,536(sp)
    10003526:	21013a03          	ld	s4,528(sp)
    1000352a:	20813a83          	ld	s5,520(sp)
    1000352e:	20013b03          	ld	s6,512(sp)
    10003532:	7bfe                	ld	s7,504(sp)
    10003534:	7c5e                	ld	s8,496(sp)
    10003536:	7cbe                	ld	s9,488(sp)
    10003538:	7d1e                	ld	s10,480(sp)
    1000353a:	6dfe                	ld	s11,472(sp)
    1000353c:	24010113          	addi	sp,sp,576
    10003540:	8082                	ret
    10003542:	47a9                	li	a5,10
    10003544:	02a00c13          	li	s8,42
    10003548:	d4fb18e3          	bne	s6,a5,10003298 <_ldtoa_r+0x700>
    1000354c:	03100793          	li	a5,49
    10003550:	14f100a3          	sb	a5,321(sp)
    10003554:	02e00793          	li	a5,46
    10003558:	14f10123          	sb	a5,322(sp)
    1000355c:	02a00c13          	li	s8,42
    10003560:	fdcff06f          	j	10002d3c <_ldtoa_r+0x1a4>
    10003564:	29a5                	addiw	s3,s3,9
    10003566:	bf8d                	j	100034d8 <_ldtoa_r+0x940>

0000000010003568 <_ldcheck>:
    10003568:	611c                	ld	a5,0(a0)
    1000356a:	7139                	addi	sp,sp,-64
    1000356c:	080c                	addi	a1,sp,16
    1000356e:	e03e                	sd	a5,0(sp)
    10003570:	651c                	ld	a5,8(a0)
    10003572:	850a                	mv	a0,sp
    10003574:	fc06                	sd	ra,56(sp)
    10003576:	e43e                	sd	a5,8(sp)
    10003578:	dc9fe0ef          	jal	ra,10002340 <e113toe.isra.8>
    1000357c:	02215783          	lhu	a5,34(sp)
    10003580:	4501                	li	a0,0
    10003582:	fff7c793          	not	a5,a5
    10003586:	03179713          	slli	a4,a5,0x31
    1000358a:	e719                	bnez	a4,10003598 <_ldcheck+0x30>
    1000358c:	0808                	addi	a0,sp,16
    1000358e:	9dbfe0ef          	jal	ra,10001f68 <eisnan>
    10003592:	00153513          	seqz	a0,a0
    10003596:	0505                	addi	a0,a0,1
    10003598:	70e2                	ld	ra,56(sp)
    1000359a:	6121                	addi	sp,sp,64
    1000359c:	8082                	ret
    1000359e:	0000                	unimp

00000000100035a0 <__localeconv_l>:
    100035a0:	10050513          	addi	a0,a0,256
    100035a4:	8082                	ret

00000000100035a6 <_localeconv_r>:
    100035a6:	00005797          	auipc	a5,0x5
    100035aa:	49278793          	addi	a5,a5,1170 # 10008a38 <_impure_ptr>
    100035ae:	639c                	ld	a5,0(a5)
    100035b0:	67a8                	ld	a0,72(a5)
    100035b2:	e509                	bnez	a0,100035bc <_localeconv_r+0x16>
    100035b4:	00005517          	auipc	a0,0x5
    100035b8:	28450513          	addi	a0,a0,644 # 10008838 <__global_locale>
    100035bc:	10050513          	addi	a0,a0,256
    100035c0:	8082                	ret

00000000100035c2 <localeconv>:
    100035c2:	00005797          	auipc	a5,0x5
    100035c6:	47678793          	addi	a5,a5,1142 # 10008a38 <_impure_ptr>
    100035ca:	639c                	ld	a5,0(a5)
    100035cc:	67a8                	ld	a0,72(a5)
    100035ce:	e509                	bnez	a0,100035d8 <localeconv+0x16>
    100035d0:	00005517          	auipc	a0,0x5
    100035d4:	26850513          	addi	a0,a0,616 # 10008838 <__global_locale>
    100035d8:	10050513          	addi	a0,a0,256
    100035dc:	8082                	ret
    100035de:	0000                	unimp

00000000100035e0 <_malloc_r>:
    100035e0:	715d                	addi	sp,sp,-80
    100035e2:	fc26                	sd	s1,56(sp)
    100035e4:	f84a                	sd	s2,48(sp)
    100035e6:	e486                	sd	ra,72(sp)
    100035e8:	e0a2                	sd	s0,64(sp)
    100035ea:	f44e                	sd	s3,40(sp)
