
..\makefiles\bin/riscv-tests.elf:     file format elf64-littleriscv


Disassembly of section .text:

0000000008000000 <u_mode_trap_table-0x4>:
  .globl exception_handler_c

  j enter_u_mode
 8000000:	00c0006f          	j	800000c <enter_u_mode>

0000000008000004 <u_mode_trap_table>:

  # trap vector specific for user-mode tests:
u_mode_trap_table:
  # All registers are invalid after riscv-tests finished!!
  csrr sp, 0x7b3          # restore dedicated stack region from dscratch1 dregister
 8000004:	7b302173          	csrr	sp,0x7b3
  j exception_handler_c
 8000008:	6e81206f          	j	80126f0 <exception_handler_c>

000000000800000c <enter_u_mode>:

enter_u_mode:
  csrw 0x7b3, sp          # save dedicated stack region into dscratch1 register to run riscv-tests
 800000c:	7b311073          	csrw	0x7b3,sp
  la t0, u_mode_trap_table
 8000010:	00000297          	auipc	t0,0x0
 8000014:	ff428293          	addi	t0,t0,-12 # 8000004 <u_mode_trap_table>
  csrw mtvec, t0
 8000018:	30529073          	csrw	mtvec,t0

  li t0, 0x00001880   # MPP[12:11] = 0x0 MPIE[7]=0 (Previous to machine mode)
 800001c:	000022b7          	lui	t0,0x2
 8000020:	8802829b          	addiw	t0,t0,-1920
  csrc mstatus, t0    # run tests in user mode = 0, by clearing bits
 8000024:	3002b073          	csrc	mstatus,t0

  # Enter U-mode
  la  t0, 1f
 8000028:	00000297          	auipc	t0,0x0
 800002c:	01028293          	addi	t0,t0,16 # 8000038 <test_2>
  csrw mepc, t0
 8000030:	34129073          	csrw	mepc,t0
  mret
 8000034:	30200073          	mret

0000000008000038 <test_2>:

  #-------------------------------------------------------------
  # Arithmetic tests
  #-------------------------------------------------------------

  TEST_RR_OP( 2,  add, 0x00000000, 0x00000000, 0x00000000 );
 8000038:	00000093          	li	ra,0
 800003c:	00000113          	li	sp,0
 8000040:	00208733          	add	a4,ra,sp
 8000044:	00000e93          	li	t4,0
 8000048:	00200193          	li	gp,2
 800004c:	01d70463          	beq	a4,t4,8000054 <test_3>
 8000050:	0a81206f          	j	80120f8 <fail>

0000000008000054 <test_3>:
  TEST_RR_OP( 3,  add, 0x00000002, 0x00000001, 0x00000001 );
 8000054:	00100093          	li	ra,1
 8000058:	00100113          	li	sp,1
 800005c:	00208733          	add	a4,ra,sp
 8000060:	00200e93          	li	t4,2
 8000064:	00300193          	li	gp,3
 8000068:	01d70463          	beq	a4,t4,8000070 <test_4>
 800006c:	08c1206f          	j	80120f8 <fail>

0000000008000070 <test_4>:
  TEST_RR_OP( 4,  add, 0x0000000a, 0x00000003, 0x00000007 );
 8000070:	00300093          	li	ra,3
 8000074:	00700113          	li	sp,7
 8000078:	00208733          	add	a4,ra,sp
 800007c:	00a00e93          	li	t4,10
 8000080:	00400193          	li	gp,4
 8000084:	01d70463          	beq	a4,t4,800008c <test_5>
 8000088:	0701206f          	j	80120f8 <fail>

000000000800008c <test_5>:

  TEST_RR_OP( 5,  add, 0xffffffffffff8000, 0x0000000000000000, 0xffffffffffff8000 );
 800008c:	00000093          	li	ra,0
 8000090:	ffff8137          	lui	sp,0xffff8
 8000094:	00208733          	add	a4,ra,sp
 8000098:	ffff8eb7          	lui	t4,0xffff8
 800009c:	00500193          	li	gp,5
 80000a0:	01d70463          	beq	a4,t4,80000a8 <test_6>
 80000a4:	0541206f          	j	80120f8 <fail>

00000000080000a8 <test_6>:
  TEST_RR_OP( 6,  add, 0xffffffff80000000, 0xffffffff80000000, 0x00000000 );
 80000a8:	800000b7          	lui	ra,0x80000
 80000ac:	00000113          	li	sp,0
 80000b0:	00208733          	add	a4,ra,sp
 80000b4:	80000eb7          	lui	t4,0x80000
 80000b8:	00600193          	li	gp,6
 80000bc:	01d70463          	beq	a4,t4,80000c4 <test_7>
 80000c0:	0381206f          	j	80120f8 <fail>

00000000080000c4 <test_7>:
  TEST_RR_OP( 7,  add, 0xffffffff7fff8000, 0xffffffff80000000, 0xffffffffffff8000 );
 80000c4:	800000b7          	lui	ra,0x80000
 80000c8:	ffff8137          	lui	sp,0xffff8
 80000cc:	00208733          	add	a4,ra,sp
 80000d0:	ffff0eb7          	lui	t4,0xffff0
 80000d4:	fffe8e9b          	addiw	t4,t4,-1
 80000d8:	00fe9e93          	slli	t4,t4,0xf
 80000dc:	00700193          	li	gp,7
 80000e0:	01d70463          	beq	a4,t4,80000e8 <test_8>
 80000e4:	0141206f          	j	80120f8 <fail>

00000000080000e8 <test_8>:

  TEST_RR_OP( 8,  add, 0x0000000000007fff, 0x0000000000000000, 0x0000000000007fff );
 80000e8:	00000093          	li	ra,0
 80000ec:	00008137          	lui	sp,0x8
 80000f0:	fff1011b          	addiw	sp,sp,-1
 80000f4:	00208733          	add	a4,ra,sp
 80000f8:	00008eb7          	lui	t4,0x8
 80000fc:	fffe8e9b          	addiw	t4,t4,-1
 8000100:	00800193          	li	gp,8
 8000104:	01d70463          	beq	a4,t4,800010c <test_9>
 8000108:	7f11106f          	j	80120f8 <fail>

000000000800010c <test_9>:
  TEST_RR_OP( 9,  add, 0x000000007fffffff, 0x000000007fffffff, 0x0000000000000000 );
 800010c:	800000b7          	lui	ra,0x80000
 8000110:	fff0809b          	addiw	ra,ra,-1
 8000114:	00000113          	li	sp,0
 8000118:	00208733          	add	a4,ra,sp
 800011c:	80000eb7          	lui	t4,0x80000
 8000120:	fffe8e9b          	addiw	t4,t4,-1
 8000124:	00900193          	li	gp,9
 8000128:	01d70463          	beq	a4,t4,8000130 <test_10>
 800012c:	7cd1106f          	j	80120f8 <fail>

0000000008000130 <test_10>:
  TEST_RR_OP( 10, add, 0x0000000080007ffe, 0x000000007fffffff, 0x0000000000007fff );
 8000130:	800000b7          	lui	ra,0x80000
 8000134:	fff0809b          	addiw	ra,ra,-1
 8000138:	00008137          	lui	sp,0x8
 800013c:	fff1011b          	addiw	sp,sp,-1
 8000140:	00208733          	add	a4,ra,sp
 8000144:	00010eb7          	lui	t4,0x10
 8000148:	001e8e9b          	addiw	t4,t4,1
 800014c:	00fe9e93          	slli	t4,t4,0xf
 8000150:	ffee8e93          	addi	t4,t4,-2 # fffe <u_mode_trap_table-0x7ff0006>
 8000154:	00a00193          	li	gp,10
 8000158:	01d70463          	beq	a4,t4,8000160 <test_11>
 800015c:	79d1106f          	j	80120f8 <fail>

0000000008000160 <test_11>:

  TEST_RR_OP( 11, add, 0xffffffff80007fff, 0xffffffff80000000, 0x0000000000007fff );
 8000160:	800000b7          	lui	ra,0x80000
 8000164:	00008137          	lui	sp,0x8
 8000168:	fff1011b          	addiw	sp,sp,-1
 800016c:	00208733          	add	a4,ra,sp
 8000170:	80008eb7          	lui	t4,0x80008
 8000174:	fffe8e9b          	addiw	t4,t4,-1
 8000178:	00b00193          	li	gp,11
 800017c:	01d70463          	beq	a4,t4,8000184 <test_12>
 8000180:	7791106f          	j	80120f8 <fail>

0000000008000184 <test_12>:
  TEST_RR_OP( 12, add, 0x000000007fff7fff, 0x000000007fffffff, 0xffffffffffff8000 );
 8000184:	800000b7          	lui	ra,0x80000
 8000188:	fff0809b          	addiw	ra,ra,-1
 800018c:	ffff8137          	lui	sp,0xffff8
 8000190:	00208733          	add	a4,ra,sp
 8000194:	7fff8eb7          	lui	t4,0x7fff8
 8000198:	fffe8e9b          	addiw	t4,t4,-1
 800019c:	00c00193          	li	gp,12
 80001a0:	01d70463          	beq	a4,t4,80001a8 <test_13>
 80001a4:	7551106f          	j	80120f8 <fail>

00000000080001a8 <test_13>:

  TEST_RR_OP( 13, add, 0xffffffffffffffff, 0x0000000000000000, 0xffffffffffffffff );
 80001a8:	00000093          	li	ra,0
 80001ac:	fff00113          	li	sp,-1
 80001b0:	00208733          	add	a4,ra,sp
 80001b4:	fff00e93          	li	t4,-1
 80001b8:	00d00193          	li	gp,13
 80001bc:	01d70463          	beq	a4,t4,80001c4 <test_14>
 80001c0:	7391106f          	j	80120f8 <fail>

00000000080001c4 <test_14>:
  TEST_RR_OP( 14, add, 0x0000000000000000, 0xffffffffffffffff, 0x0000000000000001 );
 80001c4:	fff00093          	li	ra,-1
 80001c8:	00100113          	li	sp,1
 80001cc:	00208733          	add	a4,ra,sp
 80001d0:	00000e93          	li	t4,0
 80001d4:	00e00193          	li	gp,14
 80001d8:	01d70463          	beq	a4,t4,80001e0 <test_15>
 80001dc:	71d1106f          	j	80120f8 <fail>

00000000080001e0 <test_15>:
  TEST_RR_OP( 15, add, 0xfffffffffffffffe, 0xffffffffffffffff, 0xffffffffffffffff );
 80001e0:	fff00093          	li	ra,-1
 80001e4:	fff00113          	li	sp,-1
 80001e8:	00208733          	add	a4,ra,sp
 80001ec:	ffe00e93          	li	t4,-2
 80001f0:	00f00193          	li	gp,15
 80001f4:	01d70463          	beq	a4,t4,80001fc <test_16>
 80001f8:	7011106f          	j	80120f8 <fail>

00000000080001fc <test_16>:

  TEST_RR_OP( 16, add, 0x0000000080000000, 0x0000000000000001, 0x000000007fffffff );
 80001fc:	00100093          	li	ra,1
 8000200:	80000137          	lui	sp,0x80000
 8000204:	fff1011b          	addiw	sp,sp,-1
 8000208:	00208733          	add	a4,ra,sp
 800020c:	00100e9b          	addiw	t4,zero,1
 8000210:	01fe9e93          	slli	t4,t4,0x1f
 8000214:	01000193          	li	gp,16
 8000218:	01d70463          	beq	a4,t4,8000220 <test_17>
 800021c:	6dd1106f          	j	80120f8 <fail>

0000000008000220 <test_17>:

  #-------------------------------------------------------------
  # Source/Destination tests
  #-------------------------------------------------------------

  TEST_RR_SRC1_EQ_DEST( 17, add, 24, 13, 11 );
 8000220:	00d00093          	li	ra,13
 8000224:	00b00113          	li	sp,11
 8000228:	002080b3          	add	ra,ra,sp
 800022c:	01800e93          	li	t4,24
 8000230:	01100193          	li	gp,17
 8000234:	01d08463          	beq	ra,t4,800023c <test_18>
 8000238:	6c11106f          	j	80120f8 <fail>

000000000800023c <test_18>:
  TEST_RR_SRC2_EQ_DEST( 18, add, 25, 14, 11 );
 800023c:	00e00093          	li	ra,14
 8000240:	00b00113          	li	sp,11
 8000244:	00208133          	add	sp,ra,sp
 8000248:	01900e93          	li	t4,25
 800024c:	01200193          	li	gp,18
 8000250:	01d10463          	beq	sp,t4,8000258 <test_19>
 8000254:	6a51106f          	j	80120f8 <fail>

0000000008000258 <test_19>:
  TEST_RR_SRC12_EQ_DEST( 19, add, 26, 13 );
 8000258:	00d00093          	li	ra,13
 800025c:	001080b3          	add	ra,ra,ra
 8000260:	01a00e93          	li	t4,26
 8000264:	01300193          	li	gp,19
 8000268:	01d08463          	beq	ra,t4,8000270 <test_20>
 800026c:	68d1106f          	j	80120f8 <fail>

0000000008000270 <test_20>:

  #-------------------------------------------------------------
  # Bypassing tests
  #-------------------------------------------------------------

  TEST_RR_DEST_BYPASS( 20, 0, add, 24, 13, 11 );
 8000270:	00000213          	li	tp,0
 8000274:	00d00093          	li	ra,13
 8000278:	00b00113          	li	sp,11
 800027c:	00208733          	add	a4,ra,sp
 8000280:	00070313          	mv	t1,a4
 8000284:	00120213          	addi	tp,tp,1 # 1 <u_mode_trap_table-0x8000003>
 8000288:	00200293          	li	t0,2
 800028c:	fe5214e3          	bne	tp,t0,8000274 <test_20+0x4>
 8000290:	01800e93          	li	t4,24
 8000294:	01400193          	li	gp,20
 8000298:	01d30463          	beq	t1,t4,80002a0 <test_21>
 800029c:	65d1106f          	j	80120f8 <fail>

00000000080002a0 <test_21>:
  TEST_RR_DEST_BYPASS( 21, 1, add, 25, 14, 11 );
 80002a0:	00000213          	li	tp,0
 80002a4:	00e00093          	li	ra,14
 80002a8:	00b00113          	li	sp,11
 80002ac:	00208733          	add	a4,ra,sp
 80002b0:	00000013          	nop
 80002b4:	00070313          	mv	t1,a4
 80002b8:	00120213          	addi	tp,tp,1 # 1 <u_mode_trap_table-0x8000003>
 80002bc:	00200293          	li	t0,2
 80002c0:	fe5212e3          	bne	tp,t0,80002a4 <test_21+0x4>
 80002c4:	01900e93          	li	t4,25
 80002c8:	01500193          	li	gp,21
 80002cc:	01d30463          	beq	t1,t4,80002d4 <test_22>
 80002d0:	6291106f          	j	80120f8 <fail>

00000000080002d4 <test_22>:
  TEST_RR_DEST_BYPASS( 22, 2, add, 26, 15, 11 );
 80002d4:	00000213          	li	tp,0
 80002d8:	00f00093          	li	ra,15
 80002dc:	00b00113          	li	sp,11
 80002e0:	00208733          	add	a4,ra,sp
 80002e4:	00000013          	nop
 80002e8:	00000013          	nop
 80002ec:	00070313          	mv	t1,a4
 80002f0:	00120213          	addi	tp,tp,1 # 1 <u_mode_trap_table-0x8000003>
 80002f4:	00200293          	li	t0,2
 80002f8:	fe5210e3          	bne	tp,t0,80002d8 <test_22+0x4>
 80002fc:	01a00e93          	li	t4,26
 8000300:	01600193          	li	gp,22
 8000304:	01d30463          	beq	t1,t4,800030c <test_23>
 8000308:	5f11106f          	j	80120f8 <fail>

000000000800030c <test_23>:

  TEST_RR_SRC12_BYPASS( 23, 0, 0, add, 24, 13, 11 );
 800030c:	00000213          	li	tp,0
 8000310:	00d00093          	li	ra,13
 8000314:	00b00113          	li	sp,11
 8000318:	00208733          	add	a4,ra,sp
 800031c:	00120213          	addi	tp,tp,1 # 1 <u_mode_trap_table-0x8000003>
 8000320:	00200293          	li	t0,2
 8000324:	fe5216e3          	bne	tp,t0,8000310 <test_23+0x4>
 8000328:	01800e93          	li	t4,24
 800032c:	01700193          	li	gp,23
 8000330:	01d70463          	beq	a4,t4,8000338 <test_24>
 8000334:	5c51106f          	j	80120f8 <fail>

0000000008000338 <test_24>:
  TEST_RR_SRC12_BYPASS( 24, 0, 1, add, 25, 14, 11 );
 8000338:	00000213          	li	tp,0
 800033c:	00e00093          	li	ra,14
 8000340:	00b00113          	li	sp,11
 8000344:	00000013          	nop
 8000348:	00208733          	add	a4,ra,sp
 800034c:	00120213          	addi	tp,tp,1 # 1 <u_mode_trap_table-0x8000003>
 8000350:	00200293          	li	t0,2
 8000354:	fe5214e3          	bne	tp,t0,800033c <test_24+0x4>
 8000358:	01900e93          	li	t4,25
 800035c:	01800193          	li	gp,24
 8000360:	01d70463          	beq	a4,t4,8000368 <test_25>
 8000364:	5951106f          	j	80120f8 <fail>

0000000008000368 <test_25>:
  TEST_RR_SRC12_BYPASS( 25, 0, 2, add, 26, 15, 11 );
 8000368:	00000213          	li	tp,0
 800036c:	00f00093          	li	ra,15
 8000370:	00b00113          	li	sp,11
 8000374:	00000013          	nop
 8000378:	00000013          	nop
 800037c:	00208733          	add	a4,ra,sp
 8000380:	00120213          	addi	tp,tp,1 # 1 <u_mode_trap_table-0x8000003>
 8000384:	00200293          	li	t0,2
 8000388:	fe5212e3          	bne	tp,t0,800036c <test_25+0x4>
 800038c:	01a00e93          	li	t4,26
 8000390:	01900193          	li	gp,25
 8000394:	01d70463          	beq	a4,t4,800039c <test_26>
 8000398:	5611106f          	j	80120f8 <fail>

000000000800039c <test_26>:
  TEST_RR_SRC12_BYPASS( 26, 1, 0, add, 24, 13, 11 );
 800039c:	00000213          	li	tp,0
 80003a0:	00d00093          	li	ra,13
 80003a4:	00000013          	nop
 80003a8:	00b00113          	li	sp,11
 80003ac:	00208733          	add	a4,ra,sp
 80003b0:	00120213          	addi	tp,tp,1 # 1 <u_mode_trap_table-0x8000003>
 80003b4:	00200293          	li	t0,2
 80003b8:	fe5214e3          	bne	tp,t0,80003a0 <test_26+0x4>
 80003bc:	01800e93          	li	t4,24
 80003c0:	01a00193          	li	gp,26
 80003c4:	01d70463          	beq	a4,t4,80003cc <test_27>
 80003c8:	5311106f          	j	80120f8 <fail>

00000000080003cc <test_27>:
  TEST_RR_SRC12_BYPASS( 27, 1, 1, add, 25, 14, 11 );
 80003cc:	00000213          	li	tp,0
 80003d0:	00e00093          	li	ra,14
 80003d4:	00000013          	nop
 80003d8:	00b00113          	li	sp,11
 80003dc:	00000013          	nop
 80003e0:	00208733          	add	a4,ra,sp
 80003e4:	00120213          	addi	tp,tp,1 # 1 <u_mode_trap_table-0x8000003>
 80003e8:	00200293          	li	t0,2
 80003ec:	fe5212e3          	bne	tp,t0,80003d0 <test_27+0x4>
 80003f0:	01900e93          	li	t4,25
 80003f4:	01b00193          	li	gp,27
 80003f8:	01d70463          	beq	a4,t4,8000400 <test_28>
 80003fc:	4fd1106f          	j	80120f8 <fail>

0000000008000400 <test_28>:
  TEST_RR_SRC12_BYPASS( 28, 2, 0, add, 26, 15, 11 );
 8000400:	00000213          	li	tp,0
 8000404:	00f00093          	li	ra,15
 8000408:	00000013          	nop
 800040c:	00000013          	nop
 8000410:	00b00113          	li	sp,11
 8000414:	00208733          	add	a4,ra,sp
 8000418:	00120213          	addi	tp,tp,1 # 1 <u_mode_trap_table-0x8000003>
 800041c:	00200293          	li	t0,2
 8000420:	fe5212e3          	bne	tp,t0,8000404 <test_28+0x4>
 8000424:	01a00e93          	li	t4,26
 8000428:	01c00193          	li	gp,28
 800042c:	01d70463          	beq	a4,t4,8000434 <test_29>
 8000430:	4c91106f          	j	80120f8 <fail>

0000000008000434 <test_29>:

  TEST_RR_SRC21_BYPASS( 29, 0, 0, add, 24, 13, 11 );
 8000434:	00000213          	li	tp,0
 8000438:	00b00113          	li	sp,11
 800043c:	00d00093          	li	ra,13
 8000440:	00208733          	add	a4,ra,sp
 8000444:	00120213          	addi	tp,tp,1 # 1 <u_mode_trap_table-0x8000003>
 8000448:	00200293          	li	t0,2
 800044c:	fe5216e3          	bne	tp,t0,8000438 <test_29+0x4>
 8000450:	01800e93          	li	t4,24
 8000454:	01d00193          	li	gp,29
 8000458:	01d70463          	beq	a4,t4,8000460 <test_30>
 800045c:	49d1106f          	j	80120f8 <fail>

0000000008000460 <test_30>:
  TEST_RR_SRC21_BYPASS( 30, 0, 1, add, 25, 14, 11 );
 8000460:	00000213          	li	tp,0
 8000464:	00b00113          	li	sp,11
 8000468:	00e00093          	li	ra,14
 800046c:	00000013          	nop
 8000470:	00208733          	add	a4,ra,sp
 8000474:	00120213          	addi	tp,tp,1 # 1 <u_mode_trap_table-0x8000003>
 8000478:	00200293          	li	t0,2
 800047c:	fe5214e3          	bne	tp,t0,8000464 <test_30+0x4>
 8000480:	01900e93          	li	t4,25
 8000484:	01e00193          	li	gp,30
 8000488:	01d70463          	beq	a4,t4,8000490 <test_31>
 800048c:	46d1106f          	j	80120f8 <fail>

0000000008000490 <test_31>:
  TEST_RR_SRC21_BYPASS( 31, 0, 2, add, 26, 15, 11 );
 8000490:	00000213          	li	tp,0
 8000494:	00b00113          	li	sp,11
 8000498:	00f00093          	li	ra,15
 800049c:	00000013          	nop
 80004a0:	00000013          	nop
 80004a4:	00208733          	add	a4,ra,sp
 80004a8:	00120213          	addi	tp,tp,1 # 1 <u_mode_trap_table-0x8000003>
 80004ac:	00200293          	li	t0,2
 80004b0:	fe5212e3          	bne	tp,t0,8000494 <test_31+0x4>
 80004b4:	01a00e93          	li	t4,26
 80004b8:	01f00193          	li	gp,31
 80004bc:	01d70463          	beq	a4,t4,80004c4 <test_32>
 80004c0:	4391106f          	j	80120f8 <fail>

00000000080004c4 <test_32>:
  TEST_RR_SRC21_BYPASS( 32, 1, 0, add, 24, 13, 11 );
 80004c4:	00000213          	li	tp,0
 80004c8:	00b00113          	li	sp,11
 80004cc:	00000013          	nop
 80004d0:	00d00093          	li	ra,13
 80004d4:	00208733          	add	a4,ra,sp
 80004d8:	00120213          	addi	tp,tp,1 # 1 <u_mode_trap_table-0x8000003>
 80004dc:	00200293          	li	t0,2
 80004e0:	fe5214e3          	bne	tp,t0,80004c8 <test_32+0x4>
 80004e4:	01800e93          	li	t4,24
 80004e8:	02000193          	li	gp,32
 80004ec:	01d70463          	beq	a4,t4,80004f4 <test_33>
 80004f0:	4091106f          	j	80120f8 <fail>

00000000080004f4 <test_33>:
  TEST_RR_SRC21_BYPASS( 33, 1, 1, add, 25, 14, 11 );
 80004f4:	00000213          	li	tp,0
 80004f8:	00b00113          	li	sp,11
 80004fc:	00000013          	nop
 8000500:	00e00093          	li	ra,14
 8000504:	00000013          	nop
 8000508:	00208733          	add	a4,ra,sp
 800050c:	00120213          	addi	tp,tp,1 # 1 <u_mode_trap_table-0x8000003>
 8000510:	00200293          	li	t0,2
 8000514:	fe5212e3          	bne	tp,t0,80004f8 <test_33+0x4>
 8000518:	01900e93          	li	t4,25
 800051c:	02100193          	li	gp,33
 8000520:	01d70463          	beq	a4,t4,8000528 <test_34>
 8000524:	3d51106f          	j	80120f8 <fail>

0000000008000528 <test_34>:
  TEST_RR_SRC21_BYPASS( 34, 2, 0, add, 26, 15, 11 );
 8000528:	00000213          	li	tp,0
 800052c:	00b00113          	li	sp,11
 8000530:	00000013          	nop
 8000534:	00000013          	nop
 8000538:	00f00093          	li	ra,15
 800053c:	00208733          	add	a4,ra,sp
 8000540:	00120213          	addi	tp,tp,1 # 1 <u_mode_trap_table-0x8000003>
 8000544:	00200293          	li	t0,2
 8000548:	fe5212e3          	bne	tp,t0,800052c <test_34+0x4>
 800054c:	01a00e93          	li	t4,26
 8000550:	02200193          	li	gp,34
 8000554:	01d70463          	beq	a4,t4,800055c <test_35>
 8000558:	3a11106f          	j	80120f8 <fail>

000000000800055c <test_35>:

  TEST_RR_ZEROSRC1( 35, add, 15, 15 );
 800055c:	00f00093          	li	ra,15
 8000560:	00100133          	add	sp,zero,ra
 8000564:	00f00e93          	li	t4,15
 8000568:	02300193          	li	gp,35
 800056c:	01d10463          	beq	sp,t4,8000574 <test_36>
 8000570:	3891106f          	j	80120f8 <fail>

0000000008000574 <test_36>:
  TEST_RR_ZEROSRC2( 36, add, 32, 32 );
 8000574:	02000093          	li	ra,32
 8000578:	00008133          	add	sp,ra,zero
 800057c:	02000e93          	li	t4,32
 8000580:	02400193          	li	gp,36
 8000584:	01d10463          	beq	sp,t4,800058c <test_37>
 8000588:	3711106f          	j	80120f8 <fail>

000000000800058c <test_37>:
  TEST_RR_ZEROSRC12( 37, add, 0 );
 800058c:	000000b3          	add	ra,zero,zero
 8000590:	00000e93          	li	t4,0
 8000594:	02500193          	li	gp,37
 8000598:	01d08463          	beq	ra,t4,80005a0 <test_38>
 800059c:	35d1106f          	j	80120f8 <fail>

00000000080005a0 <test_38>:
  TEST_RR_ZERODEST( 38, add, 16, 30 );
 80005a0:	01000093          	li	ra,16
 80005a4:	01e00113          	li	sp,30
 80005a8:	00208033          	add	zero,ra,sp
 80005ac:	00000e93          	li	t4,0
 80005b0:	02600193          	li	gp,38
 80005b4:	01d00463          	beq	zero,t4,80005bc <test_38+0x1c>
 80005b8:	3411106f          	j	80120f8 <fail>

  TEST_PASSFAIL

RVTEST_CODE_END
 80005bc:	c0001073          	unimp

00000000080005c0 <test_2>:

  #-------------------------------------------------------------
  # Arithmetic tests
  #-------------------------------------------------------------

  TEST_IMM_OP( 2,  addi, 0x00000000, 0x00000000, 0x000 );
 80005c0:	00000093          	li	ra,0
 80005c4:	00008713          	mv	a4,ra
 80005c8:	00000e93          	li	t4,0
 80005cc:	00200193          	li	gp,2
 80005d0:	01d70463          	beq	a4,t4,80005d8 <test_3>
 80005d4:	3251106f          	j	80120f8 <fail>

00000000080005d8 <test_3>:
  TEST_IMM_OP( 3,  addi, 0x00000002, 0x00000001, 0x001 );
 80005d8:	00100093          	li	ra,1
 80005dc:	00108713          	addi	a4,ra,1 # ffffffff80000001 <_end+0xffffffff77fec9a1>
 80005e0:	00200e93          	li	t4,2
 80005e4:	00300193          	li	gp,3
 80005e8:	01d70463          	beq	a4,t4,80005f0 <test_4>
 80005ec:	30d1106f          	j	80120f8 <fail>

00000000080005f0 <test_4>:
  TEST_IMM_OP( 4,  addi, 0x0000000a, 0x00000003, 0x007 );
 80005f0:	00300093          	li	ra,3
 80005f4:	00708713          	addi	a4,ra,7
 80005f8:	00a00e93          	li	t4,10
 80005fc:	00400193          	li	gp,4
 8000600:	01d70463          	beq	a4,t4,8000608 <test_5>
 8000604:	2f51106f          	j	80120f8 <fail>

0000000008000608 <test_5>:

  TEST_IMM_OP( 5,  addi, 0xfffffffffffff800, 0x0000000000000000, 0x800 );
 8000608:	00000093          	li	ra,0
 800060c:	80008713          	addi	a4,ra,-2048
 8000610:	80000e93          	li	t4,-2048
 8000614:	00500193          	li	gp,5
 8000618:	01d70463          	beq	a4,t4,8000620 <test_6>
 800061c:	2dd1106f          	j	80120f8 <fail>

0000000008000620 <test_6>:
  TEST_IMM_OP( 6,  addi, 0xffffffff80000000, 0xffffffff80000000, 0x000 );
 8000620:	800000b7          	lui	ra,0x80000
 8000624:	00008713          	mv	a4,ra
 8000628:	80000eb7          	lui	t4,0x80000
 800062c:	00600193          	li	gp,6
 8000630:	01d70463          	beq	a4,t4,8000638 <test_7>
 8000634:	2c51106f          	j	80120f8 <fail>

0000000008000638 <test_7>:
  TEST_IMM_OP( 7,  addi, 0xffffffff7ffff800, 0xffffffff80000000, 0x800 );
 8000638:	800000b7          	lui	ra,0x80000
 800063c:	80008713          	addi	a4,ra,-2048 # ffffffff7ffff800 <_end+0xffffffff77fec1a0>
 8000640:	fff00e9b          	addiw	t4,zero,-1
 8000644:	01fe9e93          	slli	t4,t4,0x1f
 8000648:	800e8e93          	addi	t4,t4,-2048 # ffffffff7ffff800 <_end+0xffffffff77fec1a0>
 800064c:	00700193          	li	gp,7
 8000650:	01d70463          	beq	a4,t4,8000658 <test_8>
 8000654:	2a51106f          	j	80120f8 <fail>

0000000008000658 <test_8>:

  TEST_IMM_OP( 8,  addi, 0x00000000000007ff, 0x00000000, 0x7ff );
 8000658:	00000093          	li	ra,0
 800065c:	7ff08713          	addi	a4,ra,2047
 8000660:	7ff00e93          	li	t4,2047
 8000664:	00800193          	li	gp,8
 8000668:	01d70463          	beq	a4,t4,8000670 <test_9>
 800066c:	28d1106f          	j	80120f8 <fail>

0000000008000670 <test_9>:
  TEST_IMM_OP( 9,  addi, 0x000000007fffffff, 0x7fffffff, 0x000 );
 8000670:	800000b7          	lui	ra,0x80000
 8000674:	fff0809b          	addiw	ra,ra,-1
 8000678:	00008713          	mv	a4,ra
 800067c:	80000eb7          	lui	t4,0x80000
 8000680:	fffe8e9b          	addiw	t4,t4,-1
 8000684:	00900193          	li	gp,9
 8000688:	01d70463          	beq	a4,t4,8000690 <test_10>
 800068c:	26d1106f          	j	80120f8 <fail>

0000000008000690 <test_10>:
  TEST_IMM_OP( 10, addi, 0x00000000800007fe, 0x7fffffff, 0x7ff );
 8000690:	800000b7          	lui	ra,0x80000
 8000694:	fff0809b          	addiw	ra,ra,-1
 8000698:	7ff08713          	addi	a4,ra,2047 # ffffffff800007ff <_end+0xffffffff77fed19f>
 800069c:	00100e9b          	addiw	t4,zero,1
 80006a0:	01fe9e93          	slli	t4,t4,0x1f
 80006a4:	7fee8e93          	addi	t4,t4,2046 # ffffffff800007fe <_end+0xffffffff77fed19e>
 80006a8:	00a00193          	li	gp,10
 80006ac:	01d70463          	beq	a4,t4,80006b4 <test_11>
 80006b0:	2491106f          	j	80120f8 <fail>

00000000080006b4 <test_11>:

  TEST_IMM_OP( 11, addi, 0xffffffff800007ff, 0xffffffff80000000, 0x7ff );
 80006b4:	800000b7          	lui	ra,0x80000
 80006b8:	7ff08713          	addi	a4,ra,2047 # ffffffff800007ff <_end+0xffffffff77fed19f>
 80006bc:	80000eb7          	lui	t4,0x80000
 80006c0:	7ffe8e9b          	addiw	t4,t4,2047
 80006c4:	00b00193          	li	gp,11
 80006c8:	01d70463          	beq	a4,t4,80006d0 <test_12>
 80006cc:	22d1106f          	j	80120f8 <fail>

00000000080006d0 <test_12>:
  TEST_IMM_OP( 12, addi, 0x000000007ffff7ff, 0x000000007fffffff, 0x800 );
 80006d0:	800000b7          	lui	ra,0x80000
 80006d4:	fff0809b          	addiw	ra,ra,-1
 80006d8:	80008713          	addi	a4,ra,-2048 # ffffffff7ffff800 <_end+0xffffffff77fec1a0>
 80006dc:	7ffffeb7          	lui	t4,0x7ffff
 80006e0:	7ffe8e9b          	addiw	t4,t4,2047
 80006e4:	00c00193          	li	gp,12
 80006e8:	01d70463          	beq	a4,t4,80006f0 <test_13>
 80006ec:	20d1106f          	j	80120f8 <fail>

00000000080006f0 <test_13>:

  TEST_IMM_OP( 13, addi, 0xffffffffffffffff, 0x0000000000000000, 0xfff );
 80006f0:	00000093          	li	ra,0
 80006f4:	fff08713          	addi	a4,ra,-1
 80006f8:	fff00e93          	li	t4,-1
 80006fc:	00d00193          	li	gp,13
 8000700:	01d70463          	beq	a4,t4,8000708 <test_14>
 8000704:	1f51106f          	j	80120f8 <fail>

0000000008000708 <test_14>:
  TEST_IMM_OP( 14, addi, 0x0000000000000000, 0xffffffffffffffff, 0x001 );
 8000708:	fff00093          	li	ra,-1
 800070c:	00108713          	addi	a4,ra,1
 8000710:	00000e93          	li	t4,0
 8000714:	00e00193          	li	gp,14
 8000718:	01d70463          	beq	a4,t4,8000720 <test_15>
 800071c:	1dd1106f          	j	80120f8 <fail>

0000000008000720 <test_15>:
  TEST_IMM_OP( 15, addi, 0xfffffffffffffffe, 0xffffffffffffffff, 0xfff );
 8000720:	fff00093          	li	ra,-1
 8000724:	fff08713          	addi	a4,ra,-1
 8000728:	ffe00e93          	li	t4,-2
 800072c:	00f00193          	li	gp,15
 8000730:	01d70463          	beq	a4,t4,8000738 <test_16>
 8000734:	1c51106f          	j	80120f8 <fail>

0000000008000738 <test_16>:

  TEST_IMM_OP( 16, addi, 0x0000000080000000, 0x7fffffff, 0x001 );
 8000738:	800000b7          	lui	ra,0x80000
 800073c:	fff0809b          	addiw	ra,ra,-1
 8000740:	00108713          	addi	a4,ra,1 # ffffffff80000001 <_end+0xffffffff77fec9a1>
 8000744:	00100e9b          	addiw	t4,zero,1
 8000748:	01fe9e93          	slli	t4,t4,0x1f
 800074c:	01000193          	li	gp,16
 8000750:	01d70463          	beq	a4,t4,8000758 <test_17>
 8000754:	1a51106f          	j	80120f8 <fail>

0000000008000758 <test_17>:

  #-------------------------------------------------------------
  # Source/Destination tests
  #-------------------------------------------------------------

  TEST_IMM_SRC1_EQ_DEST( 17, addi, 24, 13, 11 );
 8000758:	00d00093          	li	ra,13
 800075c:	00b08093          	addi	ra,ra,11
 8000760:	01800e93          	li	t4,24
 8000764:	01100193          	li	gp,17
 8000768:	01d08463          	beq	ra,t4,8000770 <test_18>
 800076c:	18d1106f          	j	80120f8 <fail>

0000000008000770 <test_18>:

  #-------------------------------------------------------------
  # Bypassing tests
  #-------------------------------------------------------------

  TEST_IMM_DEST_BYPASS( 18, 0, addi, 24, 13, 11 );
 8000770:	00000213          	li	tp,0
 8000774:	00d00093          	li	ra,13
 8000778:	00b08713          	addi	a4,ra,11
 800077c:	00070313          	mv	t1,a4
 8000780:	00120213          	addi	tp,tp,1 # 1 <u_mode_trap_table-0x8000003>
 8000784:	00200293          	li	t0,2
 8000788:	fe5216e3          	bne	tp,t0,8000774 <test_18+0x4>
 800078c:	01800e93          	li	t4,24
 8000790:	01200193          	li	gp,18
 8000794:	01d30463          	beq	t1,t4,800079c <test_19>
 8000798:	1611106f          	j	80120f8 <fail>

000000000800079c <test_19>:
  TEST_IMM_DEST_BYPASS( 19, 1, addi, 23, 13, 10 );
 800079c:	00000213          	li	tp,0
 80007a0:	00d00093          	li	ra,13
 80007a4:	00a08713          	addi	a4,ra,10
 80007a8:	00000013          	nop
 80007ac:	00070313          	mv	t1,a4
 80007b0:	00120213          	addi	tp,tp,1 # 1 <u_mode_trap_table-0x8000003>
 80007b4:	00200293          	li	t0,2
 80007b8:	fe5214e3          	bne	tp,t0,80007a0 <test_19+0x4>
 80007bc:	01700e93          	li	t4,23
 80007c0:	01300193          	li	gp,19
 80007c4:	01d30463          	beq	t1,t4,80007cc <test_20>
 80007c8:	1311106f          	j	80120f8 <fail>

00000000080007cc <test_20>:
  TEST_IMM_DEST_BYPASS( 20, 2, addi, 22, 13,  9 );
 80007cc:	00000213          	li	tp,0
 80007d0:	00d00093          	li	ra,13
 80007d4:	00908713          	addi	a4,ra,9
 80007d8:	00000013          	nop
 80007dc:	00000013          	nop
 80007e0:	00070313          	mv	t1,a4
 80007e4:	00120213          	addi	tp,tp,1 # 1 <u_mode_trap_table-0x8000003>
 80007e8:	00200293          	li	t0,2
 80007ec:	fe5212e3          	bne	tp,t0,80007d0 <test_20+0x4>
 80007f0:	01600e93          	li	t4,22
 80007f4:	01400193          	li	gp,20
 80007f8:	01d30463          	beq	t1,t4,8000800 <test_21>
 80007fc:	0fd1106f          	j	80120f8 <fail>

0000000008000800 <test_21>:

  TEST_IMM_SRC1_BYPASS( 21, 0, addi, 24, 13, 11 );
 8000800:	00000213          	li	tp,0
 8000804:	00d00093          	li	ra,13
 8000808:	00b08713          	addi	a4,ra,11
 800080c:	00120213          	addi	tp,tp,1 # 1 <u_mode_trap_table-0x8000003>
 8000810:	00200293          	li	t0,2
 8000814:	fe5218e3          	bne	tp,t0,8000804 <test_21+0x4>
 8000818:	01800e93          	li	t4,24
 800081c:	01500193          	li	gp,21
 8000820:	01d70463          	beq	a4,t4,8000828 <test_22>
 8000824:	0d51106f          	j	80120f8 <fail>

0000000008000828 <test_22>:
  TEST_IMM_SRC1_BYPASS( 22, 1, addi, 23, 13, 10 );
 8000828:	00000213          	li	tp,0
 800082c:	00d00093          	li	ra,13
 8000830:	00000013          	nop
 8000834:	00a08713          	addi	a4,ra,10
 8000838:	00120213          	addi	tp,tp,1 # 1 <u_mode_trap_table-0x8000003>
 800083c:	00200293          	li	t0,2
 8000840:	fe5216e3          	bne	tp,t0,800082c <test_22+0x4>
 8000844:	01700e93          	li	t4,23
 8000848:	01600193          	li	gp,22
 800084c:	01d70463          	beq	a4,t4,8000854 <test_23>
 8000850:	0a91106f          	j	80120f8 <fail>

0000000008000854 <test_23>:
  TEST_IMM_SRC1_BYPASS( 23, 2, addi, 22, 13,  9 );
 8000854:	00000213          	li	tp,0
 8000858:	00d00093          	li	ra,13
 800085c:	00000013          	nop
 8000860:	00000013          	nop
 8000864:	00908713          	addi	a4,ra,9
 8000868:	00120213          	addi	tp,tp,1 # 1 <u_mode_trap_table-0x8000003>
 800086c:	00200293          	li	t0,2
 8000870:	fe5214e3          	bne	tp,t0,8000858 <test_23+0x4>
 8000874:	01600e93          	li	t4,22
 8000878:	01700193          	li	gp,23
 800087c:	01d70463          	beq	a4,t4,8000884 <test_24>
 8000880:	0791106f          	j	80120f8 <fail>

0000000008000884 <test_24>:

  TEST_IMM_ZEROSRC1( 24, addi, 32, 32 );
 8000884:	02000093          	li	ra,32
 8000888:	02000e93          	li	t4,32
 800088c:	01800193          	li	gp,24
 8000890:	01d08463          	beq	ra,t4,8000898 <test_25>
 8000894:	0651106f          	j	80120f8 <fail>

0000000008000898 <test_25>:
  TEST_IMM_ZERODEST( 25, addi, 33, 50 );
 8000898:	02100093          	li	ra,33
 800089c:	03208013          	addi	zero,ra,50
 80008a0:	00000e93          	li	t4,0
 80008a4:	01900193          	li	gp,25
 80008a8:	01d00463          	beq	zero,t4,80008b0 <test_25+0x18>
 80008ac:	04d1106f          	j	80120f8 <fail>

  TEST_PASSFAIL

RVTEST_CODE_END
 80008b0:	c0001073          	unimp

00000000080008b4 <test_2>:

  #-------------------------------------------------------------
  # Arithmetic tests
  #-------------------------------------------------------------

  TEST_IMM_OP( 2,  addiw, 0x00000000, 0x00000000, 0x000 );
 80008b4:	00000093          	li	ra,0
 80008b8:	0000871b          	sext.w	a4,ra
 80008bc:	00000e93          	li	t4,0
 80008c0:	00200193          	li	gp,2
 80008c4:	01d70463          	beq	a4,t4,80008cc <test_3>
 80008c8:	0311106f          	j	80120f8 <fail>

00000000080008cc <test_3>:
  TEST_IMM_OP( 3,  addiw, 0x00000002, 0x00000001, 0x001 );
 80008cc:	00100093          	li	ra,1
 80008d0:	0010871b          	addiw	a4,ra,1
 80008d4:	00200e93          	li	t4,2
 80008d8:	00300193          	li	gp,3
 80008dc:	01d70463          	beq	a4,t4,80008e4 <test_4>
 80008e0:	0191106f          	j	80120f8 <fail>

00000000080008e4 <test_4>:
  TEST_IMM_OP( 4,  addiw, 0x0000000a, 0x00000003, 0x007 );
 80008e4:	00300093          	li	ra,3
 80008e8:	0070871b          	addiw	a4,ra,7
 80008ec:	00a00e93          	li	t4,10
 80008f0:	00400193          	li	gp,4
 80008f4:	01d70463          	beq	a4,t4,80008fc <test_5>
 80008f8:	0011106f          	j	80120f8 <fail>

00000000080008fc <test_5>:

  TEST_IMM_OP( 5,  addiw, 0xfffffffffffff800, 0x0000000000000000, 0x800 );
 80008fc:	00000093          	li	ra,0
 8000900:	8000871b          	addiw	a4,ra,-2048
 8000904:	80000e93          	li	t4,-2048
 8000908:	00500193          	li	gp,5
 800090c:	01d70463          	beq	a4,t4,8000914 <test_6>
 8000910:	7e81106f          	j	80120f8 <fail>

0000000008000914 <test_6>:
  TEST_IMM_OP( 6,  addiw, 0xffffffff80000000, 0xffffffff80000000, 0x000 );
 8000914:	800000b7          	lui	ra,0x80000
 8000918:	0000871b          	sext.w	a4,ra
 800091c:	80000eb7          	lui	t4,0x80000
 8000920:	00600193          	li	gp,6
 8000924:	01d70463          	beq	a4,t4,800092c <test_7>
 8000928:	7d01106f          	j	80120f8 <fail>

000000000800092c <test_7>:
  TEST_IMM_OP( 7,  addiw, 0x000000007ffff800, 0xffffffff80000000, 0x800 );
 800092c:	800000b7          	lui	ra,0x80000
 8000930:	8000871b          	addiw	a4,ra,-2048
 8000934:	80000eb7          	lui	t4,0x80000
 8000938:	800e8e9b          	addiw	t4,t4,-2048
 800093c:	00700193          	li	gp,7
 8000940:	01d70463          	beq	a4,t4,8000948 <test_8>
 8000944:	7b41106f          	j	80120f8 <fail>

0000000008000948 <test_8>:

  TEST_IMM_OP( 8,  addiw, 0x00000000000007ff, 0x00000000, 0x7ff );
 8000948:	00000093          	li	ra,0
 800094c:	7ff0871b          	addiw	a4,ra,2047
 8000950:	7ff00e93          	li	t4,2047
 8000954:	00800193          	li	gp,8
 8000958:	01d70463          	beq	a4,t4,8000960 <test_9>
 800095c:	79c1106f          	j	80120f8 <fail>

0000000008000960 <test_9>:
  TEST_IMM_OP( 9,  addiw, 0x000000007fffffff, 0x7fffffff, 0x000 );
 8000960:	800000b7          	lui	ra,0x80000
 8000964:	fff0809b          	addiw	ra,ra,-1
 8000968:	0000871b          	sext.w	a4,ra
 800096c:	80000eb7          	lui	t4,0x80000
 8000970:	fffe8e9b          	addiw	t4,t4,-1
 8000974:	00900193          	li	gp,9
 8000978:	01d70463          	beq	a4,t4,8000980 <test_10>
 800097c:	77c1106f          	j	80120f8 <fail>

0000000008000980 <test_10>:
  TEST_IMM_OP( 10, addiw, 0xffffffff800007fe, 0x7fffffff, 0x7ff );
 8000980:	800000b7          	lui	ra,0x80000
 8000984:	fff0809b          	addiw	ra,ra,-1
 8000988:	7ff0871b          	addiw	a4,ra,2047
 800098c:	80000eb7          	lui	t4,0x80000
 8000990:	7fee8e9b          	addiw	t4,t4,2046
 8000994:	00a00193          	li	gp,10
 8000998:	01d70463          	beq	a4,t4,80009a0 <test_11>
 800099c:	75c1106f          	j	80120f8 <fail>

00000000080009a0 <test_11>:

  TEST_IMM_OP( 11, addiw, 0xffffffff800007ff, 0xffffffff80000000, 0x7ff );
 80009a0:	800000b7          	lui	ra,0x80000
 80009a4:	7ff0871b          	addiw	a4,ra,2047
 80009a8:	80000eb7          	lui	t4,0x80000
 80009ac:	7ffe8e9b          	addiw	t4,t4,2047
 80009b0:	00b00193          	li	gp,11
 80009b4:	01d70463          	beq	a4,t4,80009bc <test_12>
 80009b8:	7401106f          	j	80120f8 <fail>

00000000080009bc <test_12>:
  TEST_IMM_OP( 12, addiw, 0x000000007ffff7ff, 0x000000007fffffff, 0x800 );
 80009bc:	800000b7          	lui	ra,0x80000
 80009c0:	fff0809b          	addiw	ra,ra,-1
 80009c4:	8000871b          	addiw	a4,ra,-2048
 80009c8:	7ffffeb7          	lui	t4,0x7ffff
 80009cc:	7ffe8e9b          	addiw	t4,t4,2047
 80009d0:	00c00193          	li	gp,12
 80009d4:	01d70463          	beq	a4,t4,80009dc <test_13>
 80009d8:	7201106f          	j	80120f8 <fail>

00000000080009dc <test_13>:

  TEST_IMM_OP( 13, addiw, 0xffffffffffffffff, 0x0000000000000000, 0xfff );
 80009dc:	00000093          	li	ra,0
 80009e0:	fff0871b          	addiw	a4,ra,-1
 80009e4:	fff00e93          	li	t4,-1
 80009e8:	00d00193          	li	gp,13
 80009ec:	01d70463          	beq	a4,t4,80009f4 <test_14>
 80009f0:	7081106f          	j	80120f8 <fail>

00000000080009f4 <test_14>:
  TEST_IMM_OP( 14, addiw, 0x0000000000000000, 0xffffffffffffffff, 0x001 );
 80009f4:	fff00093          	li	ra,-1
 80009f8:	0010871b          	addiw	a4,ra,1
 80009fc:	00000e93          	li	t4,0
 8000a00:	00e00193          	li	gp,14
 8000a04:	01d70463          	beq	a4,t4,8000a0c <test_15>
 8000a08:	6f01106f          	j	80120f8 <fail>

0000000008000a0c <test_15>:
  TEST_IMM_OP( 15, addiw, 0xfffffffffffffffe, 0xffffffffffffffff, 0xfff );
 8000a0c:	fff00093          	li	ra,-1
 8000a10:	fff0871b          	addiw	a4,ra,-1
 8000a14:	ffe00e93          	li	t4,-2
 8000a18:	00f00193          	li	gp,15
 8000a1c:	01d70463          	beq	a4,t4,8000a24 <test_16>
 8000a20:	6d81106f          	j	80120f8 <fail>

0000000008000a24 <test_16>:

  TEST_IMM_OP( 16, addiw, 0xffffffff80000000, 0x7fffffff, 0x001 );
 8000a24:	800000b7          	lui	ra,0x80000
 8000a28:	fff0809b          	addiw	ra,ra,-1
 8000a2c:	0010871b          	addiw	a4,ra,1
 8000a30:	80000eb7          	lui	t4,0x80000
 8000a34:	01000193          	li	gp,16
 8000a38:	01d70463          	beq	a4,t4,8000a40 <test_17>
 8000a3c:	6bc1106f          	j	80120f8 <fail>

0000000008000a40 <test_17>:

  #-------------------------------------------------------------
  # Source/Destination tests
  #-------------------------------------------------------------

  TEST_IMM_SRC1_EQ_DEST( 17, addiw, 24, 13, 11 );
 8000a40:	00d00093          	li	ra,13
 8000a44:	00b0809b          	addiw	ra,ra,11
 8000a48:	01800e93          	li	t4,24
 8000a4c:	01100193          	li	gp,17
 8000a50:	01d08463          	beq	ra,t4,8000a58 <test_18>
 8000a54:	6a41106f          	j	80120f8 <fail>

0000000008000a58 <test_18>:

  #-------------------------------------------------------------
  # Bypassing tests
  #-------------------------------------------------------------

  TEST_IMM_DEST_BYPASS( 18, 0, addiw, 24, 13, 11 );
 8000a58:	00000213          	li	tp,0
 8000a5c:	00d00093          	li	ra,13
 8000a60:	00b0871b          	addiw	a4,ra,11
 8000a64:	00070313          	mv	t1,a4
 8000a68:	00120213          	addi	tp,tp,1 # 1 <u_mode_trap_table-0x8000003>
 8000a6c:	00200293          	li	t0,2
 8000a70:	fe5216e3          	bne	tp,t0,8000a5c <test_18+0x4>
 8000a74:	01800e93          	li	t4,24
 8000a78:	01200193          	li	gp,18
 8000a7c:	01d30463          	beq	t1,t4,8000a84 <test_19>
 8000a80:	6781106f          	j	80120f8 <fail>

0000000008000a84 <test_19>:
  TEST_IMM_DEST_BYPASS( 19, 1, addiw, 23, 13, 10 );
 8000a84:	00000213          	li	tp,0
 8000a88:	00d00093          	li	ra,13
 8000a8c:	00a0871b          	addiw	a4,ra,10
 8000a90:	00000013          	nop
 8000a94:	00070313          	mv	t1,a4
 8000a98:	00120213          	addi	tp,tp,1 # 1 <u_mode_trap_table-0x8000003>
 8000a9c:	00200293          	li	t0,2
 8000aa0:	fe5214e3          	bne	tp,t0,8000a88 <test_19+0x4>
 8000aa4:	01700e93          	li	t4,23
 8000aa8:	01300193          	li	gp,19
 8000aac:	01d30463          	beq	t1,t4,8000ab4 <test_20>
 8000ab0:	6481106f          	j	80120f8 <fail>

0000000008000ab4 <test_20>:
  TEST_IMM_DEST_BYPASS( 20, 2, addiw, 22, 13,  9 );
 8000ab4:	00000213          	li	tp,0
 8000ab8:	00d00093          	li	ra,13
 8000abc:	0090871b          	addiw	a4,ra,9
 8000ac0:	00000013          	nop
 8000ac4:	00000013          	nop
 8000ac8:	00070313          	mv	t1,a4
 8000acc:	00120213          	addi	tp,tp,1 # 1 <u_mode_trap_table-0x8000003>
 8000ad0:	00200293          	li	t0,2
 8000ad4:	fe5212e3          	bne	tp,t0,8000ab8 <test_20+0x4>
 8000ad8:	01600e93          	li	t4,22
 8000adc:	01400193          	li	gp,20
 8000ae0:	01d30463          	beq	t1,t4,8000ae8 <test_21>
 8000ae4:	6141106f          	j	80120f8 <fail>

0000000008000ae8 <test_21>:

  TEST_IMM_SRC1_BYPASS( 21, 0, addiw, 24, 13, 11 );
 8000ae8:	00000213          	li	tp,0
 8000aec:	00d00093          	li	ra,13
 8000af0:	00b0871b          	addiw	a4,ra,11
 8000af4:	00120213          	addi	tp,tp,1 # 1 <u_mode_trap_table-0x8000003>
 8000af8:	00200293          	li	t0,2
 8000afc:	fe5218e3          	bne	tp,t0,8000aec <test_21+0x4>
 8000b00:	01800e93          	li	t4,24
 8000b04:	01500193          	li	gp,21
 8000b08:	01d70463          	beq	a4,t4,8000b10 <test_22>
 8000b0c:	5ec1106f          	j	80120f8 <fail>

0000000008000b10 <test_22>:
  TEST_IMM_SRC1_BYPASS( 22, 1, addiw, 23, 13, 10 );
 8000b10:	00000213          	li	tp,0
 8000b14:	00d00093          	li	ra,13
 8000b18:	00000013          	nop
 8000b1c:	00a0871b          	addiw	a4,ra,10
 8000b20:	00120213          	addi	tp,tp,1 # 1 <u_mode_trap_table-0x8000003>
 8000b24:	00200293          	li	t0,2
 8000b28:	fe5216e3          	bne	tp,t0,8000b14 <test_22+0x4>
 8000b2c:	01700e93          	li	t4,23
 8000b30:	01600193          	li	gp,22
 8000b34:	01d70463          	beq	a4,t4,8000b3c <test_23>
 8000b38:	5c01106f          	j	80120f8 <fail>

0000000008000b3c <test_23>:
  TEST_IMM_SRC1_BYPASS( 23, 2, addiw, 22, 13,  9 );
 8000b3c:	00000213          	li	tp,0
 8000b40:	00d00093          	li	ra,13
 8000b44:	00000013          	nop
 8000b48:	00000013          	nop
 8000b4c:	0090871b          	addiw	a4,ra,9
 8000b50:	00120213          	addi	tp,tp,1 # 1 <u_mode_trap_table-0x8000003>
 8000b54:	00200293          	li	t0,2
 8000b58:	fe5214e3          	bne	tp,t0,8000b40 <test_23+0x4>
 8000b5c:	01600e93          	li	t4,22
 8000b60:	01700193          	li	gp,23
 8000b64:	01d70463          	beq	a4,t4,8000b6c <test_24>
 8000b68:	5901106f          	j	80120f8 <fail>

0000000008000b6c <test_24>:

  TEST_IMM_ZEROSRC1( 24, addiw, 32, 32 );
 8000b6c:	0200009b          	addiw	ra,zero,32
 8000b70:	02000e93          	li	t4,32
 8000b74:	01800193          	li	gp,24
 8000b78:	01d08463          	beq	ra,t4,8000b80 <test_25>
 8000b7c:	57c1106f          	j	80120f8 <fail>

0000000008000b80 <test_25>:
  TEST_IMM_ZERODEST( 25, addiw, 33, 50 );
 8000b80:	02100093          	li	ra,33
 8000b84:	0320801b          	addiw	zero,ra,50
 8000b88:	00000e93          	li	t4,0
 8000b8c:	01900193          	li	gp,25
 8000b90:	01d00463          	beq	zero,t4,8000b98 <test_25+0x18>
 8000b94:	5641106f          	j	80120f8 <fail>

  TEST_PASSFAIL

RVTEST_CODE_END
 8000b98:	c0001073          	unimp

0000000008000b9c <test_2>:

  #-------------------------------------------------------------
  # Arithmetic tests
  #-------------------------------------------------------------

  TEST_RR_OP( 2,  addw, 0x00000000, 0x00000000, 0x00000000 );
 8000b9c:	00000093          	li	ra,0
 8000ba0:	00000113          	li	sp,0
 8000ba4:	0020873b          	addw	a4,ra,sp
 8000ba8:	00000e93          	li	t4,0
 8000bac:	00200193          	li	gp,2
 8000bb0:	01d70463          	beq	a4,t4,8000bb8 <test_3>
 8000bb4:	5441106f          	j	80120f8 <fail>

0000000008000bb8 <test_3>:
  TEST_RR_OP( 3,  addw, 0x00000002, 0x00000001, 0x00000001 );
 8000bb8:	00100093          	li	ra,1
 8000bbc:	00100113          	li	sp,1
 8000bc0:	0020873b          	addw	a4,ra,sp
 8000bc4:	00200e93          	li	t4,2
 8000bc8:	00300193          	li	gp,3
 8000bcc:	01d70463          	beq	a4,t4,8000bd4 <test_4>
 8000bd0:	5281106f          	j	80120f8 <fail>

0000000008000bd4 <test_4>:
  TEST_RR_OP( 4,  addw, 0x0000000a, 0x00000003, 0x00000007 );
 8000bd4:	00300093          	li	ra,3
 8000bd8:	00700113          	li	sp,7
 8000bdc:	0020873b          	addw	a4,ra,sp
 8000be0:	00a00e93          	li	t4,10
 8000be4:	00400193          	li	gp,4
 8000be8:	01d70463          	beq	a4,t4,8000bf0 <test_5>
 8000bec:	50c1106f          	j	80120f8 <fail>

0000000008000bf0 <test_5>:

  TEST_RR_OP( 5,  addw, 0xffffffffffff8000, 0x0000000000000000, 0xffffffffffff8000 );
 8000bf0:	00000093          	li	ra,0
 8000bf4:	ffff8137          	lui	sp,0xffff8
 8000bf8:	0020873b          	addw	a4,ra,sp
 8000bfc:	ffff8eb7          	lui	t4,0xffff8
 8000c00:	00500193          	li	gp,5
 8000c04:	01d70463          	beq	a4,t4,8000c0c <test_6>
 8000c08:	4f01106f          	j	80120f8 <fail>

0000000008000c0c <test_6>:
  TEST_RR_OP( 6,  addw, 0xffffffff80000000, 0xffffffff80000000, 0x00000000 );
 8000c0c:	800000b7          	lui	ra,0x80000
 8000c10:	00000113          	li	sp,0
 8000c14:	0020873b          	addw	a4,ra,sp
 8000c18:	80000eb7          	lui	t4,0x80000
 8000c1c:	00600193          	li	gp,6
 8000c20:	01d70463          	beq	a4,t4,8000c28 <test_7>
 8000c24:	4d41106f          	j	80120f8 <fail>

0000000008000c28 <test_7>:
  TEST_RR_OP( 7,  addw, 0x000000007fff8000, 0xffffffff80000000, 0xffffffffffff8000 );
 8000c28:	800000b7          	lui	ra,0x80000
 8000c2c:	ffff8137          	lui	sp,0xffff8
 8000c30:	0020873b          	addw	a4,ra,sp
 8000c34:	7fff8eb7          	lui	t4,0x7fff8
 8000c38:	00700193          	li	gp,7
 8000c3c:	01d70463          	beq	a4,t4,8000c44 <test_8>
 8000c40:	4b81106f          	j	80120f8 <fail>

0000000008000c44 <test_8>:

  TEST_RR_OP( 8,  addw, 0x0000000000007fff, 0x0000000000000000, 0x0000000000007fff );
 8000c44:	00000093          	li	ra,0
 8000c48:	00008137          	lui	sp,0x8
 8000c4c:	fff1011b          	addiw	sp,sp,-1
 8000c50:	0020873b          	addw	a4,ra,sp
 8000c54:	00008eb7          	lui	t4,0x8
 8000c58:	fffe8e9b          	addiw	t4,t4,-1
 8000c5c:	00800193          	li	gp,8
 8000c60:	01d70463          	beq	a4,t4,8000c68 <test_9>
 8000c64:	4941106f          	j	80120f8 <fail>

0000000008000c68 <test_9>:
  TEST_RR_OP( 9,  addw, 0x000000007fffffff, 0x000000007fffffff, 0x0000000000000000 );
 8000c68:	800000b7          	lui	ra,0x80000
 8000c6c:	fff0809b          	addiw	ra,ra,-1
 8000c70:	00000113          	li	sp,0
 8000c74:	0020873b          	addw	a4,ra,sp
 8000c78:	80000eb7          	lui	t4,0x80000
 8000c7c:	fffe8e9b          	addiw	t4,t4,-1
 8000c80:	00900193          	li	gp,9
 8000c84:	01d70463          	beq	a4,t4,8000c8c <test_10>
 8000c88:	4701106f          	j	80120f8 <fail>

0000000008000c8c <test_10>:
  TEST_RR_OP( 10, addw, 0xffffffff80007ffe, 0x000000007fffffff, 0x0000000000007fff );
 8000c8c:	800000b7          	lui	ra,0x80000
 8000c90:	fff0809b          	addiw	ra,ra,-1
 8000c94:	00008137          	lui	sp,0x8
 8000c98:	fff1011b          	addiw	sp,sp,-1
 8000c9c:	0020873b          	addw	a4,ra,sp
 8000ca0:	80008eb7          	lui	t4,0x80008
 8000ca4:	ffee8e9b          	addiw	t4,t4,-2
 8000ca8:	00a00193          	li	gp,10
 8000cac:	01d70463          	beq	a4,t4,8000cb4 <test_11>
 8000cb0:	4481106f          	j	80120f8 <fail>

0000000008000cb4 <test_11>:

  TEST_RR_OP( 11, addw, 0xffffffff80007fff, 0xffffffff80000000, 0x0000000000007fff );
 8000cb4:	800000b7          	lui	ra,0x80000
 8000cb8:	00008137          	lui	sp,0x8
 8000cbc:	fff1011b          	addiw	sp,sp,-1
 8000cc0:	0020873b          	addw	a4,ra,sp
 8000cc4:	80008eb7          	lui	t4,0x80008
 8000cc8:	fffe8e9b          	addiw	t4,t4,-1
 8000ccc:	00b00193          	li	gp,11
 8000cd0:	01d70463          	beq	a4,t4,8000cd8 <test_12>
 8000cd4:	4241106f          	j	80120f8 <fail>

0000000008000cd8 <test_12>:
  TEST_RR_OP( 12, addw, 0x000000007fff7fff, 0x000000007fffffff, 0xffffffffffff8000 );
 8000cd8:	800000b7          	lui	ra,0x80000
 8000cdc:	fff0809b          	addiw	ra,ra,-1
 8000ce0:	ffff8137          	lui	sp,0xffff8
 8000ce4:	0020873b          	addw	a4,ra,sp
 8000ce8:	7fff8eb7          	lui	t4,0x7fff8
 8000cec:	fffe8e9b          	addiw	t4,t4,-1
 8000cf0:	00c00193          	li	gp,12
 8000cf4:	01d70463          	beq	a4,t4,8000cfc <test_13>
 8000cf8:	4001106f          	j	80120f8 <fail>

0000000008000cfc <test_13>:

  TEST_RR_OP( 13, addw, 0xffffffffffffffff, 0x0000000000000000, 0xffffffffffffffff );
 8000cfc:	00000093          	li	ra,0
 8000d00:	fff00113          	li	sp,-1
 8000d04:	0020873b          	addw	a4,ra,sp
 8000d08:	fff00e93          	li	t4,-1
 8000d0c:	00d00193          	li	gp,13
 8000d10:	01d70463          	beq	a4,t4,8000d18 <test_14>
 8000d14:	3e41106f          	j	80120f8 <fail>

0000000008000d18 <test_14>:
  TEST_RR_OP( 14, addw, 0x0000000000000000, 0xffffffffffffffff, 0x0000000000000001 );
 8000d18:	fff00093          	li	ra,-1
 8000d1c:	00100113          	li	sp,1
 8000d20:	0020873b          	addw	a4,ra,sp
 8000d24:	00000e93          	li	t4,0
 8000d28:	00e00193          	li	gp,14
 8000d2c:	01d70463          	beq	a4,t4,8000d34 <test_15>
 8000d30:	3c81106f          	j	80120f8 <fail>

0000000008000d34 <test_15>:
  TEST_RR_OP( 15, addw, 0xfffffffffffffffe, 0xffffffffffffffff, 0xffffffffffffffff );
 8000d34:	fff00093          	li	ra,-1
 8000d38:	fff00113          	li	sp,-1
 8000d3c:	0020873b          	addw	a4,ra,sp
 8000d40:	ffe00e93          	li	t4,-2
 8000d44:	00f00193          	li	gp,15
 8000d48:	01d70463          	beq	a4,t4,8000d50 <test_16>
 8000d4c:	3ac1106f          	j	80120f8 <fail>

0000000008000d50 <test_16>:

  TEST_RR_OP( 16, addw, 0xffffffff80000000, 0x0000000000000001, 0x000000007fffffff );
 8000d50:	00100093          	li	ra,1
 8000d54:	80000137          	lui	sp,0x80000
 8000d58:	fff1011b          	addiw	sp,sp,-1
 8000d5c:	0020873b          	addw	a4,ra,sp
 8000d60:	80000eb7          	lui	t4,0x80000
 8000d64:	01000193          	li	gp,16
 8000d68:	01d70463          	beq	a4,t4,8000d70 <test_17>
 8000d6c:	38c1106f          	j	80120f8 <fail>

0000000008000d70 <test_17>:

  #-------------------------------------------------------------
  # Source/Destination tests
  #-------------------------------------------------------------

  TEST_RR_SRC1_EQ_DEST( 17, addw, 24, 13, 11 );
 8000d70:	00d00093          	li	ra,13
 8000d74:	00b00113          	li	sp,11
 8000d78:	002080bb          	addw	ra,ra,sp
 8000d7c:	01800e93          	li	t4,24
 8000d80:	01100193          	li	gp,17
 8000d84:	01d08463          	beq	ra,t4,8000d8c <test_18>
 8000d88:	3701106f          	j	80120f8 <fail>

0000000008000d8c <test_18>:
  TEST_RR_SRC2_EQ_DEST( 18, addw, 25, 14, 11 );
 8000d8c:	00e00093          	li	ra,14
 8000d90:	00b00113          	li	sp,11
 8000d94:	0020813b          	addw	sp,ra,sp
 8000d98:	01900e93          	li	t4,25
 8000d9c:	01200193          	li	gp,18
 8000da0:	01d10463          	beq	sp,t4,8000da8 <test_19>
 8000da4:	3541106f          	j	80120f8 <fail>

0000000008000da8 <test_19>:
  TEST_RR_SRC12_EQ_DEST( 19, addw, 26, 13 );
 8000da8:	00d00093          	li	ra,13
 8000dac:	001080bb          	addw	ra,ra,ra
 8000db0:	01a00e93          	li	t4,26
 8000db4:	01300193          	li	gp,19
 8000db8:	01d08463          	beq	ra,t4,8000dc0 <test_20>
 8000dbc:	33c1106f          	j	80120f8 <fail>

0000000008000dc0 <test_20>:

  #-------------------------------------------------------------
  # Bypassing tests
  #-------------------------------------------------------------

  TEST_RR_DEST_BYPASS( 20, 0, addw, 24, 13, 11 );
 8000dc0:	00000213          	li	tp,0
 8000dc4:	00d00093          	li	ra,13
 8000dc8:	00b00113          	li	sp,11
 8000dcc:	0020873b          	addw	a4,ra,sp
 8000dd0:	00070313          	mv	t1,a4
 8000dd4:	00120213          	addi	tp,tp,1 # 1 <u_mode_trap_table-0x8000003>
 8000dd8:	00200293          	li	t0,2
 8000ddc:	fe5214e3          	bne	tp,t0,8000dc4 <test_20+0x4>
 8000de0:	01800e93          	li	t4,24
 8000de4:	01400193          	li	gp,20
 8000de8:	01d30463          	beq	t1,t4,8000df0 <test_21>
 8000dec:	30c1106f          	j	80120f8 <fail>

0000000008000df0 <test_21>:
  TEST_RR_DEST_BYPASS( 21, 1, addw, 25, 14, 11 );
 8000df0:	00000213          	li	tp,0
 8000df4:	00e00093          	li	ra,14
 8000df8:	00b00113          	li	sp,11
 8000dfc:	0020873b          	addw	a4,ra,sp
 8000e00:	00000013          	nop
 8000e04:	00070313          	mv	t1,a4
 8000e08:	00120213          	addi	tp,tp,1 # 1 <u_mode_trap_table-0x8000003>
 8000e0c:	00200293          	li	t0,2
 8000e10:	fe5212e3          	bne	tp,t0,8000df4 <test_21+0x4>
 8000e14:	01900e93          	li	t4,25
 8000e18:	01500193          	li	gp,21
 8000e1c:	01d30463          	beq	t1,t4,8000e24 <test_22>
 8000e20:	2d81106f          	j	80120f8 <fail>

0000000008000e24 <test_22>:
  TEST_RR_DEST_BYPASS( 22, 2, addw, 26, 15, 11 );
 8000e24:	00000213          	li	tp,0
 8000e28:	00f00093          	li	ra,15
 8000e2c:	00b00113          	li	sp,11
 8000e30:	0020873b          	addw	a4,ra,sp
 8000e34:	00000013          	nop
 8000e38:	00000013          	nop
 8000e3c:	00070313          	mv	t1,a4
 8000e40:	00120213          	addi	tp,tp,1 # 1 <u_mode_trap_table-0x8000003>
 8000e44:	00200293          	li	t0,2
 8000e48:	fe5210e3          	bne	tp,t0,8000e28 <test_22+0x4>
 8000e4c:	01a00e93          	li	t4,26
 8000e50:	01600193          	li	gp,22
 8000e54:	01d30463          	beq	t1,t4,8000e5c <test_23>
 8000e58:	2a01106f          	j	80120f8 <fail>

0000000008000e5c <test_23>:

  TEST_RR_SRC12_BYPASS( 23, 0, 0, addw, 24, 13, 11 );
 8000e5c:	00000213          	li	tp,0
 8000e60:	00d00093          	li	ra,13
 8000e64:	00b00113          	li	sp,11
 8000e68:	0020873b          	addw	a4,ra,sp
 8000e6c:	00120213          	addi	tp,tp,1 # 1 <u_mode_trap_table-0x8000003>
 8000e70:	00200293          	li	t0,2
 8000e74:	fe5216e3          	bne	tp,t0,8000e60 <test_23+0x4>
 8000e78:	01800e93          	li	t4,24
 8000e7c:	01700193          	li	gp,23
 8000e80:	01d70463          	beq	a4,t4,8000e88 <test_24>
 8000e84:	2741106f          	j	80120f8 <fail>

0000000008000e88 <test_24>:
  TEST_RR_SRC12_BYPASS( 24, 0, 1, addw, 25, 14, 11 );
 8000e88:	00000213          	li	tp,0
 8000e8c:	00e00093          	li	ra,14
 8000e90:	00b00113          	li	sp,11
 8000e94:	00000013          	nop
 8000e98:	0020873b          	addw	a4,ra,sp
 8000e9c:	00120213          	addi	tp,tp,1 # 1 <u_mode_trap_table-0x8000003>
 8000ea0:	00200293          	li	t0,2
 8000ea4:	fe5214e3          	bne	tp,t0,8000e8c <test_24+0x4>
 8000ea8:	01900e93          	li	t4,25
 8000eac:	01800193          	li	gp,24
 8000eb0:	01d70463          	beq	a4,t4,8000eb8 <test_25>
 8000eb4:	2441106f          	j	80120f8 <fail>

0000000008000eb8 <test_25>:
  TEST_RR_SRC12_BYPASS( 25, 0, 2, addw, 26, 15, 11 );
 8000eb8:	00000213          	li	tp,0
 8000ebc:	00f00093          	li	ra,15
 8000ec0:	00b00113          	li	sp,11
 8000ec4:	00000013          	nop
 8000ec8:	00000013          	nop
 8000ecc:	0020873b          	addw	a4,ra,sp
 8000ed0:	00120213          	addi	tp,tp,1 # 1 <u_mode_trap_table-0x8000003>
 8000ed4:	00200293          	li	t0,2
 8000ed8:	fe5212e3          	bne	tp,t0,8000ebc <test_25+0x4>
 8000edc:	01a00e93          	li	t4,26
 8000ee0:	01900193          	li	gp,25
 8000ee4:	01d70463          	beq	a4,t4,8000eec <test_26>
 8000ee8:	2101106f          	j	80120f8 <fail>

0000000008000eec <test_26>:
  TEST_RR_SRC12_BYPASS( 26, 1, 0, addw, 24, 13, 11 );
 8000eec:	00000213          	li	tp,0
 8000ef0:	00d00093          	li	ra,13
 8000ef4:	00000013          	nop
 8000ef8:	00b00113          	li	sp,11
 8000efc:	0020873b          	addw	a4,ra,sp
 8000f00:	00120213          	addi	tp,tp,1 # 1 <u_mode_trap_table-0x8000003>
 8000f04:	00200293          	li	t0,2
 8000f08:	fe5214e3          	bne	tp,t0,8000ef0 <test_26+0x4>
 8000f0c:	01800e93          	li	t4,24
 8000f10:	01a00193          	li	gp,26
 8000f14:	01d70463          	beq	a4,t4,8000f1c <test_27>
 8000f18:	1e01106f          	j	80120f8 <fail>

0000000008000f1c <test_27>:
  TEST_RR_SRC12_BYPASS( 27, 1, 1, addw, 25, 14, 11 );
 8000f1c:	00000213          	li	tp,0
 8000f20:	00e00093          	li	ra,14
 8000f24:	00000013          	nop
 8000f28:	00b00113          	li	sp,11
 8000f2c:	00000013          	nop
 8000f30:	0020873b          	addw	a4,ra,sp
 8000f34:	00120213          	addi	tp,tp,1 # 1 <u_mode_trap_table-0x8000003>
 8000f38:	00200293          	li	t0,2
 8000f3c:	fe5212e3          	bne	tp,t0,8000f20 <test_27+0x4>
 8000f40:	01900e93          	li	t4,25
 8000f44:	01b00193          	li	gp,27
 8000f48:	01d70463          	beq	a4,t4,8000f50 <test_28>
 8000f4c:	1ac1106f          	j	80120f8 <fail>

0000000008000f50 <test_28>:
  TEST_RR_SRC12_BYPASS( 28, 2, 0, addw, 26, 15, 11 );
 8000f50:	00000213          	li	tp,0
 8000f54:	00f00093          	li	ra,15
 8000f58:	00000013          	nop
 8000f5c:	00000013          	nop
 8000f60:	00b00113          	li	sp,11
 8000f64:	0020873b          	addw	a4,ra,sp
 8000f68:	00120213          	addi	tp,tp,1 # 1 <u_mode_trap_table-0x8000003>
 8000f6c:	00200293          	li	t0,2
 8000f70:	fe5212e3          	bne	tp,t0,8000f54 <test_28+0x4>
 8000f74:	01a00e93          	li	t4,26
 8000f78:	01c00193          	li	gp,28
 8000f7c:	01d70463          	beq	a4,t4,8000f84 <test_29>
 8000f80:	1781106f          	j	80120f8 <fail>

0000000008000f84 <test_29>:

  TEST_RR_SRC21_BYPASS( 29, 0, 0, addw, 24, 13, 11 );
 8000f84:	00000213          	li	tp,0
 8000f88:	00b00113          	li	sp,11
 8000f8c:	00d00093          	li	ra,13
 8000f90:	0020873b          	addw	a4,ra,sp
 8000f94:	00120213          	addi	tp,tp,1 # 1 <u_mode_trap_table-0x8000003>
 8000f98:	00200293          	li	t0,2
 8000f9c:	fe5216e3          	bne	tp,t0,8000f88 <test_29+0x4>
 8000fa0:	01800e93          	li	t4,24
 8000fa4:	01d00193          	li	gp,29
 8000fa8:	01d70463          	beq	a4,t4,8000fb0 <test_30>
 8000fac:	14c1106f          	j	80120f8 <fail>

0000000008000fb0 <test_30>:
  TEST_RR_SRC21_BYPASS( 30, 0, 1, addw, 25, 14, 11 );
 8000fb0:	00000213          	li	tp,0
 8000fb4:	00b00113          	li	sp,11
 8000fb8:	00e00093          	li	ra,14
 8000fbc:	00000013          	nop
 8000fc0:	0020873b          	addw	a4,ra,sp
 8000fc4:	00120213          	addi	tp,tp,1 # 1 <u_mode_trap_table-0x8000003>
 8000fc8:	00200293          	li	t0,2
 8000fcc:	fe5214e3          	bne	tp,t0,8000fb4 <test_30+0x4>
 8000fd0:	01900e93          	li	t4,25
 8000fd4:	01e00193          	li	gp,30
 8000fd8:	01d70463          	beq	a4,t4,8000fe0 <test_31>
 8000fdc:	11c1106f          	j	80120f8 <fail>

0000000008000fe0 <test_31>:
  TEST_RR_SRC21_BYPASS( 31, 0, 2, addw, 26, 15, 11 );
 8000fe0:	00000213          	li	tp,0
 8000fe4:	00b00113          	li	sp,11
 8000fe8:	00f00093          	li	ra,15
 8000fec:	00000013          	nop
 8000ff0:	00000013          	nop
 8000ff4:	0020873b          	addw	a4,ra,sp
 8000ff8:	00120213          	addi	tp,tp,1 # 1 <u_mode_trap_table-0x8000003>
 8000ffc:	00200293          	li	t0,2
 8001000:	fe5212e3          	bne	tp,t0,8000fe4 <test_31+0x4>
 8001004:	01a00e93          	li	t4,26
 8001008:	01f00193          	li	gp,31
 800100c:	01d70463          	beq	a4,t4,8001014 <test_32>
 8001010:	0e81106f          	j	80120f8 <fail>

0000000008001014 <test_32>:
  TEST_RR_SRC21_BYPASS( 32, 1, 0, addw, 24, 13, 11 );
 8001014:	00000213          	li	tp,0
 8001018:	00b00113          	li	sp,11
 800101c:	00000013          	nop
 8001020:	00d00093          	li	ra,13
 8001024:	0020873b          	addw	a4,ra,sp
 8001028:	00120213          	addi	tp,tp,1 # 1 <u_mode_trap_table-0x8000003>
 800102c:	00200293          	li	t0,2
 8001030:	fe5214e3          	bne	tp,t0,8001018 <test_32+0x4>
 8001034:	01800e93          	li	t4,24
 8001038:	02000193          	li	gp,32
 800103c:	01d70463          	beq	a4,t4,8001044 <test_33>
 8001040:	0b81106f          	j	80120f8 <fail>

0000000008001044 <test_33>:
  TEST_RR_SRC21_BYPASS( 33, 1, 1, addw, 25, 14, 11 );
 8001044:	00000213          	li	tp,0
 8001048:	00b00113          	li	sp,11
 800104c:	00000013          	nop
 8001050:	00e00093          	li	ra,14
 8001054:	00000013          	nop
 8001058:	0020873b          	addw	a4,ra,sp
 800105c:	00120213          	addi	tp,tp,1 # 1 <u_mode_trap_table-0x8000003>
 8001060:	00200293          	li	t0,2
 8001064:	fe5212e3          	bne	tp,t0,8001048 <test_33+0x4>
 8001068:	01900e93          	li	t4,25
 800106c:	02100193          	li	gp,33
 8001070:	01d70463          	beq	a4,t4,8001078 <test_34>
 8001074:	0841106f          	j	80120f8 <fail>

0000000008001078 <test_34>:
  TEST_RR_SRC21_BYPASS( 34, 2, 0, addw, 26, 15, 11 );
 8001078:	00000213          	li	tp,0
 800107c:	00b00113          	li	sp,11
 8001080:	00000013          	nop
 8001084:	00000013          	nop
 8001088:	00f00093          	li	ra,15
 800108c:	0020873b          	addw	a4,ra,sp
 8001090:	00120213          	addi	tp,tp,1 # 1 <u_mode_trap_table-0x8000003>
 8001094:	00200293          	li	t0,2
 8001098:	fe5212e3          	bne	tp,t0,800107c <test_34+0x4>
 800109c:	01a00e93          	li	t4,26
 80010a0:	02200193          	li	gp,34
 80010a4:	01d70463          	beq	a4,t4,80010ac <test_35>
 80010a8:	0501106f          	j	80120f8 <fail>

00000000080010ac <test_35>:

  TEST_RR_ZEROSRC1( 35, addw, 15, 15 );
 80010ac:	00f00093          	li	ra,15
 80010b0:	0010013b          	addw	sp,zero,ra
 80010b4:	00f00e93          	li	t4,15
 80010b8:	02300193          	li	gp,35
 80010bc:	01d10463          	beq	sp,t4,80010c4 <test_36>
 80010c0:	0381106f          	j	80120f8 <fail>

00000000080010c4 <test_36>:
  TEST_RR_ZEROSRC2( 36, addw, 32, 32 );
 80010c4:	02000093          	li	ra,32
 80010c8:	0000813b          	addw	sp,ra,zero
 80010cc:	02000e93          	li	t4,32
 80010d0:	02400193          	li	gp,36
 80010d4:	01d10463          	beq	sp,t4,80010dc <test_37>
 80010d8:	0201106f          	j	80120f8 <fail>

00000000080010dc <test_37>:
  TEST_RR_ZEROSRC12( 37, addw, 0 );
 80010dc:	000000bb          	addw	ra,zero,zero
 80010e0:	00000e93          	li	t4,0
 80010e4:	02500193          	li	gp,37
 80010e8:	01d08463          	beq	ra,t4,80010f0 <test_38>
 80010ec:	00c1106f          	j	80120f8 <fail>

00000000080010f0 <test_38>:
  TEST_RR_ZERODEST( 38, addw, 16, 30 );
 80010f0:	01000093          	li	ra,16
 80010f4:	01e00113          	li	sp,30
 80010f8:	0020803b          	addw	zero,ra,sp
 80010fc:	00000e93          	li	t4,0
 8001100:	02600193          	li	gp,38
 8001104:	01d00463          	beq	zero,t4,800110c <test_38+0x1c>
 8001108:	7f11006f          	j	80120f8 <fail>

  TEST_PASSFAIL

RVTEST_CODE_END
 800110c:	c0001073          	unimp

0000000008001110 <test_2>:

  #-------------------------------------------------------------
  # Logical tests
  #-------------------------------------------------------------

  TEST_RR_OP( 2, and, 0x0f000f00, 0xff00ff00, 0x0f0f0f0f );
 8001110:	000100b7          	lui	ra,0x10
 8001114:	f010809b          	addiw	ra,ra,-255
 8001118:	01009093          	slli	ra,ra,0x10
 800111c:	f0008093          	addi	ra,ra,-256 # ff00 <u_mode_trap_table-0x7ff0104>
 8001120:	0f0f1137          	lui	sp,0xf0f1
 8001124:	f0f1011b          	addiw	sp,sp,-241
 8001128:	0020f733          	and	a4,ra,sp
 800112c:	0f001eb7          	lui	t4,0xf001
 8001130:	f00e8e9b          	addiw	t4,t4,-256
 8001134:	00200193          	li	gp,2
 8001138:	01d70463          	beq	a4,t4,8001140 <test_3>
 800113c:	7bd1006f          	j	80120f8 <fail>

0000000008001140 <test_3>:
  TEST_RR_OP( 3, and, 0x00f000f0, 0x0ff00ff0, 0xf0f0f0f0 );
 8001140:	0ff010b7          	lui	ra,0xff01
 8001144:	ff00809b          	addiw	ra,ra,-16
 8001148:	000f1137          	lui	sp,0xf1
 800114c:	f0f1011b          	addiw	sp,sp,-241
 8001150:	00c11113          	slli	sp,sp,0xc
 8001154:	0f010113          	addi	sp,sp,240 # f10f0 <u_mode_trap_table-0x7f0ef14>
 8001158:	0020f733          	and	a4,ra,sp
 800115c:	00f00eb7          	lui	t4,0xf00
 8001160:	0f0e8e9b          	addiw	t4,t4,240
 8001164:	00300193          	li	gp,3
 8001168:	01d70463          	beq	a4,t4,8001170 <test_4>
 800116c:	78d1006f          	j	80120f8 <fail>

0000000008001170 <test_4>:
  TEST_RR_OP( 4, and, 0x000f000f, 0x00ff00ff, 0x0f0f0f0f );
 8001170:	00ff00b7          	lui	ra,0xff0
 8001174:	0ff0809b          	addiw	ra,ra,255
 8001178:	0f0f1137          	lui	sp,0xf0f1
 800117c:	f0f1011b          	addiw	sp,sp,-241
 8001180:	0020f733          	and	a4,ra,sp
 8001184:	000f0eb7          	lui	t4,0xf0
 8001188:	00fe8e9b          	addiw	t4,t4,15
 800118c:	00400193          	li	gp,4
 8001190:	01d70463          	beq	a4,t4,8001198 <test_5>
 8001194:	7651006f          	j	80120f8 <fail>

0000000008001198 <test_5>:
  TEST_RR_OP( 5, and, 0xf000f000, 0xf00ff00f, 0xf0f0f0f0 );
 8001198:	000f00b7          	lui	ra,0xf0
 800119c:	0ff0809b          	addiw	ra,ra,255
 80011a0:	00c09093          	slli	ra,ra,0xc
 80011a4:	00f08093          	addi	ra,ra,15 # f000f <u_mode_trap_table-0x7f0fff5>
 80011a8:	000f1137          	lui	sp,0xf1
 80011ac:	f0f1011b          	addiw	sp,sp,-241
 80011b0:	00c11113          	slli	sp,sp,0xc
 80011b4:	0f010113          	addi	sp,sp,240 # f10f0 <u_mode_trap_table-0x7f0ef14>
 80011b8:	0020f733          	and	a4,ra,sp
 80011bc:	000f0eb7          	lui	t4,0xf0
 80011c0:	00fe8e9b          	addiw	t4,t4,15
 80011c4:	00ce9e93          	slli	t4,t4,0xc
 80011c8:	00500193          	li	gp,5
 80011cc:	01d70463          	beq	a4,t4,80011d4 <test_6>
 80011d0:	7291006f          	j	80120f8 <fail>

00000000080011d4 <test_6>:

  #-------------------------------------------------------------
  # Source/Destination tests
  #-------------------------------------------------------------

  TEST_RR_SRC1_EQ_DEST( 6, and, 0x0f000f00, 0xff00ff00, 0x0f0f0f0f );
 80011d4:	000100b7          	lui	ra,0x10
 80011d8:	f010809b          	addiw	ra,ra,-255
 80011dc:	01009093          	slli	ra,ra,0x10
 80011e0:	f0008093          	addi	ra,ra,-256 # ff00 <u_mode_trap_table-0x7ff0104>
 80011e4:	0f0f1137          	lui	sp,0xf0f1
 80011e8:	f0f1011b          	addiw	sp,sp,-241
 80011ec:	0020f0b3          	and	ra,ra,sp
 80011f0:	0f001eb7          	lui	t4,0xf001
 80011f4:	f00e8e9b          	addiw	t4,t4,-256
 80011f8:	00600193          	li	gp,6
 80011fc:	01d08463          	beq	ra,t4,8001204 <test_7>
 8001200:	6f91006f          	j	80120f8 <fail>

0000000008001204 <test_7>:
  TEST_RR_SRC2_EQ_DEST( 7, and, 0x00f000f0, 0x0ff00ff0, 0xf0f0f0f0 );
 8001204:	0ff010b7          	lui	ra,0xff01
 8001208:	ff00809b          	addiw	ra,ra,-16
 800120c:	000f1137          	lui	sp,0xf1
 8001210:	f0f1011b          	addiw	sp,sp,-241
 8001214:	00c11113          	slli	sp,sp,0xc
 8001218:	0f010113          	addi	sp,sp,240 # f10f0 <u_mode_trap_table-0x7f0ef14>
 800121c:	0020f133          	and	sp,ra,sp
 8001220:	00f00eb7          	lui	t4,0xf00
 8001224:	0f0e8e9b          	addiw	t4,t4,240
 8001228:	00700193          	li	gp,7
 800122c:	01d10463          	beq	sp,t4,8001234 <test_8>
 8001230:	6c91006f          	j	80120f8 <fail>

0000000008001234 <test_8>:
  TEST_RR_SRC12_EQ_DEST( 8, and, 0xff00ff00, 0xff00ff00 );
 8001234:	000100b7          	lui	ra,0x10
 8001238:	f010809b          	addiw	ra,ra,-255
 800123c:	01009093          	slli	ra,ra,0x10
 8001240:	f0008093          	addi	ra,ra,-256 # ff00 <u_mode_trap_table-0x7ff0104>
 8001244:	0010f0b3          	and	ra,ra,ra
 8001248:	00010eb7          	lui	t4,0x10
 800124c:	f01e8e9b          	addiw	t4,t4,-255
 8001250:	010e9e93          	slli	t4,t4,0x10
 8001254:	f00e8e93          	addi	t4,t4,-256 # ff00 <u_mode_trap_table-0x7ff0104>
 8001258:	00800193          	li	gp,8
 800125c:	01d08463          	beq	ra,t4,8001264 <test_9>
 8001260:	6991006f          	j	80120f8 <fail>

0000000008001264 <test_9>:

  #-------------------------------------------------------------
  # Bypassing tests
  #-------------------------------------------------------------

  TEST_RR_DEST_BYPASS( 9,  0, and, 0x0f000f00, 0xff00ff00, 0x0f0f0f0f );
 8001264:	00000213          	li	tp,0
 8001268:	000100b7          	lui	ra,0x10
 800126c:	f010809b          	addiw	ra,ra,-255
 8001270:	01009093          	slli	ra,ra,0x10
 8001274:	f0008093          	addi	ra,ra,-256 # ff00 <u_mode_trap_table-0x7ff0104>
 8001278:	0f0f1137          	lui	sp,0xf0f1
 800127c:	f0f1011b          	addiw	sp,sp,-241
 8001280:	0020f733          	and	a4,ra,sp
 8001284:	00070313          	mv	t1,a4
 8001288:	00120213          	addi	tp,tp,1 # 1 <u_mode_trap_table-0x8000003>
 800128c:	00200293          	li	t0,2
 8001290:	fc521ce3          	bne	tp,t0,8001268 <test_9+0x4>
 8001294:	0f001eb7          	lui	t4,0xf001
 8001298:	f00e8e9b          	addiw	t4,t4,-256
 800129c:	00900193          	li	gp,9
 80012a0:	01d30463          	beq	t1,t4,80012a8 <test_10>
 80012a4:	6551006f          	j	80120f8 <fail>

00000000080012a8 <test_10>:
  TEST_RR_DEST_BYPASS( 10, 1, and, 0x00f000f0, 0x0ff00ff0, 0xf0f0f0f0 );
 80012a8:	00000213          	li	tp,0
 80012ac:	0ff010b7          	lui	ra,0xff01
 80012b0:	ff00809b          	addiw	ra,ra,-16
 80012b4:	000f1137          	lui	sp,0xf1
 80012b8:	f0f1011b          	addiw	sp,sp,-241
 80012bc:	00c11113          	slli	sp,sp,0xc
 80012c0:	0f010113          	addi	sp,sp,240 # f10f0 <u_mode_trap_table-0x7f0ef14>
 80012c4:	0020f733          	and	a4,ra,sp
 80012c8:	00000013          	nop
 80012cc:	00070313          	mv	t1,a4
 80012d0:	00120213          	addi	tp,tp,1 # 1 <u_mode_trap_table-0x8000003>
 80012d4:	00200293          	li	t0,2
 80012d8:	fc521ae3          	bne	tp,t0,80012ac <test_10+0x4>
 80012dc:	00f00eb7          	lui	t4,0xf00
 80012e0:	0f0e8e9b          	addiw	t4,t4,240
 80012e4:	00a00193          	li	gp,10
 80012e8:	01d30463          	beq	t1,t4,80012f0 <test_11>
 80012ec:	60d1006f          	j	80120f8 <fail>

00000000080012f0 <test_11>:
  TEST_RR_DEST_BYPASS( 11, 2, and, 0x000f000f, 0x00ff00ff, 0x0f0f0f0f );
 80012f0:	00000213          	li	tp,0
 80012f4:	00ff00b7          	lui	ra,0xff0
 80012f8:	0ff0809b          	addiw	ra,ra,255
 80012fc:	0f0f1137          	lui	sp,0xf0f1
 8001300:	f0f1011b          	addiw	sp,sp,-241
 8001304:	0020f733          	and	a4,ra,sp
 8001308:	00000013          	nop
 800130c:	00000013          	nop
 8001310:	00070313          	mv	t1,a4
 8001314:	00120213          	addi	tp,tp,1 # 1 <u_mode_trap_table-0x8000003>
 8001318:	00200293          	li	t0,2
 800131c:	fc521ce3          	bne	tp,t0,80012f4 <test_11+0x4>
 8001320:	000f0eb7          	lui	t4,0xf0
 8001324:	00fe8e9b          	addiw	t4,t4,15
 8001328:	00b00193          	li	gp,11
 800132c:	01d30463          	beq	t1,t4,8001334 <test_12>
 8001330:	5c91006f          	j	80120f8 <fail>

0000000008001334 <test_12>:

  TEST_RR_SRC12_BYPASS( 12, 0, 0, and, 0x0f000f00, 0xff00ff00, 0x0f0f0f0f );
 8001334:	00000213          	li	tp,0
 8001338:	000100b7          	lui	ra,0x10
 800133c:	f010809b          	addiw	ra,ra,-255
 8001340:	01009093          	slli	ra,ra,0x10
 8001344:	f0008093          	addi	ra,ra,-256 # ff00 <u_mode_trap_table-0x7ff0104>
 8001348:	0f0f1137          	lui	sp,0xf0f1
 800134c:	f0f1011b          	addiw	sp,sp,-241
 8001350:	0020f733          	and	a4,ra,sp
 8001354:	00120213          	addi	tp,tp,1 # 1 <u_mode_trap_table-0x8000003>
 8001358:	00200293          	li	t0,2
 800135c:	fc521ee3          	bne	tp,t0,8001338 <test_12+0x4>
 8001360:	0f001eb7          	lui	t4,0xf001
 8001364:	f00e8e9b          	addiw	t4,t4,-256
 8001368:	00c00193          	li	gp,12
 800136c:	01d70463          	beq	a4,t4,8001374 <test_13>
 8001370:	5891006f          	j	80120f8 <fail>

0000000008001374 <test_13>:
  TEST_RR_SRC12_BYPASS( 13, 0, 1, and, 0x00f000f0, 0x0ff00ff0, 0xf0f0f0f0 );
 8001374:	00000213          	li	tp,0
 8001378:	0ff010b7          	lui	ra,0xff01
 800137c:	ff00809b          	addiw	ra,ra,-16
 8001380:	000f1137          	lui	sp,0xf1
 8001384:	f0f1011b          	addiw	sp,sp,-241
 8001388:	00c11113          	slli	sp,sp,0xc
 800138c:	0f010113          	addi	sp,sp,240 # f10f0 <u_mode_trap_table-0x7f0ef14>
 8001390:	00000013          	nop
 8001394:	0020f733          	and	a4,ra,sp
 8001398:	00120213          	addi	tp,tp,1 # 1 <u_mode_trap_table-0x8000003>
 800139c:	00200293          	li	t0,2
 80013a0:	fc521ce3          	bne	tp,t0,8001378 <test_13+0x4>
 80013a4:	00f00eb7          	lui	t4,0xf00
 80013a8:	0f0e8e9b          	addiw	t4,t4,240
 80013ac:	00d00193          	li	gp,13
 80013b0:	01d70463          	beq	a4,t4,80013b8 <test_14>
 80013b4:	5451006f          	j	80120f8 <fail>

00000000080013b8 <test_14>:
  TEST_RR_SRC12_BYPASS( 14, 0, 2, and, 0x000f000f, 0x00ff00ff, 0x0f0f0f0f );
 80013b8:	00000213          	li	tp,0
 80013bc:	00ff00b7          	lui	ra,0xff0
 80013c0:	0ff0809b          	addiw	ra,ra,255
 80013c4:	0f0f1137          	lui	sp,0xf0f1
 80013c8:	f0f1011b          	addiw	sp,sp,-241
 80013cc:	00000013          	nop
 80013d0:	00000013          	nop
 80013d4:	0020f733          	and	a4,ra,sp
 80013d8:	00120213          	addi	tp,tp,1 # 1 <u_mode_trap_table-0x8000003>
 80013dc:	00200293          	li	t0,2
 80013e0:	fc521ee3          	bne	tp,t0,80013bc <test_14+0x4>
 80013e4:	000f0eb7          	lui	t4,0xf0
 80013e8:	00fe8e9b          	addiw	t4,t4,15
 80013ec:	00e00193          	li	gp,14
 80013f0:	01d70463          	beq	a4,t4,80013f8 <test_15>
 80013f4:	5051006f          	j	80120f8 <fail>

00000000080013f8 <test_15>:
  TEST_RR_SRC12_BYPASS( 15, 1, 0, and, 0x0f000f00, 0xff00ff00, 0x0f0f0f0f );
 80013f8:	00000213          	li	tp,0
 80013fc:	000100b7          	lui	ra,0x10
 8001400:	f010809b          	addiw	ra,ra,-255
 8001404:	01009093          	slli	ra,ra,0x10
 8001408:	f0008093          	addi	ra,ra,-256 # ff00 <u_mode_trap_table-0x7ff0104>
 800140c:	00000013          	nop
 8001410:	0f0f1137          	lui	sp,0xf0f1
 8001414:	f0f1011b          	addiw	sp,sp,-241
 8001418:	0020f733          	and	a4,ra,sp
 800141c:	00120213          	addi	tp,tp,1 # 1 <u_mode_trap_table-0x8000003>
 8001420:	00200293          	li	t0,2
 8001424:	fc521ce3          	bne	tp,t0,80013fc <test_15+0x4>
 8001428:	0f001eb7          	lui	t4,0xf001
 800142c:	f00e8e9b          	addiw	t4,t4,-256
 8001430:	00f00193          	li	gp,15
 8001434:	01d70463          	beq	a4,t4,800143c <test_16>
 8001438:	4c11006f          	j	80120f8 <fail>

000000000800143c <test_16>:
  TEST_RR_SRC12_BYPASS( 16, 1, 1, and, 0x00f000f0, 0x0ff00ff0, 0xf0f0f0f0 );
 800143c:	00000213          	li	tp,0
 8001440:	0ff010b7          	lui	ra,0xff01
 8001444:	ff00809b          	addiw	ra,ra,-16
 8001448:	00000013          	nop
 800144c:	000f1137          	lui	sp,0xf1
 8001450:	f0f1011b          	addiw	sp,sp,-241
 8001454:	00c11113          	slli	sp,sp,0xc
 8001458:	0f010113          	addi	sp,sp,240 # f10f0 <u_mode_trap_table-0x7f0ef14>
 800145c:	00000013          	nop
 8001460:	0020f733          	and	a4,ra,sp
 8001464:	00120213          	addi	tp,tp,1 # 1 <u_mode_trap_table-0x8000003>
 8001468:	00200293          	li	t0,2
 800146c:	fc521ae3          	bne	tp,t0,8001440 <test_16+0x4>
 8001470:	00f00eb7          	lui	t4,0xf00
 8001474:	0f0e8e9b          	addiw	t4,t4,240
 8001478:	01000193          	li	gp,16
 800147c:	01d70463          	beq	a4,t4,8001484 <test_17>
 8001480:	4791006f          	j	80120f8 <fail>

0000000008001484 <test_17>:
  TEST_RR_SRC12_BYPASS( 17, 2, 0, and, 0x000f000f, 0x00ff00ff, 0x0f0f0f0f );
 8001484:	00000213          	li	tp,0
 8001488:	00ff00b7          	lui	ra,0xff0
 800148c:	0ff0809b          	addiw	ra,ra,255
 8001490:	00000013          	nop
 8001494:	00000013          	nop
 8001498:	0f0f1137          	lui	sp,0xf0f1
 800149c:	f0f1011b          	addiw	sp,sp,-241
 80014a0:	0020f733          	and	a4,ra,sp
 80014a4:	00120213          	addi	tp,tp,1 # 1 <u_mode_trap_table-0x8000003>
 80014a8:	00200293          	li	t0,2
 80014ac:	fc521ee3          	bne	tp,t0,8001488 <test_17+0x4>
 80014b0:	000f0eb7          	lui	t4,0xf0
 80014b4:	00fe8e9b          	addiw	t4,t4,15
 80014b8:	01100193          	li	gp,17
 80014bc:	01d70463          	beq	a4,t4,80014c4 <test_18>
 80014c0:	4391006f          	j	80120f8 <fail>

00000000080014c4 <test_18>:

  TEST_RR_SRC21_BYPASS( 18, 0, 0, and, 0x0f000f00, 0xff00ff00, 0x0f0f0f0f );
 80014c4:	00000213          	li	tp,0
 80014c8:	0f0f1137          	lui	sp,0xf0f1
 80014cc:	f0f1011b          	addiw	sp,sp,-241
 80014d0:	000100b7          	lui	ra,0x10
 80014d4:	f010809b          	addiw	ra,ra,-255
 80014d8:	01009093          	slli	ra,ra,0x10
 80014dc:	f0008093          	addi	ra,ra,-256 # ff00 <u_mode_trap_table-0x7ff0104>
 80014e0:	0020f733          	and	a4,ra,sp
 80014e4:	00120213          	addi	tp,tp,1 # 1 <u_mode_trap_table-0x8000003>
 80014e8:	00200293          	li	t0,2
 80014ec:	fc521ee3          	bne	tp,t0,80014c8 <test_18+0x4>
 80014f0:	0f001eb7          	lui	t4,0xf001
 80014f4:	f00e8e9b          	addiw	t4,t4,-256
 80014f8:	01200193          	li	gp,18
 80014fc:	01d70463          	beq	a4,t4,8001504 <test_19>
 8001500:	3f91006f          	j	80120f8 <fail>

0000000008001504 <test_19>:
  TEST_RR_SRC21_BYPASS( 19, 0, 1, and, 0x00f000f0, 0x0ff00ff0, 0xf0f0f0f0 );
 8001504:	00000213          	li	tp,0
 8001508:	000f1137          	lui	sp,0xf1
 800150c:	f0f1011b          	addiw	sp,sp,-241
 8001510:	00c11113          	slli	sp,sp,0xc
 8001514:	0f010113          	addi	sp,sp,240 # f10f0 <u_mode_trap_table-0x7f0ef14>
 8001518:	0ff010b7          	lui	ra,0xff01
 800151c:	ff00809b          	addiw	ra,ra,-16
 8001520:	00000013          	nop
 8001524:	0020f733          	and	a4,ra,sp
 8001528:	00120213          	addi	tp,tp,1 # 1 <u_mode_trap_table-0x8000003>
 800152c:	00200293          	li	t0,2
 8001530:	fc521ce3          	bne	tp,t0,8001508 <test_19+0x4>
 8001534:	00f00eb7          	lui	t4,0xf00
 8001538:	0f0e8e9b          	addiw	t4,t4,240
 800153c:	01300193          	li	gp,19
 8001540:	01d70463          	beq	a4,t4,8001548 <test_20>
 8001544:	3b51006f          	j	80120f8 <fail>

0000000008001548 <test_20>:
  TEST_RR_SRC21_BYPASS( 20, 0, 2, and, 0x000f000f, 0x00ff00ff, 0x0f0f0f0f );
 8001548:	00000213          	li	tp,0
 800154c:	0f0f1137          	lui	sp,0xf0f1
 8001550:	f0f1011b          	addiw	sp,sp,-241
 8001554:	00ff00b7          	lui	ra,0xff0
 8001558:	0ff0809b          	addiw	ra,ra,255
 800155c:	00000013          	nop
 8001560:	00000013          	nop
 8001564:	0020f733          	and	a4,ra,sp
 8001568:	00120213          	addi	tp,tp,1 # 1 <u_mode_trap_table-0x8000003>
 800156c:	00200293          	li	t0,2
 8001570:	fc521ee3          	bne	tp,t0,800154c <test_20+0x4>
 8001574:	000f0eb7          	lui	t4,0xf0
 8001578:	00fe8e9b          	addiw	t4,t4,15
 800157c:	01400193          	li	gp,20
 8001580:	01d70463          	beq	a4,t4,8001588 <test_21>
 8001584:	3751006f          	j	80120f8 <fail>

0000000008001588 <test_21>:
  TEST_RR_SRC21_BYPASS( 21, 1, 0, and, 0x0f000f00, 0xff00ff00, 0x0f0f0f0f );
 8001588:	00000213          	li	tp,0
 800158c:	0f0f1137          	lui	sp,0xf0f1
 8001590:	f0f1011b          	addiw	sp,sp,-241
 8001594:	00000013          	nop
 8001598:	000100b7          	lui	ra,0x10
 800159c:	f010809b          	addiw	ra,ra,-255
 80015a0:	01009093          	slli	ra,ra,0x10
 80015a4:	f0008093          	addi	ra,ra,-256 # ff00 <u_mode_trap_table-0x7ff0104>
 80015a8:	0020f733          	and	a4,ra,sp
 80015ac:	00120213          	addi	tp,tp,1 # 1 <u_mode_trap_table-0x8000003>
 80015b0:	00200293          	li	t0,2
 80015b4:	fc521ce3          	bne	tp,t0,800158c <test_21+0x4>
 80015b8:	0f001eb7          	lui	t4,0xf001
 80015bc:	f00e8e9b          	addiw	t4,t4,-256
 80015c0:	01500193          	li	gp,21
 80015c4:	01d70463          	beq	a4,t4,80015cc <test_22>
 80015c8:	3311006f          	j	80120f8 <fail>

00000000080015cc <test_22>:
  TEST_RR_SRC21_BYPASS( 22, 1, 1, and, 0x00f000f0, 0x0ff00ff0, 0xf0f0f0f0 );
 80015cc:	00000213          	li	tp,0
 80015d0:	000f1137          	lui	sp,0xf1
 80015d4:	f0f1011b          	addiw	sp,sp,-241
 80015d8:	00c11113          	slli	sp,sp,0xc
 80015dc:	0f010113          	addi	sp,sp,240 # f10f0 <u_mode_trap_table-0x7f0ef14>
 80015e0:	00000013          	nop
 80015e4:	0ff010b7          	lui	ra,0xff01
 80015e8:	ff00809b          	addiw	ra,ra,-16
 80015ec:	00000013          	nop
 80015f0:	0020f733          	and	a4,ra,sp
 80015f4:	00120213          	addi	tp,tp,1 # 1 <u_mode_trap_table-0x8000003>
 80015f8:	00200293          	li	t0,2
 80015fc:	fc521ae3          	bne	tp,t0,80015d0 <test_22+0x4>
 8001600:	00f00eb7          	lui	t4,0xf00
 8001604:	0f0e8e9b          	addiw	t4,t4,240
 8001608:	01600193          	li	gp,22
 800160c:	01d70463          	beq	a4,t4,8001614 <test_23>
 8001610:	2e91006f          	j	80120f8 <fail>

0000000008001614 <test_23>:
  TEST_RR_SRC21_BYPASS( 23, 2, 0, and, 0x000f000f, 0x00ff00ff, 0x0f0f0f0f );
 8001614:	00000213          	li	tp,0
 8001618:	0f0f1137          	lui	sp,0xf0f1
 800161c:	f0f1011b          	addiw	sp,sp,-241
 8001620:	00000013          	nop
 8001624:	00000013          	nop
 8001628:	00ff00b7          	lui	ra,0xff0
 800162c:	0ff0809b          	addiw	ra,ra,255
 8001630:	0020f733          	and	a4,ra,sp
 8001634:	00120213          	addi	tp,tp,1 # 1 <u_mode_trap_table-0x8000003>
 8001638:	00200293          	li	t0,2
 800163c:	fc521ee3          	bne	tp,t0,8001618 <test_23+0x4>
 8001640:	000f0eb7          	lui	t4,0xf0
 8001644:	00fe8e9b          	addiw	t4,t4,15
 8001648:	01700193          	li	gp,23
 800164c:	01d70463          	beq	a4,t4,8001654 <test_24>
 8001650:	2a91006f          	j	80120f8 <fail>

0000000008001654 <test_24>:

  TEST_RR_ZEROSRC1( 24, and, 0, 0xff00ff00 );
 8001654:	000100b7          	lui	ra,0x10
 8001658:	f010809b          	addiw	ra,ra,-255
 800165c:	01009093          	slli	ra,ra,0x10
 8001660:	f0008093          	addi	ra,ra,-256 # ff00 <u_mode_trap_table-0x7ff0104>
 8001664:	00107133          	and	sp,zero,ra
 8001668:	00000e93          	li	t4,0
 800166c:	01800193          	li	gp,24
 8001670:	01d10463          	beq	sp,t4,8001678 <test_25>
 8001674:	2851006f          	j	80120f8 <fail>

0000000008001678 <test_25>:
  TEST_RR_ZEROSRC2( 25, and, 0, 0x00ff00ff );
 8001678:	00ff00b7          	lui	ra,0xff0
 800167c:	0ff0809b          	addiw	ra,ra,255
 8001680:	0000f133          	and	sp,ra,zero
 8001684:	00000e93          	li	t4,0
 8001688:	01900193          	li	gp,25
 800168c:	01d10463          	beq	sp,t4,8001694 <test_26>
 8001690:	2691006f          	j	80120f8 <fail>

0000000008001694 <test_26>:
  TEST_RR_ZEROSRC12( 26, and, 0 );
 8001694:	000070b3          	and	ra,zero,zero
 8001698:	00000e93          	li	t4,0
 800169c:	01a00193          	li	gp,26
 80016a0:	01d08463          	beq	ra,t4,80016a8 <test_27>
 80016a4:	2551006f          	j	80120f8 <fail>

00000000080016a8 <test_27>:
  TEST_RR_ZERODEST( 27, and, 0x11111111, 0x22222222 );
 80016a8:	111110b7          	lui	ra,0x11111
 80016ac:	1110809b          	addiw	ra,ra,273
 80016b0:	22222137          	lui	sp,0x22222
 80016b4:	2221011b          	addiw	sp,sp,546
 80016b8:	0020f033          	and	zero,ra,sp
 80016bc:	00000e93          	li	t4,0
 80016c0:	01b00193          	li	gp,27
 80016c4:	01d00463          	beq	zero,t4,80016cc <test_27+0x24>
 80016c8:	2311006f          	j	80120f8 <fail>

  TEST_PASSFAIL

RVTEST_CODE_END
 80016cc:	c0001073          	unimp

00000000080016d0 <test_2>:

  #-------------------------------------------------------------
  # Logical tests
  #-------------------------------------------------------------

  TEST_IMM_OP( 2, andi, 0xff00ff00, 0xff00ff00, 0xf0f );
 80016d0:	000100b7          	lui	ra,0x10
 80016d4:	f010809b          	addiw	ra,ra,-255
 80016d8:	01009093          	slli	ra,ra,0x10
 80016dc:	f0008093          	addi	ra,ra,-256 # ff00 <u_mode_trap_table-0x7ff0104>
 80016e0:	f0f0f713          	andi	a4,ra,-241
 80016e4:	00010eb7          	lui	t4,0x10
 80016e8:	f01e8e9b          	addiw	t4,t4,-255
 80016ec:	010e9e93          	slli	t4,t4,0x10
 80016f0:	f00e8e93          	addi	t4,t4,-256 # ff00 <u_mode_trap_table-0x7ff0104>
 80016f4:	00200193          	li	gp,2
 80016f8:	01d70463          	beq	a4,t4,8001700 <test_3>
 80016fc:	1fd1006f          	j	80120f8 <fail>

0000000008001700 <test_3>:
  TEST_IMM_OP( 3, andi, 0x000000f0, 0x0ff00ff0, 0x0f0 );
 8001700:	0ff010b7          	lui	ra,0xff01
 8001704:	ff00809b          	addiw	ra,ra,-16
 8001708:	0f00f713          	andi	a4,ra,240
 800170c:	0f000e93          	li	t4,240
 8001710:	00300193          	li	gp,3
 8001714:	01d70463          	beq	a4,t4,800171c <test_4>
 8001718:	1e11006f          	j	80120f8 <fail>

000000000800171c <test_4>:
  TEST_IMM_OP( 4, andi, 0x0000000f, 0x00ff00ff, 0x70f );
 800171c:	00ff00b7          	lui	ra,0xff0
 8001720:	0ff0809b          	addiw	ra,ra,255
 8001724:	70f0f713          	andi	a4,ra,1807
 8001728:	00f00e93          	li	t4,15
 800172c:	00400193          	li	gp,4
 8001730:	01d70463          	beq	a4,t4,8001738 <test_5>
 8001734:	1c51006f          	j	80120f8 <fail>

0000000008001738 <test_5>:
  TEST_IMM_OP( 5, andi, 0x00000000, 0xf00ff00f, 0x0f0 );
 8001738:	000f00b7          	lui	ra,0xf0
 800173c:	0ff0809b          	addiw	ra,ra,255
 8001740:	00c09093          	slli	ra,ra,0xc
 8001744:	00f08093          	addi	ra,ra,15 # f000f <u_mode_trap_table-0x7f0fff5>
 8001748:	0f00f713          	andi	a4,ra,240
 800174c:	00000e93          	li	t4,0
 8001750:	00500193          	li	gp,5
 8001754:	01d70463          	beq	a4,t4,800175c <test_6>
 8001758:	1a11006f          	j	80120f8 <fail>

000000000800175c <test_6>:

  #-------------------------------------------------------------
  # Source/Destination tests
  #-------------------------------------------------------------

  TEST_IMM_SRC1_EQ_DEST( 6, andi, 0x00000000, 0xff00ff00, 0x0f0 );
 800175c:	000100b7          	lui	ra,0x10
 8001760:	f010809b          	addiw	ra,ra,-255
 8001764:	01009093          	slli	ra,ra,0x10
 8001768:	f0008093          	addi	ra,ra,-256 # ff00 <u_mode_trap_table-0x7ff0104>
 800176c:	0f00f093          	andi	ra,ra,240
 8001770:	00000e93          	li	t4,0
 8001774:	00600193          	li	gp,6
 8001778:	01d08463          	beq	ra,t4,8001780 <test_7>
 800177c:	17d1006f          	j	80120f8 <fail>

0000000008001780 <test_7>:

  #-------------------------------------------------------------
  # Bypassing tests
  #-------------------------------------------------------------

  TEST_IMM_DEST_BYPASS( 7,  0, andi, 0x00000700, 0x0ff00ff0, 0x70f );
 8001780:	00000213          	li	tp,0
 8001784:	0ff010b7          	lui	ra,0xff01
 8001788:	ff00809b          	addiw	ra,ra,-16
 800178c:	70f0f713          	andi	a4,ra,1807
 8001790:	00070313          	mv	t1,a4
 8001794:	00120213          	addi	tp,tp,1 # 1 <u_mode_trap_table-0x8000003>
 8001798:	00200293          	li	t0,2
 800179c:	fe5214e3          	bne	tp,t0,8001784 <test_7+0x4>
 80017a0:	70000e93          	li	t4,1792
 80017a4:	00700193          	li	gp,7
 80017a8:	01d30463          	beq	t1,t4,80017b0 <test_8>
 80017ac:	14d1006f          	j	80120f8 <fail>

00000000080017b0 <test_8>:
  TEST_IMM_DEST_BYPASS( 8,  1, andi, 0x000000f0, 0x00ff00ff, 0x0f0 );
 80017b0:	00000213          	li	tp,0
 80017b4:	00ff00b7          	lui	ra,0xff0
 80017b8:	0ff0809b          	addiw	ra,ra,255
 80017bc:	0f00f713          	andi	a4,ra,240
 80017c0:	00000013          	nop
 80017c4:	00070313          	mv	t1,a4
 80017c8:	00120213          	addi	tp,tp,1 # 1 <u_mode_trap_table-0x8000003>
 80017cc:	00200293          	li	t0,2
 80017d0:	fe5212e3          	bne	tp,t0,80017b4 <test_8+0x4>
 80017d4:	0f000e93          	li	t4,240
 80017d8:	00800193          	li	gp,8
 80017dc:	01d30463          	beq	t1,t4,80017e4 <test_9>
 80017e0:	1191006f          	j	80120f8 <fail>

00000000080017e4 <test_9>:
  TEST_IMM_DEST_BYPASS( 9,  2, andi, 0xf00ff00f, 0xf00ff00f, 0xf0f );
 80017e4:	00000213          	li	tp,0
 80017e8:	000f00b7          	lui	ra,0xf0
 80017ec:	0ff0809b          	addiw	ra,ra,255
 80017f0:	00c09093          	slli	ra,ra,0xc
 80017f4:	00f08093          	addi	ra,ra,15 # f000f <u_mode_trap_table-0x7f0fff5>
 80017f8:	f0f0f713          	andi	a4,ra,-241
 80017fc:	00000013          	nop
 8001800:	00000013          	nop
 8001804:	00070313          	mv	t1,a4
 8001808:	00120213          	addi	tp,tp,1 # 1 <u_mode_trap_table-0x8000003>
 800180c:	00200293          	li	t0,2
 8001810:	fc521ce3          	bne	tp,t0,80017e8 <test_9+0x4>
 8001814:	000f0eb7          	lui	t4,0xf0
 8001818:	0ffe8e9b          	addiw	t4,t4,255
 800181c:	00ce9e93          	slli	t4,t4,0xc
 8001820:	00fe8e93          	addi	t4,t4,15 # f000f <u_mode_trap_table-0x7f0fff5>
 8001824:	00900193          	li	gp,9
 8001828:	01d30463          	beq	t1,t4,8001830 <test_10>
 800182c:	0cd1006f          	j	80120f8 <fail>

0000000008001830 <test_10>:

  TEST_IMM_SRC1_BYPASS( 10, 0, andi, 0x00000700, 0x0ff00ff0, 0x70f );
 8001830:	00000213          	li	tp,0
 8001834:	0ff010b7          	lui	ra,0xff01
 8001838:	ff00809b          	addiw	ra,ra,-16
 800183c:	70f0f713          	andi	a4,ra,1807
 8001840:	00120213          	addi	tp,tp,1 # 1 <u_mode_trap_table-0x8000003>
 8001844:	00200293          	li	t0,2
 8001848:	fe5216e3          	bne	tp,t0,8001834 <test_10+0x4>
 800184c:	70000e93          	li	t4,1792
 8001850:	00a00193          	li	gp,10
 8001854:	01d70463          	beq	a4,t4,800185c <test_11>
 8001858:	0a11006f          	j	80120f8 <fail>

000000000800185c <test_11>:
  TEST_IMM_SRC1_BYPASS( 11, 1, andi, 0x000000f0, 0x00ff00ff, 0x0f0 );
 800185c:	00000213          	li	tp,0
 8001860:	00ff00b7          	lui	ra,0xff0
 8001864:	0ff0809b          	addiw	ra,ra,255
 8001868:	00000013          	nop
 800186c:	0f00f713          	andi	a4,ra,240
 8001870:	00120213          	addi	tp,tp,1 # 1 <u_mode_trap_table-0x8000003>
 8001874:	00200293          	li	t0,2
 8001878:	fe5214e3          	bne	tp,t0,8001860 <test_11+0x4>
 800187c:	0f000e93          	li	t4,240
 8001880:	00b00193          	li	gp,11
 8001884:	01d70463          	beq	a4,t4,800188c <test_12>
 8001888:	0711006f          	j	80120f8 <fail>

000000000800188c <test_12>:
  TEST_IMM_SRC1_BYPASS( 12, 2, andi, 0x0000000f, 0xf00ff00f, 0x70f );
 800188c:	00000213          	li	tp,0
 8001890:	000f00b7          	lui	ra,0xf0
 8001894:	0ff0809b          	addiw	ra,ra,255
 8001898:	00c09093          	slli	ra,ra,0xc
 800189c:	00f08093          	addi	ra,ra,15 # f000f <u_mode_trap_table-0x7f0fff5>
 80018a0:	00000013          	nop
 80018a4:	00000013          	nop
 80018a8:	70f0f713          	andi	a4,ra,1807
 80018ac:	00120213          	addi	tp,tp,1 # 1 <u_mode_trap_table-0x8000003>
 80018b0:	00200293          	li	t0,2
 80018b4:	fc521ee3          	bne	tp,t0,8001890 <test_12+0x4>
 80018b8:	00f00e93          	li	t4,15
 80018bc:	00c00193          	li	gp,12
 80018c0:	01d70463          	beq	a4,t4,80018c8 <test_13>
 80018c4:	0351006f          	j	80120f8 <fail>

00000000080018c8 <test_13>:

  TEST_IMM_ZEROSRC1( 13, andi, 0, 0x0f0 );
 80018c8:	0f007093          	andi	ra,zero,240
 80018cc:	00000e93          	li	t4,0
 80018d0:	00d00193          	li	gp,13
 80018d4:	01d08463          	beq	ra,t4,80018dc <test_14>
 80018d8:	0211006f          	j	80120f8 <fail>

00000000080018dc <test_14>:
  TEST_IMM_ZERODEST( 14, andi, 0x00ff00ff, 0x70f );
 80018dc:	00ff00b7          	lui	ra,0xff0
 80018e0:	0ff0809b          	addiw	ra,ra,255
 80018e4:	70f0f013          	andi	zero,ra,1807
 80018e8:	00000e93          	li	t4,0
 80018ec:	00e00193          	li	gp,14
 80018f0:	01d00463          	beq	zero,t4,80018f8 <test_14+0x1c>
 80018f4:	0051006f          	j	80120f8 <fail>

  TEST_PASSFAIL

RVTEST_CODE_END
 80018f8:	c0001073          	unimp
 80018fc:	0000                	unimp
	...

0000000008001900 <test_2>:
#include "test_macros.h"

RVTEST_RV64U
RVTEST_CODE_BEGIN

  TEST_CASE(2, a0, 10000, \
 8001900:	00002517          	auipc	a0,0x2
 8001904:	71c50513          	addi	a0,a0,1820 # 800401c <test_11+0x18>
 8001908:	004005ef          	jal	a1,800190c <test_2+0xc>
 800190c:	40b50533          	sub	a0,a0,a1
 8001910:	00002eb7          	lui	t4,0x2
 8001914:	710e8e9b          	addiw	t4,t4,1808
 8001918:	00200193          	li	gp,2
 800191c:	01d50463          	beq	a0,t4,8001924 <test_3>
 8001920:	7d81006f          	j	80120f8 <fail>

0000000008001924 <test_3>:
 8001924:	00000013          	nop
    lla a0, 1f + 10000; \
    jal a1, 1f; \
    1: sub a0, a0, a1; \
  )

  TEST_CASE(3, a0, -10000, \
 8001928:	ffffe517          	auipc	a0,0xffffe
 800192c:	8fc50513          	addi	a0,a0,-1796 # 7fff224 <u_mode_trap_table-0xde0>
 8001930:	004005ef          	jal	a1,8001934 <test_3+0x10>
 8001934:	40b50533          	sub	a0,a0,a1
 8001938:	ffffeeb7          	lui	t4,0xffffe
 800193c:	8f0e8e9b          	addiw	t4,t4,-1808
 8001940:	00300193          	li	gp,3
 8001944:	01d50463          	beq	a0,t4,800194c <test_3+0x28>
 8001948:	7b01006f          	j	80120f8 <fail>
    1: sub a0, a0, a1; \
  )

  TEST_PASSFAIL

RVTEST_CODE_END
 800194c:	c0001073          	unimp
	...

0000000008001958 <test_2>:
  # Branch tests
  #-------------------------------------------------------------

  # Each test checks both forward and backward branches

  TEST_BR2_OP_TAKEN( 2, beq,  0,  0 );
 8001958:	00200193          	li	gp,2
 800195c:	00000093          	li	ra,0
 8001960:	00000113          	li	sp,0
 8001964:	00208863          	beq	ra,sp,8001974 <test_2+0x1c>
 8001968:	00300463          	beq	zero,gp,8001970 <test_2+0x18>
 800196c:	78c1006f          	j	80120f8 <fail>
 8001970:	00301863          	bne	zero,gp,8001980 <test_3>
 8001974:	fe208ee3          	beq	ra,sp,8001970 <test_2+0x18>
 8001978:	00300463          	beq	zero,gp,8001980 <test_3>
 800197c:	77c1006f          	j	80120f8 <fail>

0000000008001980 <test_3>:
  TEST_BR2_OP_TAKEN( 3, beq,  1,  1 );
 8001980:	00300193          	li	gp,3
 8001984:	00100093          	li	ra,1
 8001988:	00100113          	li	sp,1
 800198c:	00208863          	beq	ra,sp,800199c <test_3+0x1c>
 8001990:	00300463          	beq	zero,gp,8001998 <test_3+0x18>
 8001994:	7641006f          	j	80120f8 <fail>
 8001998:	00301863          	bne	zero,gp,80019a8 <test_4>
 800199c:	fe208ee3          	beq	ra,sp,8001998 <test_3+0x18>
 80019a0:	00300463          	beq	zero,gp,80019a8 <test_4>
 80019a4:	7541006f          	j	80120f8 <fail>

00000000080019a8 <test_4>:
  TEST_BR2_OP_TAKEN( 4, beq, -1, -1 );
 80019a8:	00400193          	li	gp,4
 80019ac:	fff00093          	li	ra,-1
 80019b0:	fff00113          	li	sp,-1
 80019b4:	00208863          	beq	ra,sp,80019c4 <test_4+0x1c>
 80019b8:	00300463          	beq	zero,gp,80019c0 <test_4+0x18>
 80019bc:	73c1006f          	j	80120f8 <fail>
 80019c0:	00301863          	bne	zero,gp,80019d0 <test_5>
 80019c4:	fe208ee3          	beq	ra,sp,80019c0 <test_4+0x18>
 80019c8:	00300463          	beq	zero,gp,80019d0 <test_5>
 80019cc:	72c1006f          	j	80120f8 <fail>

00000000080019d0 <test_5>:

  TEST_BR2_OP_NOTTAKEN( 5, beq,  0,  1 );
 80019d0:	00500193          	li	gp,5
 80019d4:	00000093          	li	ra,0
 80019d8:	00100113          	li	sp,1
 80019dc:	00208463          	beq	ra,sp,80019e4 <test_5+0x14>
 80019e0:	00301663          	bne	zero,gp,80019ec <test_5+0x1c>
 80019e4:	00300463          	beq	zero,gp,80019ec <test_5+0x1c>
 80019e8:	7101006f          	j	80120f8 <fail>
 80019ec:	fe208ce3          	beq	ra,sp,80019e4 <test_5+0x14>

00000000080019f0 <test_6>:
  TEST_BR2_OP_NOTTAKEN( 6, beq,  1,  0 );
 80019f0:	00600193          	li	gp,6
 80019f4:	00100093          	li	ra,1
 80019f8:	00000113          	li	sp,0
 80019fc:	00208463          	beq	ra,sp,8001a04 <test_6+0x14>
 8001a00:	00301663          	bne	zero,gp,8001a0c <test_6+0x1c>
 8001a04:	00300463          	beq	zero,gp,8001a0c <test_6+0x1c>
 8001a08:	6f01006f          	j	80120f8 <fail>
 8001a0c:	fe208ce3          	beq	ra,sp,8001a04 <test_6+0x14>

0000000008001a10 <test_7>:
  TEST_BR2_OP_NOTTAKEN( 7, beq, -1,  1 );
 8001a10:	00700193          	li	gp,7
 8001a14:	fff00093          	li	ra,-1
 8001a18:	00100113          	li	sp,1
 8001a1c:	00208463          	beq	ra,sp,8001a24 <test_7+0x14>
 8001a20:	00301663          	bne	zero,gp,8001a2c <test_7+0x1c>
 8001a24:	00300463          	beq	zero,gp,8001a2c <test_7+0x1c>
 8001a28:	6d01006f          	j	80120f8 <fail>
 8001a2c:	fe208ce3          	beq	ra,sp,8001a24 <test_7+0x14>

0000000008001a30 <test_8>:
  TEST_BR2_OP_NOTTAKEN( 8, beq,  1, -1 );
 8001a30:	00800193          	li	gp,8
 8001a34:	00100093          	li	ra,1
 8001a38:	fff00113          	li	sp,-1
 8001a3c:	00208463          	beq	ra,sp,8001a44 <test_8+0x14>
 8001a40:	00301663          	bne	zero,gp,8001a4c <test_8+0x1c>
 8001a44:	00300463          	beq	zero,gp,8001a4c <test_8+0x1c>
 8001a48:	6b01006f          	j	80120f8 <fail>
 8001a4c:	fe208ce3          	beq	ra,sp,8001a44 <test_8+0x14>

0000000008001a50 <test_9>:

  #-------------------------------------------------------------
  # Bypassing tests
  #-------------------------------------------------------------

  TEST_BR2_SRC12_BYPASS( 9,  0, 0, beq, 0, -1 );
 8001a50:	00900193          	li	gp,9
 8001a54:	00000213          	li	tp,0
 8001a58:	00000093          	li	ra,0
 8001a5c:	fff00113          	li	sp,-1
 8001a60:	00209463          	bne	ra,sp,8001a68 <test_9+0x18>
 8001a64:	6941006f          	j	80120f8 <fail>
 8001a68:	00120213          	addi	tp,tp,1 # 1 <u_mode_trap_table-0x8000003>
 8001a6c:	00200293          	li	t0,2
 8001a70:	fe5214e3          	bne	tp,t0,8001a58 <test_9+0x8>

0000000008001a74 <test_10>:
  TEST_BR2_SRC12_BYPASS( 10, 0, 1, beq, 0, -1 );
 8001a74:	00a00193          	li	gp,10
 8001a78:	00000213          	li	tp,0
 8001a7c:	00000093          	li	ra,0
 8001a80:	fff00113          	li	sp,-1
 8001a84:	00000013          	nop
 8001a88:	00209463          	bne	ra,sp,8001a90 <test_10+0x1c>
 8001a8c:	66c1006f          	j	80120f8 <fail>
 8001a90:	00120213          	addi	tp,tp,1 # 1 <u_mode_trap_table-0x8000003>
 8001a94:	00200293          	li	t0,2
 8001a98:	fe5212e3          	bne	tp,t0,8001a7c <test_10+0x8>

0000000008001a9c <test_11>:
  TEST_BR2_SRC12_BYPASS( 11, 0, 2, beq, 0, -1 );
 8001a9c:	00b00193          	li	gp,11
 8001aa0:	00000213          	li	tp,0
 8001aa4:	00000093          	li	ra,0
 8001aa8:	fff00113          	li	sp,-1
 8001aac:	00000013          	nop
 8001ab0:	00000013          	nop
 8001ab4:	00209463          	bne	ra,sp,8001abc <test_11+0x20>
 8001ab8:	6401006f          	j	80120f8 <fail>
 8001abc:	00120213          	addi	tp,tp,1 # 1 <u_mode_trap_table-0x8000003>
 8001ac0:	00200293          	li	t0,2
 8001ac4:	fe5210e3          	bne	tp,t0,8001aa4 <test_11+0x8>

0000000008001ac8 <test_12>:
  TEST_BR2_SRC12_BYPASS( 12, 1, 0, beq, 0, -1 );
 8001ac8:	00c00193          	li	gp,12
 8001acc:	00000213          	li	tp,0
 8001ad0:	00000093          	li	ra,0
 8001ad4:	00000013          	nop
 8001ad8:	fff00113          	li	sp,-1
 8001adc:	00209463          	bne	ra,sp,8001ae4 <test_12+0x1c>
 8001ae0:	6181006f          	j	80120f8 <fail>
 8001ae4:	00120213          	addi	tp,tp,1 # 1 <u_mode_trap_table-0x8000003>
 8001ae8:	00200293          	li	t0,2
 8001aec:	fe5212e3          	bne	tp,t0,8001ad0 <test_12+0x8>

0000000008001af0 <test_13>:
  TEST_BR2_SRC12_BYPASS( 13, 1, 1, beq, 0, -1 );
 8001af0:	00d00193          	li	gp,13
 8001af4:	00000213          	li	tp,0
 8001af8:	00000093          	li	ra,0
 8001afc:	00000013          	nop
 8001b00:	fff00113          	li	sp,-1
 8001b04:	00000013          	nop
 8001b08:	00209463          	bne	ra,sp,8001b10 <test_13+0x20>
 8001b0c:	5ec1006f          	j	80120f8 <fail>
 8001b10:	00120213          	addi	tp,tp,1 # 1 <u_mode_trap_table-0x8000003>
 8001b14:	00200293          	li	t0,2
 8001b18:	fe5210e3          	bne	tp,t0,8001af8 <test_13+0x8>

0000000008001b1c <test_14>:
  TEST_BR2_SRC12_BYPASS( 14, 2, 0, beq, 0, -1 );
 8001b1c:	00e00193          	li	gp,14
 8001b20:	00000213          	li	tp,0
 8001b24:	00000093          	li	ra,0
 8001b28:	00000013          	nop
 8001b2c:	00000013          	nop
 8001b30:	fff00113          	li	sp,-1
 8001b34:	00209463          	bne	ra,sp,8001b3c <test_14+0x20>
 8001b38:	5c01006f          	j	80120f8 <fail>
 8001b3c:	00120213          	addi	tp,tp,1 # 1 <u_mode_trap_table-0x8000003>
 8001b40:	00200293          	li	t0,2
 8001b44:	fe5210e3          	bne	tp,t0,8001b24 <test_14+0x8>

0000000008001b48 <test_15>:

  TEST_BR2_SRC12_BYPASS( 15, 0, 0, beq, 0, -1 );
 8001b48:	00f00193          	li	gp,15
 8001b4c:	00000213          	li	tp,0
 8001b50:	00000093          	li	ra,0
 8001b54:	fff00113          	li	sp,-1
 8001b58:	00209463          	bne	ra,sp,8001b60 <test_15+0x18>
 8001b5c:	59c1006f          	j	80120f8 <fail>
 8001b60:	00120213          	addi	tp,tp,1 # 1 <u_mode_trap_table-0x8000003>
 8001b64:	00200293          	li	t0,2
 8001b68:	fe5214e3          	bne	tp,t0,8001b50 <test_15+0x8>

0000000008001b6c <test_16>:
  TEST_BR2_SRC12_BYPASS( 16, 0, 1, beq, 0, -1 );
 8001b6c:	01000193          	li	gp,16
 8001b70:	00000213          	li	tp,0
 8001b74:	00000093          	li	ra,0
 8001b78:	fff00113          	li	sp,-1
 8001b7c:	00000013          	nop
 8001b80:	00209463          	bne	ra,sp,8001b88 <test_16+0x1c>
 8001b84:	5741006f          	j	80120f8 <fail>
 8001b88:	00120213          	addi	tp,tp,1 # 1 <u_mode_trap_table-0x8000003>
 8001b8c:	00200293          	li	t0,2
 8001b90:	fe5212e3          	bne	tp,t0,8001b74 <test_16+0x8>

0000000008001b94 <test_17>:
  TEST_BR2_SRC12_BYPASS( 17, 0, 2, beq, 0, -1 );
 8001b94:	01100193          	li	gp,17
 8001b98:	00000213          	li	tp,0
 8001b9c:	00000093          	li	ra,0
 8001ba0:	fff00113          	li	sp,-1
 8001ba4:	00000013          	nop
 8001ba8:	00000013          	nop
 8001bac:	00209463          	bne	ra,sp,8001bb4 <test_17+0x20>
 8001bb0:	5481006f          	j	80120f8 <fail>
 8001bb4:	00120213          	addi	tp,tp,1 # 1 <u_mode_trap_table-0x8000003>
 8001bb8:	00200293          	li	t0,2
 8001bbc:	fe5210e3          	bne	tp,t0,8001b9c <test_17+0x8>

0000000008001bc0 <test_18>:
  TEST_BR2_SRC12_BYPASS( 18, 1, 0, beq, 0, -1 );
 8001bc0:	01200193          	li	gp,18
 8001bc4:	00000213          	li	tp,0
 8001bc8:	00000093          	li	ra,0
 8001bcc:	00000013          	nop
 8001bd0:	fff00113          	li	sp,-1
 8001bd4:	00209463          	bne	ra,sp,8001bdc <test_18+0x1c>
 8001bd8:	5201006f          	j	80120f8 <fail>
 8001bdc:	00120213          	addi	tp,tp,1 # 1 <u_mode_trap_table-0x8000003>
 8001be0:	00200293          	li	t0,2
 8001be4:	fe5212e3          	bne	tp,t0,8001bc8 <test_18+0x8>

0000000008001be8 <test_19>:
  TEST_BR2_SRC12_BYPASS( 19, 1, 1, beq, 0, -1 );
 8001be8:	01300193          	li	gp,19
 8001bec:	00000213          	li	tp,0
 8001bf0:	00000093          	li	ra,0
 8001bf4:	00000013          	nop
 8001bf8:	fff00113          	li	sp,-1
 8001bfc:	00000013          	nop
 8001c00:	00209463          	bne	ra,sp,8001c08 <test_19+0x20>
 8001c04:	4f41006f          	j	80120f8 <fail>
 8001c08:	00120213          	addi	tp,tp,1 # 1 <u_mode_trap_table-0x8000003>
 8001c0c:	00200293          	li	t0,2
 8001c10:	fe5210e3          	bne	tp,t0,8001bf0 <test_19+0x8>

0000000008001c14 <test_20>:
  TEST_BR2_SRC12_BYPASS( 20, 2, 0, beq, 0, -1 );
 8001c14:	01400193          	li	gp,20
 8001c18:	00000213          	li	tp,0
 8001c1c:	00000093          	li	ra,0
 8001c20:	00000013          	nop
 8001c24:	00000013          	nop
 8001c28:	fff00113          	li	sp,-1
 8001c2c:	00209463          	bne	ra,sp,8001c34 <test_20+0x20>
 8001c30:	4c81006f          	j	80120f8 <fail>
 8001c34:	00120213          	addi	tp,tp,1 # 1 <u_mode_trap_table-0x8000003>
 8001c38:	00200293          	li	t0,2
 8001c3c:	fe5210e3          	bne	tp,t0,8001c1c <test_20+0x8>

0000000008001c40 <test_21>:

  #-------------------------------------------------------------
  # Test delay slot instructions not executed nor bypassed
  #-------------------------------------------------------------

  TEST_CASE( 21, x1, 3, \
 8001c40:	00100093          	li	ra,1
 8001c44:	00000a63          	beqz	zero,8001c58 <test_21+0x18>
 8001c48:	00108093          	addi	ra,ra,1 # ff0001 <u_mode_trap_table-0x7010003>
 8001c4c:	00108093          	addi	ra,ra,1
 8001c50:	00108093          	addi	ra,ra,1
 8001c54:	00108093          	addi	ra,ra,1
 8001c58:	00108093          	addi	ra,ra,1
 8001c5c:	00108093          	addi	ra,ra,1
 8001c60:	00300e93          	li	t4,3
 8001c64:	01500193          	li	gp,21
 8001c68:	01d08463          	beq	ra,t4,8001c70 <test_21+0x30>
 8001c6c:	48c1006f          	j	80120f8 <fail>
    addi x1, x1, 1; \
  )

  TEST_PASSFAIL

RVTEST_CODE_END
 8001c70:	c0001073          	unimp

0000000008001c74 <test_2>:
  # Branch tests
  #-------------------------------------------------------------

  # Each test checks both forward and backward branches

  TEST_BR2_OP_TAKEN( 2, bge,  0,  0 );
 8001c74:	00200193          	li	gp,2
 8001c78:	00000093          	li	ra,0
 8001c7c:	00000113          	li	sp,0
 8001c80:	0020d863          	ble	sp,ra,8001c90 <test_2+0x1c>
 8001c84:	00300463          	beq	zero,gp,8001c8c <test_2+0x18>
 8001c88:	4701006f          	j	80120f8 <fail>
 8001c8c:	00301863          	bne	zero,gp,8001c9c <test_3>
 8001c90:	fe20dee3          	ble	sp,ra,8001c8c <test_2+0x18>
 8001c94:	00300463          	beq	zero,gp,8001c9c <test_3>
 8001c98:	4601006f          	j	80120f8 <fail>

0000000008001c9c <test_3>:
  TEST_BR2_OP_TAKEN( 3, bge,  1,  1 );
 8001c9c:	00300193          	li	gp,3
 8001ca0:	00100093          	li	ra,1
 8001ca4:	00100113          	li	sp,1
 8001ca8:	0020d863          	ble	sp,ra,8001cb8 <test_3+0x1c>
 8001cac:	00300463          	beq	zero,gp,8001cb4 <test_3+0x18>
 8001cb0:	4481006f          	j	80120f8 <fail>
 8001cb4:	00301863          	bne	zero,gp,8001cc4 <test_4>
 8001cb8:	fe20dee3          	ble	sp,ra,8001cb4 <test_3+0x18>
 8001cbc:	00300463          	beq	zero,gp,8001cc4 <test_4>
 8001cc0:	4381006f          	j	80120f8 <fail>

0000000008001cc4 <test_4>:
  TEST_BR2_OP_TAKEN( 4, bge, -1, -1 );
 8001cc4:	00400193          	li	gp,4
 8001cc8:	fff00093          	li	ra,-1
 8001ccc:	fff00113          	li	sp,-1
 8001cd0:	0020d863          	ble	sp,ra,8001ce0 <test_4+0x1c>
 8001cd4:	00300463          	beq	zero,gp,8001cdc <test_4+0x18>
 8001cd8:	4201006f          	j	80120f8 <fail>
 8001cdc:	00301863          	bne	zero,gp,8001cec <test_5>
 8001ce0:	fe20dee3          	ble	sp,ra,8001cdc <test_4+0x18>
 8001ce4:	00300463          	beq	zero,gp,8001cec <test_5>
 8001ce8:	4101006f          	j	80120f8 <fail>

0000000008001cec <test_5>:
  TEST_BR2_OP_TAKEN( 5, bge,  1,  0 );
 8001cec:	00500193          	li	gp,5
 8001cf0:	00100093          	li	ra,1
 8001cf4:	00000113          	li	sp,0
 8001cf8:	0020d863          	ble	sp,ra,8001d08 <test_5+0x1c>
 8001cfc:	00300463          	beq	zero,gp,8001d04 <test_5+0x18>
 8001d00:	3f81006f          	j	80120f8 <fail>
 8001d04:	00301863          	bne	zero,gp,8001d14 <test_6>
 8001d08:	fe20dee3          	ble	sp,ra,8001d04 <test_5+0x18>
 8001d0c:	00300463          	beq	zero,gp,8001d14 <test_6>
 8001d10:	3e81006f          	j	80120f8 <fail>

0000000008001d14 <test_6>:
  TEST_BR2_OP_TAKEN( 6, bge,  1, -1 );
 8001d14:	00600193          	li	gp,6
 8001d18:	00100093          	li	ra,1
 8001d1c:	fff00113          	li	sp,-1
 8001d20:	0020d863          	ble	sp,ra,8001d30 <test_6+0x1c>
 8001d24:	00300463          	beq	zero,gp,8001d2c <test_6+0x18>
 8001d28:	3d01006f          	j	80120f8 <fail>
 8001d2c:	00301863          	bne	zero,gp,8001d3c <test_7>
 8001d30:	fe20dee3          	ble	sp,ra,8001d2c <test_6+0x18>
 8001d34:	00300463          	beq	zero,gp,8001d3c <test_7>
 8001d38:	3c01006f          	j	80120f8 <fail>

0000000008001d3c <test_7>:
  TEST_BR2_OP_TAKEN( 7, bge, -1, -2 );
 8001d3c:	00700193          	li	gp,7
 8001d40:	fff00093          	li	ra,-1
 8001d44:	ffe00113          	li	sp,-2
 8001d48:	0020d863          	ble	sp,ra,8001d58 <test_7+0x1c>
 8001d4c:	00300463          	beq	zero,gp,8001d54 <test_7+0x18>
 8001d50:	3a81006f          	j	80120f8 <fail>
 8001d54:	00301863          	bne	zero,gp,8001d64 <test_8>
 8001d58:	fe20dee3          	ble	sp,ra,8001d54 <test_7+0x18>
 8001d5c:	00300463          	beq	zero,gp,8001d64 <test_8>
 8001d60:	3981006f          	j	80120f8 <fail>

0000000008001d64 <test_8>:

  TEST_BR2_OP_NOTTAKEN(  8, bge,  0,  1 );
 8001d64:	00800193          	li	gp,8
 8001d68:	00000093          	li	ra,0
 8001d6c:	00100113          	li	sp,1
 8001d70:	0020d463          	ble	sp,ra,8001d78 <test_8+0x14>
 8001d74:	00301663          	bne	zero,gp,8001d80 <test_8+0x1c>
 8001d78:	00300463          	beq	zero,gp,8001d80 <test_8+0x1c>
 8001d7c:	37c1006f          	j	80120f8 <fail>
 8001d80:	fe20dce3          	ble	sp,ra,8001d78 <test_8+0x14>

0000000008001d84 <test_9>:
  TEST_BR2_OP_NOTTAKEN(  9, bge, -1,  1 );
 8001d84:	00900193          	li	gp,9
 8001d88:	fff00093          	li	ra,-1
 8001d8c:	00100113          	li	sp,1
 8001d90:	0020d463          	ble	sp,ra,8001d98 <test_9+0x14>
 8001d94:	00301663          	bne	zero,gp,8001da0 <test_9+0x1c>
 8001d98:	00300463          	beq	zero,gp,8001da0 <test_9+0x1c>
 8001d9c:	35c1006f          	j	80120f8 <fail>
 8001da0:	fe20dce3          	ble	sp,ra,8001d98 <test_9+0x14>

0000000008001da4 <test_10>:
  TEST_BR2_OP_NOTTAKEN( 10, bge, -2, -1 );
 8001da4:	00a00193          	li	gp,10
 8001da8:	ffe00093          	li	ra,-2
 8001dac:	fff00113          	li	sp,-1
 8001db0:	0020d463          	ble	sp,ra,8001db8 <test_10+0x14>
 8001db4:	00301663          	bne	zero,gp,8001dc0 <test_10+0x1c>
 8001db8:	00300463          	beq	zero,gp,8001dc0 <test_10+0x1c>
 8001dbc:	33c1006f          	j	80120f8 <fail>
 8001dc0:	fe20dce3          	ble	sp,ra,8001db8 <test_10+0x14>

0000000008001dc4 <test_11>:
  TEST_BR2_OP_NOTTAKEN( 11, bge, -2,  1 );
 8001dc4:	00b00193          	li	gp,11
 8001dc8:	ffe00093          	li	ra,-2
 8001dcc:	00100113          	li	sp,1
 8001dd0:	0020d463          	ble	sp,ra,8001dd8 <test_11+0x14>
 8001dd4:	00301663          	bne	zero,gp,8001de0 <test_11+0x1c>
 8001dd8:	00300463          	beq	zero,gp,8001de0 <test_11+0x1c>
 8001ddc:	31c1006f          	j	80120f8 <fail>
 8001de0:	fe20dce3          	ble	sp,ra,8001dd8 <test_11+0x14>

0000000008001de4 <test_12>:

  #-------------------------------------------------------------
  # Bypassing tests
  #-------------------------------------------------------------

  TEST_BR2_SRC12_BYPASS( 12, 0, 0, bge, -1, 0 );
 8001de4:	00c00193          	li	gp,12
 8001de8:	00000213          	li	tp,0
 8001dec:	fff00093          	li	ra,-1
 8001df0:	00000113          	li	sp,0
 8001df4:	0020c463          	blt	ra,sp,8001dfc <test_12+0x18>
 8001df8:	3001006f          	j	80120f8 <fail>
 8001dfc:	00120213          	addi	tp,tp,1 # 1 <u_mode_trap_table-0x8000003>
 8001e00:	00200293          	li	t0,2
 8001e04:	fe5214e3          	bne	tp,t0,8001dec <test_12+0x8>

0000000008001e08 <test_13>:
  TEST_BR2_SRC12_BYPASS( 13, 0, 1, bge, -1, 0 );
 8001e08:	00d00193          	li	gp,13
 8001e0c:	00000213          	li	tp,0
 8001e10:	fff00093          	li	ra,-1
 8001e14:	00000113          	li	sp,0
 8001e18:	00000013          	nop
 8001e1c:	0020c463          	blt	ra,sp,8001e24 <test_13+0x1c>
 8001e20:	2d81006f          	j	80120f8 <fail>
 8001e24:	00120213          	addi	tp,tp,1 # 1 <u_mode_trap_table-0x8000003>
 8001e28:	00200293          	li	t0,2
 8001e2c:	fe5212e3          	bne	tp,t0,8001e10 <test_13+0x8>

0000000008001e30 <test_14>:
  TEST_BR2_SRC12_BYPASS( 14, 0, 2, bge, -1, 0 );
 8001e30:	00e00193          	li	gp,14
 8001e34:	00000213          	li	tp,0
 8001e38:	fff00093          	li	ra,-1
 8001e3c:	00000113          	li	sp,0
 8001e40:	00000013          	nop
 8001e44:	00000013          	nop
 8001e48:	0020c463          	blt	ra,sp,8001e50 <test_14+0x20>
 8001e4c:	2ac1006f          	j	80120f8 <fail>
 8001e50:	00120213          	addi	tp,tp,1 # 1 <u_mode_trap_table-0x8000003>
 8001e54:	00200293          	li	t0,2
 8001e58:	fe5210e3          	bne	tp,t0,8001e38 <test_14+0x8>

0000000008001e5c <test_15>:
  TEST_BR2_SRC12_BYPASS( 15, 1, 0, bge, -1, 0 );
 8001e5c:	00f00193          	li	gp,15
 8001e60:	00000213          	li	tp,0
 8001e64:	fff00093          	li	ra,-1
 8001e68:	00000013          	nop
 8001e6c:	00000113          	li	sp,0
 8001e70:	0020c463          	blt	ra,sp,8001e78 <test_15+0x1c>
 8001e74:	2841006f          	j	80120f8 <fail>
 8001e78:	00120213          	addi	tp,tp,1 # 1 <u_mode_trap_table-0x8000003>
 8001e7c:	00200293          	li	t0,2
 8001e80:	fe5212e3          	bne	tp,t0,8001e64 <test_15+0x8>

0000000008001e84 <test_16>:
  TEST_BR2_SRC12_BYPASS( 16, 1, 1, bge, -1, 0 );
 8001e84:	01000193          	li	gp,16
 8001e88:	00000213          	li	tp,0
 8001e8c:	fff00093          	li	ra,-1
 8001e90:	00000013          	nop
 8001e94:	00000113          	li	sp,0
 8001e98:	00000013          	nop
 8001e9c:	0020c463          	blt	ra,sp,8001ea4 <test_16+0x20>
 8001ea0:	2581006f          	j	80120f8 <fail>
 8001ea4:	00120213          	addi	tp,tp,1 # 1 <u_mode_trap_table-0x8000003>
 8001ea8:	00200293          	li	t0,2
 8001eac:	fe5210e3          	bne	tp,t0,8001e8c <test_16+0x8>

0000000008001eb0 <test_17>:
  TEST_BR2_SRC12_BYPASS( 17, 2, 0, bge, -1, 0 );
 8001eb0:	01100193          	li	gp,17
 8001eb4:	00000213          	li	tp,0
 8001eb8:	fff00093          	li	ra,-1
 8001ebc:	00000013          	nop
 8001ec0:	00000013          	nop
 8001ec4:	00000113          	li	sp,0
 8001ec8:	0020c463          	blt	ra,sp,8001ed0 <test_17+0x20>
 8001ecc:	22c1006f          	j	80120f8 <fail>
 8001ed0:	00120213          	addi	tp,tp,1 # 1 <u_mode_trap_table-0x8000003>
 8001ed4:	00200293          	li	t0,2
 8001ed8:	fe5210e3          	bne	tp,t0,8001eb8 <test_17+0x8>

0000000008001edc <test_18>:

  TEST_BR2_SRC12_BYPASS( 18, 0, 0, bge, -1, 0 );
 8001edc:	01200193          	li	gp,18
 8001ee0:	00000213          	li	tp,0
 8001ee4:	fff00093          	li	ra,-1
 8001ee8:	00000113          	li	sp,0
 8001eec:	0020c463          	blt	ra,sp,8001ef4 <test_18+0x18>
 8001ef0:	2081006f          	j	80120f8 <fail>
 8001ef4:	00120213          	addi	tp,tp,1 # 1 <u_mode_trap_table-0x8000003>
 8001ef8:	00200293          	li	t0,2
 8001efc:	fe5214e3          	bne	tp,t0,8001ee4 <test_18+0x8>

0000000008001f00 <test_19>:
  TEST_BR2_SRC12_BYPASS( 19, 0, 1, bge, -1, 0 );
 8001f00:	01300193          	li	gp,19
 8001f04:	00000213          	li	tp,0
 8001f08:	fff00093          	li	ra,-1
 8001f0c:	00000113          	li	sp,0
 8001f10:	00000013          	nop
 8001f14:	0020c463          	blt	ra,sp,8001f1c <test_19+0x1c>
 8001f18:	1e01006f          	j	80120f8 <fail>
 8001f1c:	00120213          	addi	tp,tp,1 # 1 <u_mode_trap_table-0x8000003>
 8001f20:	00200293          	li	t0,2
 8001f24:	fe5212e3          	bne	tp,t0,8001f08 <test_19+0x8>

0000000008001f28 <test_20>:
  TEST_BR2_SRC12_BYPASS( 20, 0, 2, bge, -1, 0 );
 8001f28:	01400193          	li	gp,20
 8001f2c:	00000213          	li	tp,0
 8001f30:	fff00093          	li	ra,-1
 8001f34:	00000113          	li	sp,0
 8001f38:	00000013          	nop
 8001f3c:	00000013          	nop
 8001f40:	0020c463          	blt	ra,sp,8001f48 <test_20+0x20>
 8001f44:	1b41006f          	j	80120f8 <fail>
 8001f48:	00120213          	addi	tp,tp,1 # 1 <u_mode_trap_table-0x8000003>
 8001f4c:	00200293          	li	t0,2
 8001f50:	fe5210e3          	bne	tp,t0,8001f30 <test_20+0x8>

0000000008001f54 <test_21>:
  TEST_BR2_SRC12_BYPASS( 21, 1, 0, bge, -1, 0 );
 8001f54:	01500193          	li	gp,21
 8001f58:	00000213          	li	tp,0
 8001f5c:	fff00093          	li	ra,-1
 8001f60:	00000013          	nop
 8001f64:	00000113          	li	sp,0
 8001f68:	0020c463          	blt	ra,sp,8001f70 <test_21+0x1c>
 8001f6c:	18c1006f          	j	80120f8 <fail>
 8001f70:	00120213          	addi	tp,tp,1 # 1 <u_mode_trap_table-0x8000003>
 8001f74:	00200293          	li	t0,2
 8001f78:	fe5212e3          	bne	tp,t0,8001f5c <test_21+0x8>

0000000008001f7c <test_22>:
  TEST_BR2_SRC12_BYPASS( 22, 1, 1, bge, -1, 0 );
 8001f7c:	01600193          	li	gp,22
 8001f80:	00000213          	li	tp,0
 8001f84:	fff00093          	li	ra,-1
 8001f88:	00000013          	nop
 8001f8c:	00000113          	li	sp,0
 8001f90:	00000013          	nop
 8001f94:	0020c463          	blt	ra,sp,8001f9c <test_22+0x20>
 8001f98:	1601006f          	j	80120f8 <fail>
 8001f9c:	00120213          	addi	tp,tp,1 # 1 <u_mode_trap_table-0x8000003>
 8001fa0:	00200293          	li	t0,2
 8001fa4:	fe5210e3          	bne	tp,t0,8001f84 <test_22+0x8>

0000000008001fa8 <test_23>:
  TEST_BR2_SRC12_BYPASS( 23, 2, 0, bge, -1, 0 );
 8001fa8:	01700193          	li	gp,23
 8001fac:	00000213          	li	tp,0
 8001fb0:	fff00093          	li	ra,-1
 8001fb4:	00000013          	nop
 8001fb8:	00000013          	nop
 8001fbc:	00000113          	li	sp,0
 8001fc0:	0020c463          	blt	ra,sp,8001fc8 <test_23+0x20>
 8001fc4:	1341006f          	j	80120f8 <fail>
 8001fc8:	00120213          	addi	tp,tp,1 # 1 <u_mode_trap_table-0x8000003>
 8001fcc:	00200293          	li	t0,2
 8001fd0:	fe5210e3          	bne	tp,t0,8001fb0 <test_23+0x8>

0000000008001fd4 <test_24>:

  #-------------------------------------------------------------
  # Test delay slot instructions not executed nor bypassed
  #-------------------------------------------------------------

  TEST_CASE( 24, x1, 3, \
 8001fd4:	00100093          	li	ra,1
 8001fd8:	0000da63          	bgez	ra,8001fec <test_24+0x18>
 8001fdc:	00108093          	addi	ra,ra,1
 8001fe0:	00108093          	addi	ra,ra,1
 8001fe4:	00108093          	addi	ra,ra,1
 8001fe8:	00108093          	addi	ra,ra,1
 8001fec:	00108093          	addi	ra,ra,1
 8001ff0:	00108093          	addi	ra,ra,1
 8001ff4:	00300e93          	li	t4,3
 8001ff8:	01800193          	li	gp,24
 8001ffc:	01d08463          	beq	ra,t4,8002004 <test_24+0x30>
 8002000:	0f81006f          	j	80120f8 <fail>
    addi x1, x1, 1; \
  )

  TEST_PASSFAIL

RVTEST_CODE_END
 8002004:	c0001073          	unimp

0000000008002008 <test_2>:
  # Branch tests
  #-------------------------------------------------------------

  # Each test checks both forward and backward branches

  TEST_BR2_OP_TAKEN( 2, bgeu, 0x00000000, 0x00000000 );
 8002008:	00200193          	li	gp,2
 800200c:	00000093          	li	ra,0
 8002010:	00000113          	li	sp,0
 8002014:	0020f863          	bleu	sp,ra,8002024 <test_2+0x1c>
 8002018:	00300463          	beq	zero,gp,8002020 <test_2+0x18>
 800201c:	0dc1006f          	j	80120f8 <fail>
 8002020:	00301863          	bne	zero,gp,8002030 <test_3>
 8002024:	fe20fee3          	bleu	sp,ra,8002020 <test_2+0x18>
 8002028:	00300463          	beq	zero,gp,8002030 <test_3>
 800202c:	0cc1006f          	j	80120f8 <fail>

0000000008002030 <test_3>:
  TEST_BR2_OP_TAKEN( 3, bgeu, 0x00000001, 0x00000001 );
 8002030:	00300193          	li	gp,3
 8002034:	00100093          	li	ra,1
 8002038:	00100113          	li	sp,1
 800203c:	0020f863          	bleu	sp,ra,800204c <test_3+0x1c>
 8002040:	00300463          	beq	zero,gp,8002048 <test_3+0x18>
 8002044:	0b41006f          	j	80120f8 <fail>
 8002048:	00301863          	bne	zero,gp,8002058 <test_4>
 800204c:	fe20fee3          	bleu	sp,ra,8002048 <test_3+0x18>
 8002050:	00300463          	beq	zero,gp,8002058 <test_4>
 8002054:	0a41006f          	j	80120f8 <fail>

0000000008002058 <test_4>:
  TEST_BR2_OP_TAKEN( 4, bgeu, 0xffffffff, 0xffffffff );
 8002058:	00400193          	li	gp,4
 800205c:	0010009b          	addiw	ra,zero,1
 8002060:	02009093          	slli	ra,ra,0x20
 8002064:	fff08093          	addi	ra,ra,-1
 8002068:	0010011b          	addiw	sp,zero,1
 800206c:	02011113          	slli	sp,sp,0x20
 8002070:	fff10113          	addi	sp,sp,-1 # 22221fff <_end+0x1a20e99f>
 8002074:	0020f863          	bleu	sp,ra,8002084 <test_4+0x2c>
 8002078:	00300463          	beq	zero,gp,8002080 <test_4+0x28>
 800207c:	07c1006f          	j	80120f8 <fail>
 8002080:	00301863          	bne	zero,gp,8002090 <test_5>
 8002084:	fe20fee3          	bleu	sp,ra,8002080 <test_4+0x28>
 8002088:	00300463          	beq	zero,gp,8002090 <test_5>
 800208c:	06c1006f          	j	80120f8 <fail>

0000000008002090 <test_5>:
  TEST_BR2_OP_TAKEN( 5, bgeu, 0x00000001, 0x00000000 );
 8002090:	00500193          	li	gp,5
 8002094:	00100093          	li	ra,1
 8002098:	00000113          	li	sp,0
 800209c:	0020f863          	bleu	sp,ra,80020ac <test_5+0x1c>
 80020a0:	00300463          	beq	zero,gp,80020a8 <test_5+0x18>
 80020a4:	0541006f          	j	80120f8 <fail>
 80020a8:	00301863          	bne	zero,gp,80020b8 <test_6>
 80020ac:	fe20fee3          	bleu	sp,ra,80020a8 <test_5+0x18>
 80020b0:	00300463          	beq	zero,gp,80020b8 <test_6>
 80020b4:	0441006f          	j	80120f8 <fail>

00000000080020b8 <test_6>:
  TEST_BR2_OP_TAKEN( 6, bgeu, 0xffffffff, 0xfffffffe );
 80020b8:	00600193          	li	gp,6
 80020bc:	0010009b          	addiw	ra,zero,1
 80020c0:	02009093          	slli	ra,ra,0x20
 80020c4:	fff08093          	addi	ra,ra,-1
 80020c8:	0010011b          	addiw	sp,zero,1
 80020cc:	02011113          	slli	sp,sp,0x20
 80020d0:	ffe10113          	addi	sp,sp,-2
 80020d4:	0020f863          	bleu	sp,ra,80020e4 <test_6+0x2c>
 80020d8:	00300463          	beq	zero,gp,80020e0 <test_6+0x28>
 80020dc:	01c1006f          	j	80120f8 <fail>
 80020e0:	00301863          	bne	zero,gp,80020f0 <test_7>
 80020e4:	fe20fee3          	bleu	sp,ra,80020e0 <test_6+0x28>
 80020e8:	00300463          	beq	zero,gp,80020f0 <test_7>
 80020ec:	00c1006f          	j	80120f8 <fail>

00000000080020f0 <test_7>:
  TEST_BR2_OP_TAKEN( 7, bgeu, 0xffffffff, 0x00000000 );
 80020f0:	00700193          	li	gp,7
 80020f4:	0010009b          	addiw	ra,zero,1
 80020f8:	02009093          	slli	ra,ra,0x20
 80020fc:	fff08093          	addi	ra,ra,-1
 8002100:	00000113          	li	sp,0
 8002104:	0020f863          	bleu	sp,ra,8002114 <test_7+0x24>
 8002108:	00300463          	beq	zero,gp,8002110 <test_7+0x20>
 800210c:	7ed0f06f          	j	80120f8 <fail>
 8002110:	00301863          	bne	zero,gp,8002120 <test_8>
 8002114:	fe20fee3          	bleu	sp,ra,8002110 <test_7+0x20>
 8002118:	00300463          	beq	zero,gp,8002120 <test_8>
 800211c:	7dd0f06f          	j	80120f8 <fail>

0000000008002120 <test_8>:

  TEST_BR2_OP_NOTTAKEN(  8, bgeu, 0x00000000, 0x00000001 );
 8002120:	00800193          	li	gp,8
 8002124:	00000093          	li	ra,0
 8002128:	00100113          	li	sp,1
 800212c:	0020f463          	bleu	sp,ra,8002134 <test_8+0x14>
 8002130:	00301663          	bne	zero,gp,800213c <test_8+0x1c>
 8002134:	00300463          	beq	zero,gp,800213c <test_8+0x1c>
 8002138:	7c10f06f          	j	80120f8 <fail>
 800213c:	fe20fce3          	bleu	sp,ra,8002134 <test_8+0x14>

0000000008002140 <test_9>:
  TEST_BR2_OP_NOTTAKEN(  9, bgeu, 0xfffffffe, 0xffffffff );
 8002140:	00900193          	li	gp,9
 8002144:	0010009b          	addiw	ra,zero,1
 8002148:	02009093          	slli	ra,ra,0x20
 800214c:	ffe08093          	addi	ra,ra,-2
 8002150:	0010011b          	addiw	sp,zero,1
 8002154:	02011113          	slli	sp,sp,0x20
 8002158:	fff10113          	addi	sp,sp,-1
 800215c:	0020f463          	bleu	sp,ra,8002164 <test_9+0x24>
 8002160:	00301663          	bne	zero,gp,800216c <test_9+0x2c>
 8002164:	00300463          	beq	zero,gp,800216c <test_9+0x2c>
 8002168:	7910f06f          	j	80120f8 <fail>
 800216c:	fe20fce3          	bleu	sp,ra,8002164 <test_9+0x24>

0000000008002170 <test_10>:
  TEST_BR2_OP_NOTTAKEN( 10, bgeu, 0x00000000, 0xffffffff );
 8002170:	00a00193          	li	gp,10
 8002174:	00000093          	li	ra,0
 8002178:	0010011b          	addiw	sp,zero,1
 800217c:	02011113          	slli	sp,sp,0x20
 8002180:	fff10113          	addi	sp,sp,-1
 8002184:	0020f463          	bleu	sp,ra,800218c <test_10+0x1c>
 8002188:	00301663          	bne	zero,gp,8002194 <test_10+0x24>
 800218c:	00300463          	beq	zero,gp,8002194 <test_10+0x24>
 8002190:	7690f06f          	j	80120f8 <fail>
 8002194:	fe20fce3          	bleu	sp,ra,800218c <test_10+0x1c>

0000000008002198 <test_11>:
  TEST_BR2_OP_NOTTAKEN( 11, bgeu, 0x7fffffff, 0x80000000 );
 8002198:	00b00193          	li	gp,11
 800219c:	800000b7          	lui	ra,0x80000
 80021a0:	fff0809b          	addiw	ra,ra,-1
 80021a4:	0010011b          	addiw	sp,zero,1
 80021a8:	01f11113          	slli	sp,sp,0x1f
 80021ac:	0020f463          	bleu	sp,ra,80021b4 <test_11+0x1c>
 80021b0:	00301663          	bne	zero,gp,80021bc <test_11+0x24>
 80021b4:	00300463          	beq	zero,gp,80021bc <test_11+0x24>
 80021b8:	7410f06f          	j	80120f8 <fail>
 80021bc:	fe20fce3          	bleu	sp,ra,80021b4 <test_11+0x1c>

00000000080021c0 <test_12>:

  #-------------------------------------------------------------
  # Bypassing tests
  #-------------------------------------------------------------

  TEST_BR2_SRC12_BYPASS( 12, 0, 0, bgeu, 0xefffffff, 0xf0000000 );
 80021c0:	00c00193          	li	gp,12
 80021c4:	00000213          	li	tp,0
 80021c8:	00f0009b          	addiw	ra,zero,15
 80021cc:	01c09093          	slli	ra,ra,0x1c
 80021d0:	fff08093          	addi	ra,ra,-1 # ffffffff7fffffff <_end+0xffffffff77fec99f>
 80021d4:	00f0011b          	addiw	sp,zero,15
 80021d8:	01c11113          	slli	sp,sp,0x1c
 80021dc:	0020e463          	bltu	ra,sp,80021e4 <test_12+0x24>
 80021e0:	7190f06f          	j	80120f8 <fail>
 80021e4:	00120213          	addi	tp,tp,1 # 1 <u_mode_trap_table-0x8000003>
 80021e8:	00200293          	li	t0,2
 80021ec:	fc521ee3          	bne	tp,t0,80021c8 <test_12+0x8>

00000000080021f0 <test_13>:
  TEST_BR2_SRC12_BYPASS( 13, 0, 1, bgeu, 0xefffffff, 0xf0000000 );
 80021f0:	00d00193          	li	gp,13
 80021f4:	00000213          	li	tp,0
 80021f8:	00f0009b          	addiw	ra,zero,15
 80021fc:	01c09093          	slli	ra,ra,0x1c
 8002200:	fff08093          	addi	ra,ra,-1
 8002204:	00f0011b          	addiw	sp,zero,15
 8002208:	01c11113          	slli	sp,sp,0x1c
 800220c:	00000013          	nop
 8002210:	0020e463          	bltu	ra,sp,8002218 <test_13+0x28>
 8002214:	6e50f06f          	j	80120f8 <fail>
 8002218:	00120213          	addi	tp,tp,1 # 1 <u_mode_trap_table-0x8000003>
 800221c:	00200293          	li	t0,2
 8002220:	fc521ce3          	bne	tp,t0,80021f8 <test_13+0x8>

0000000008002224 <test_14>:
  TEST_BR2_SRC12_BYPASS( 14, 0, 2, bgeu, 0xefffffff, 0xf0000000 );
 8002224:	00e00193          	li	gp,14
 8002228:	00000213          	li	tp,0
 800222c:	00f0009b          	addiw	ra,zero,15
 8002230:	01c09093          	slli	ra,ra,0x1c
 8002234:	fff08093          	addi	ra,ra,-1
 8002238:	00f0011b          	addiw	sp,zero,15
 800223c:	01c11113          	slli	sp,sp,0x1c
 8002240:	00000013          	nop
 8002244:	00000013          	nop
 8002248:	0020e463          	bltu	ra,sp,8002250 <test_14+0x2c>
 800224c:	6ad0f06f          	j	80120f8 <fail>
 8002250:	00120213          	addi	tp,tp,1 # 1 <u_mode_trap_table-0x8000003>
 8002254:	00200293          	li	t0,2
 8002258:	fc521ae3          	bne	tp,t0,800222c <test_14+0x8>

000000000800225c <test_15>:
  TEST_BR2_SRC12_BYPASS( 15, 1, 0, bgeu, 0xefffffff, 0xf0000000 );
 800225c:	00f00193          	li	gp,15
 8002260:	00000213          	li	tp,0
 8002264:	00f0009b          	addiw	ra,zero,15
 8002268:	01c09093          	slli	ra,ra,0x1c
 800226c:	fff08093          	addi	ra,ra,-1
 8002270:	00000013          	nop
 8002274:	00f0011b          	addiw	sp,zero,15
 8002278:	01c11113          	slli	sp,sp,0x1c
 800227c:	0020e463          	bltu	ra,sp,8002284 <test_15+0x28>
 8002280:	6790f06f          	j	80120f8 <fail>
 8002284:	00120213          	addi	tp,tp,1 # 1 <u_mode_trap_table-0x8000003>
 8002288:	00200293          	li	t0,2
 800228c:	fc521ce3          	bne	tp,t0,8002264 <test_15+0x8>

0000000008002290 <test_16>:
  TEST_BR2_SRC12_BYPASS( 16, 1, 1, bgeu, 0xefffffff, 0xf0000000 );
 8002290:	01000193          	li	gp,16
 8002294:	00000213          	li	tp,0
 8002298:	00f0009b          	addiw	ra,zero,15
 800229c:	01c09093          	slli	ra,ra,0x1c
 80022a0:	fff08093          	addi	ra,ra,-1
 80022a4:	00000013          	nop
 80022a8:	00f0011b          	addiw	sp,zero,15
 80022ac:	01c11113          	slli	sp,sp,0x1c
 80022b0:	00000013          	nop
 80022b4:	0020e463          	bltu	ra,sp,80022bc <test_16+0x2c>
 80022b8:	6410f06f          	j	80120f8 <fail>
 80022bc:	00120213          	addi	tp,tp,1 # 1 <u_mode_trap_table-0x8000003>
 80022c0:	00200293          	li	t0,2
 80022c4:	fc521ae3          	bne	tp,t0,8002298 <test_16+0x8>

00000000080022c8 <test_17>:
  TEST_BR2_SRC12_BYPASS( 17, 2, 0, bgeu, 0xefffffff, 0xf0000000 );
 80022c8:	01100193          	li	gp,17
 80022cc:	00000213          	li	tp,0
 80022d0:	00f0009b          	addiw	ra,zero,15
 80022d4:	01c09093          	slli	ra,ra,0x1c
 80022d8:	fff08093          	addi	ra,ra,-1
 80022dc:	00000013          	nop
 80022e0:	00000013          	nop
 80022e4:	00f0011b          	addiw	sp,zero,15
 80022e8:	01c11113          	slli	sp,sp,0x1c
 80022ec:	0020e463          	bltu	ra,sp,80022f4 <test_17+0x2c>
 80022f0:	6090f06f          	j	80120f8 <fail>
 80022f4:	00120213          	addi	tp,tp,1 # 1 <u_mode_trap_table-0x8000003>
 80022f8:	00200293          	li	t0,2
 80022fc:	fc521ae3          	bne	tp,t0,80022d0 <test_17+0x8>

0000000008002300 <test_18>:

  TEST_BR2_SRC12_BYPASS( 18, 0, 0, bgeu, 0xefffffff, 0xf0000000 );
 8002300:	01200193          	li	gp,18
 8002304:	00000213          	li	tp,0
 8002308:	00f0009b          	addiw	ra,zero,15
 800230c:	01c09093          	slli	ra,ra,0x1c
 8002310:	fff08093          	addi	ra,ra,-1
 8002314:	00f0011b          	addiw	sp,zero,15
 8002318:	01c11113          	slli	sp,sp,0x1c
 800231c:	0020e463          	bltu	ra,sp,8002324 <test_18+0x24>
 8002320:	5d90f06f          	j	80120f8 <fail>
 8002324:	00120213          	addi	tp,tp,1 # 1 <u_mode_trap_table-0x8000003>
 8002328:	00200293          	li	t0,2
 800232c:	fc521ee3          	bne	tp,t0,8002308 <test_18+0x8>

0000000008002330 <test_19>:
  TEST_BR2_SRC12_BYPASS( 19, 0, 1, bgeu, 0xefffffff, 0xf0000000 );
 8002330:	01300193          	li	gp,19
 8002334:	00000213          	li	tp,0
 8002338:	00f0009b          	addiw	ra,zero,15
 800233c:	01c09093          	slli	ra,ra,0x1c
 8002340:	fff08093          	addi	ra,ra,-1
 8002344:	00f0011b          	addiw	sp,zero,15
 8002348:	01c11113          	slli	sp,sp,0x1c
 800234c:	00000013          	nop
 8002350:	0020e463          	bltu	ra,sp,8002358 <test_19+0x28>
 8002354:	5a50f06f          	j	80120f8 <fail>
 8002358:	00120213          	addi	tp,tp,1 # 1 <u_mode_trap_table-0x8000003>
 800235c:	00200293          	li	t0,2
 8002360:	fc521ce3          	bne	tp,t0,8002338 <test_19+0x8>

0000000008002364 <test_20>:
  TEST_BR2_SRC12_BYPASS( 20, 0, 2, bgeu, 0xefffffff, 0xf0000000 );
 8002364:	01400193          	li	gp,20
 8002368:	00000213          	li	tp,0
 800236c:	00f0009b          	addiw	ra,zero,15
 8002370:	01c09093          	slli	ra,ra,0x1c
 8002374:	fff08093          	addi	ra,ra,-1
 8002378:	00f0011b          	addiw	sp,zero,15
 800237c:	01c11113          	slli	sp,sp,0x1c
 8002380:	00000013          	nop
 8002384:	00000013          	nop
 8002388:	0020e463          	bltu	ra,sp,8002390 <test_20+0x2c>
 800238c:	56d0f06f          	j	80120f8 <fail>
 8002390:	00120213          	addi	tp,tp,1 # 1 <u_mode_trap_table-0x8000003>
 8002394:	00200293          	li	t0,2
 8002398:	fc521ae3          	bne	tp,t0,800236c <test_20+0x8>

000000000800239c <test_21>:
  TEST_BR2_SRC12_BYPASS( 21, 1, 0, bgeu, 0xefffffff, 0xf0000000 );
 800239c:	01500193          	li	gp,21
 80023a0:	00000213          	li	tp,0
 80023a4:	00f0009b          	addiw	ra,zero,15
 80023a8:	01c09093          	slli	ra,ra,0x1c
 80023ac:	fff08093          	addi	ra,ra,-1
 80023b0:	00000013          	nop
 80023b4:	00f0011b          	addiw	sp,zero,15
 80023b8:	01c11113          	slli	sp,sp,0x1c
 80023bc:	0020e463          	bltu	ra,sp,80023c4 <test_21+0x28>
 80023c0:	5390f06f          	j	80120f8 <fail>
 80023c4:	00120213          	addi	tp,tp,1 # 1 <u_mode_trap_table-0x8000003>
 80023c8:	00200293          	li	t0,2
 80023cc:	fc521ce3          	bne	tp,t0,80023a4 <test_21+0x8>

00000000080023d0 <test_22>:
  TEST_BR2_SRC12_BYPASS( 22, 1, 1, bgeu, 0xefffffff, 0xf0000000 );
 80023d0:	01600193          	li	gp,22
 80023d4:	00000213          	li	tp,0
 80023d8:	00f0009b          	addiw	ra,zero,15
 80023dc:	01c09093          	slli	ra,ra,0x1c
 80023e0:	fff08093          	addi	ra,ra,-1
 80023e4:	00000013          	nop
 80023e8:	00f0011b          	addiw	sp,zero,15
 80023ec:	01c11113          	slli	sp,sp,0x1c
 80023f0:	00000013          	nop
 80023f4:	0020e463          	bltu	ra,sp,80023fc <test_22+0x2c>
 80023f8:	5010f06f          	j	80120f8 <fail>
 80023fc:	00120213          	addi	tp,tp,1 # 1 <u_mode_trap_table-0x8000003>
 8002400:	00200293          	li	t0,2
 8002404:	fc521ae3          	bne	tp,t0,80023d8 <test_22+0x8>

0000000008002408 <test_23>:
  TEST_BR2_SRC12_BYPASS( 23, 2, 0, bgeu, 0xefffffff, 0xf0000000 );
 8002408:	01700193          	li	gp,23
 800240c:	00000213          	li	tp,0
 8002410:	00f0009b          	addiw	ra,zero,15
 8002414:	01c09093          	slli	ra,ra,0x1c
 8002418:	fff08093          	addi	ra,ra,-1
 800241c:	00000013          	nop
 8002420:	00000013          	nop
 8002424:	00f0011b          	addiw	sp,zero,15
 8002428:	01c11113          	slli	sp,sp,0x1c
 800242c:	0020e463          	bltu	ra,sp,8002434 <test_23+0x2c>
 8002430:	4c90f06f          	j	80120f8 <fail>
 8002434:	00120213          	addi	tp,tp,1 # 1 <u_mode_trap_table-0x8000003>
 8002438:	00200293          	li	t0,2
 800243c:	fc521ae3          	bne	tp,t0,8002410 <test_23+0x8>

0000000008002440 <test_24>:

  #-------------------------------------------------------------
  # Test delay slot instructions not executed nor bypassed
  #-------------------------------------------------------------

  TEST_CASE( 24, x1, 3, \
 8002440:	00100093          	li	ra,1
 8002444:	0000fa63          	bleu	zero,ra,8002458 <test_24+0x18>
 8002448:	00108093          	addi	ra,ra,1
 800244c:	00108093          	addi	ra,ra,1
 8002450:	00108093          	addi	ra,ra,1
 8002454:	00108093          	addi	ra,ra,1
 8002458:	00108093          	addi	ra,ra,1
 800245c:	00108093          	addi	ra,ra,1
 8002460:	00300e93          	li	t4,3
 8002464:	01800193          	li	gp,24
 8002468:	01d08463          	beq	ra,t4,8002470 <test_24+0x30>
 800246c:	48d0f06f          	j	80120f8 <fail>
    addi x1, x1, 1; \
  )

  TEST_PASSFAIL

RVTEST_CODE_END
 8002470:	c0001073          	unimp

0000000008002474 <test_2>:
  # Branch tests
  #-------------------------------------------------------------

  # Each test checks both forward and backward branches

  TEST_BR2_OP_TAKEN( 2, blt,  0,  1 );
 8002474:	00200193          	li	gp,2
 8002478:	00000093          	li	ra,0
 800247c:	00100113          	li	sp,1
 8002480:	0020c863          	blt	ra,sp,8002490 <test_2+0x1c>
 8002484:	00300463          	beq	zero,gp,800248c <test_2+0x18>
 8002488:	4710f06f          	j	80120f8 <fail>
 800248c:	00301863          	bne	zero,gp,800249c <test_3>
 8002490:	fe20cee3          	blt	ra,sp,800248c <test_2+0x18>
 8002494:	00300463          	beq	zero,gp,800249c <test_3>
 8002498:	4610f06f          	j	80120f8 <fail>

000000000800249c <test_3>:
  TEST_BR2_OP_TAKEN( 3, blt, -1,  1 );
 800249c:	00300193          	li	gp,3
 80024a0:	fff00093          	li	ra,-1
 80024a4:	00100113          	li	sp,1
 80024a8:	0020c863          	blt	ra,sp,80024b8 <test_3+0x1c>
 80024ac:	00300463          	beq	zero,gp,80024b4 <test_3+0x18>
 80024b0:	4490f06f          	j	80120f8 <fail>
 80024b4:	00301863          	bne	zero,gp,80024c4 <test_4>
 80024b8:	fe20cee3          	blt	ra,sp,80024b4 <test_3+0x18>
 80024bc:	00300463          	beq	zero,gp,80024c4 <test_4>
 80024c0:	4390f06f          	j	80120f8 <fail>

00000000080024c4 <test_4>:
  TEST_BR2_OP_TAKEN( 4, blt, -2, -1 );
 80024c4:	00400193          	li	gp,4
 80024c8:	ffe00093          	li	ra,-2
 80024cc:	fff00113          	li	sp,-1
 80024d0:	0020c863          	blt	ra,sp,80024e0 <test_4+0x1c>
 80024d4:	00300463          	beq	zero,gp,80024dc <test_4+0x18>
 80024d8:	4210f06f          	j	80120f8 <fail>
 80024dc:	00301863          	bne	zero,gp,80024ec <test_5>
 80024e0:	fe20cee3          	blt	ra,sp,80024dc <test_4+0x18>
 80024e4:	00300463          	beq	zero,gp,80024ec <test_5>
 80024e8:	4110f06f          	j	80120f8 <fail>

00000000080024ec <test_5>:

  TEST_BR2_OP_NOTTAKEN( 5, blt,  1,  0 );
 80024ec:	00500193          	li	gp,5
 80024f0:	00100093          	li	ra,1
 80024f4:	00000113          	li	sp,0
 80024f8:	0020c463          	blt	ra,sp,8002500 <test_5+0x14>
 80024fc:	00301663          	bne	zero,gp,8002508 <test_5+0x1c>
 8002500:	00300463          	beq	zero,gp,8002508 <test_5+0x1c>
 8002504:	3f50f06f          	j	80120f8 <fail>
 8002508:	fe20cce3          	blt	ra,sp,8002500 <test_5+0x14>

000000000800250c <test_6>:
  TEST_BR2_OP_NOTTAKEN( 6, blt,  1, -1 );
 800250c:	00600193          	li	gp,6
 8002510:	00100093          	li	ra,1
 8002514:	fff00113          	li	sp,-1
 8002518:	0020c463          	blt	ra,sp,8002520 <test_6+0x14>
 800251c:	00301663          	bne	zero,gp,8002528 <test_6+0x1c>
 8002520:	00300463          	beq	zero,gp,8002528 <test_6+0x1c>
 8002524:	3d50f06f          	j	80120f8 <fail>
 8002528:	fe20cce3          	blt	ra,sp,8002520 <test_6+0x14>

000000000800252c <test_7>:
  TEST_BR2_OP_NOTTAKEN( 7, blt, -1, -2 );
 800252c:	00700193          	li	gp,7
 8002530:	fff00093          	li	ra,-1
 8002534:	ffe00113          	li	sp,-2
 8002538:	0020c463          	blt	ra,sp,8002540 <test_7+0x14>
 800253c:	00301663          	bne	zero,gp,8002548 <test_7+0x1c>
 8002540:	00300463          	beq	zero,gp,8002548 <test_7+0x1c>
 8002544:	3b50f06f          	j	80120f8 <fail>
 8002548:	fe20cce3          	blt	ra,sp,8002540 <test_7+0x14>

000000000800254c <test_8>:
  TEST_BR2_OP_NOTTAKEN( 8, blt,  1, -2 );
 800254c:	00800193          	li	gp,8
 8002550:	00100093          	li	ra,1
 8002554:	ffe00113          	li	sp,-2
 8002558:	0020c463          	blt	ra,sp,8002560 <test_8+0x14>
 800255c:	00301663          	bne	zero,gp,8002568 <test_8+0x1c>
 8002560:	00300463          	beq	zero,gp,8002568 <test_8+0x1c>
 8002564:	3950f06f          	j	80120f8 <fail>
 8002568:	fe20cce3          	blt	ra,sp,8002560 <test_8+0x14>

000000000800256c <test_9>:

  #-------------------------------------------------------------
  # Bypassing tests
  #-------------------------------------------------------------

  TEST_BR2_SRC12_BYPASS( 9,  0, 0, blt, 0, -1 );
 800256c:	00900193          	li	gp,9
 8002570:	00000213          	li	tp,0
 8002574:	00000093          	li	ra,0
 8002578:	fff00113          	li	sp,-1
 800257c:	0020d463          	ble	sp,ra,8002584 <test_9+0x18>
 8002580:	3790f06f          	j	80120f8 <fail>
 8002584:	00120213          	addi	tp,tp,1 # 1 <u_mode_trap_table-0x8000003>
 8002588:	00200293          	li	t0,2
 800258c:	fe5214e3          	bne	tp,t0,8002574 <test_9+0x8>

0000000008002590 <test_10>:
  TEST_BR2_SRC12_BYPASS( 10, 0, 1, blt, 0, -1 );
 8002590:	00a00193          	li	gp,10
 8002594:	00000213          	li	tp,0
 8002598:	00000093          	li	ra,0
 800259c:	fff00113          	li	sp,-1
 80025a0:	00000013          	nop
 80025a4:	0020d463          	ble	sp,ra,80025ac <test_10+0x1c>
 80025a8:	3510f06f          	j	80120f8 <fail>
 80025ac:	00120213          	addi	tp,tp,1 # 1 <u_mode_trap_table-0x8000003>
 80025b0:	00200293          	li	t0,2
 80025b4:	fe5212e3          	bne	tp,t0,8002598 <test_10+0x8>

00000000080025b8 <test_11>:
  TEST_BR2_SRC12_BYPASS( 11, 0, 2, blt, 0, -1 );
 80025b8:	00b00193          	li	gp,11
 80025bc:	00000213          	li	tp,0
 80025c0:	00000093          	li	ra,0
 80025c4:	fff00113          	li	sp,-1
 80025c8:	00000013          	nop
 80025cc:	00000013          	nop
 80025d0:	0020d463          	ble	sp,ra,80025d8 <test_11+0x20>
 80025d4:	3250f06f          	j	80120f8 <fail>
 80025d8:	00120213          	addi	tp,tp,1 # 1 <u_mode_trap_table-0x8000003>
 80025dc:	00200293          	li	t0,2
 80025e0:	fe5210e3          	bne	tp,t0,80025c0 <test_11+0x8>

00000000080025e4 <test_12>:
  TEST_BR2_SRC12_BYPASS( 12, 1, 0, blt, 0, -1 );
 80025e4:	00c00193          	li	gp,12
 80025e8:	00000213          	li	tp,0
 80025ec:	00000093          	li	ra,0
 80025f0:	00000013          	nop
 80025f4:	fff00113          	li	sp,-1
 80025f8:	0020d463          	ble	sp,ra,8002600 <test_12+0x1c>
 80025fc:	2fd0f06f          	j	80120f8 <fail>
 8002600:	00120213          	addi	tp,tp,1 # 1 <u_mode_trap_table-0x8000003>
 8002604:	00200293          	li	t0,2
 8002608:	fe5212e3          	bne	tp,t0,80025ec <test_12+0x8>

000000000800260c <test_13>:
  TEST_BR2_SRC12_BYPASS( 13, 1, 1, blt, 0, -1 );
 800260c:	00d00193          	li	gp,13
 8002610:	00000213          	li	tp,0
 8002614:	00000093          	li	ra,0
 8002618:	00000013          	nop
 800261c:	fff00113          	li	sp,-1
 8002620:	00000013          	nop
 8002624:	0020d463          	ble	sp,ra,800262c <test_13+0x20>
 8002628:	2d10f06f          	j	80120f8 <fail>
 800262c:	00120213          	addi	tp,tp,1 # 1 <u_mode_trap_table-0x8000003>
 8002630:	00200293          	li	t0,2
 8002634:	fe5210e3          	bne	tp,t0,8002614 <test_13+0x8>

0000000008002638 <test_14>:
  TEST_BR2_SRC12_BYPASS( 14, 2, 0, blt, 0, -1 );
 8002638:	00e00193          	li	gp,14
 800263c:	00000213          	li	tp,0
 8002640:	00000093          	li	ra,0
 8002644:	00000013          	nop
 8002648:	00000013          	nop
 800264c:	fff00113          	li	sp,-1
 8002650:	0020d463          	ble	sp,ra,8002658 <test_14+0x20>
 8002654:	2a50f06f          	j	80120f8 <fail>
 8002658:	00120213          	addi	tp,tp,1 # 1 <u_mode_trap_table-0x8000003>
 800265c:	00200293          	li	t0,2
 8002660:	fe5210e3          	bne	tp,t0,8002640 <test_14+0x8>

0000000008002664 <test_15>:

  TEST_BR2_SRC12_BYPASS( 15, 0, 0, blt, 0, -1 );
 8002664:	00f00193          	li	gp,15
 8002668:	00000213          	li	tp,0
 800266c:	00000093          	li	ra,0
 8002670:	fff00113          	li	sp,-1
 8002674:	0020d463          	ble	sp,ra,800267c <test_15+0x18>
 8002678:	2810f06f          	j	80120f8 <fail>
 800267c:	00120213          	addi	tp,tp,1 # 1 <u_mode_trap_table-0x8000003>
 8002680:	00200293          	li	t0,2
 8002684:	fe5214e3          	bne	tp,t0,800266c <test_15+0x8>

0000000008002688 <test_16>:
  TEST_BR2_SRC12_BYPASS( 16, 0, 1, blt, 0, -1 );
 8002688:	01000193          	li	gp,16
 800268c:	00000213          	li	tp,0
 8002690:	00000093          	li	ra,0
 8002694:	fff00113          	li	sp,-1
 8002698:	00000013          	nop
 800269c:	0020d463          	ble	sp,ra,80026a4 <test_16+0x1c>
 80026a0:	2590f06f          	j	80120f8 <fail>
 80026a4:	00120213          	addi	tp,tp,1 # 1 <u_mode_trap_table-0x8000003>
 80026a8:	00200293          	li	t0,2
 80026ac:	fe5212e3          	bne	tp,t0,8002690 <test_16+0x8>

00000000080026b0 <test_17>:
  TEST_BR2_SRC12_BYPASS( 17, 0, 2, blt, 0, -1 );
 80026b0:	01100193          	li	gp,17
 80026b4:	00000213          	li	tp,0
 80026b8:	00000093          	li	ra,0
 80026bc:	fff00113          	li	sp,-1
 80026c0:	00000013          	nop
 80026c4:	00000013          	nop
 80026c8:	0020d463          	ble	sp,ra,80026d0 <test_17+0x20>
 80026cc:	22d0f06f          	j	80120f8 <fail>
 80026d0:	00120213          	addi	tp,tp,1 # 1 <u_mode_trap_table-0x8000003>
 80026d4:	00200293          	li	t0,2
 80026d8:	fe5210e3          	bne	tp,t0,80026b8 <test_17+0x8>

00000000080026dc <test_18>:
  TEST_BR2_SRC12_BYPASS( 18, 1, 0, blt, 0, -1 );
 80026dc:	01200193          	li	gp,18
 80026e0:	00000213          	li	tp,0
 80026e4:	00000093          	li	ra,0
 80026e8:	00000013          	nop
 80026ec:	fff00113          	li	sp,-1
 80026f0:	0020d463          	ble	sp,ra,80026f8 <test_18+0x1c>
 80026f4:	2050f06f          	j	80120f8 <fail>
 80026f8:	00120213          	addi	tp,tp,1 # 1 <u_mode_trap_table-0x8000003>
 80026fc:	00200293          	li	t0,2
 8002700:	fe5212e3          	bne	tp,t0,80026e4 <test_18+0x8>

0000000008002704 <test_19>:
  TEST_BR2_SRC12_BYPASS( 19, 1, 1, blt, 0, -1 );
 8002704:	01300193          	li	gp,19
 8002708:	00000213          	li	tp,0
 800270c:	00000093          	li	ra,0
 8002710:	00000013          	nop
 8002714:	fff00113          	li	sp,-1
 8002718:	00000013          	nop
 800271c:	0020d463          	ble	sp,ra,8002724 <test_19+0x20>
 8002720:	1d90f06f          	j	80120f8 <fail>
 8002724:	00120213          	addi	tp,tp,1 # 1 <u_mode_trap_table-0x8000003>
 8002728:	00200293          	li	t0,2
 800272c:	fe5210e3          	bne	tp,t0,800270c <test_19+0x8>

0000000008002730 <test_20>:
  TEST_BR2_SRC12_BYPASS( 20, 2, 0, blt, 0, -1 );
 8002730:	01400193          	li	gp,20
 8002734:	00000213          	li	tp,0
 8002738:	00000093          	li	ra,0
 800273c:	00000013          	nop
 8002740:	00000013          	nop
 8002744:	fff00113          	li	sp,-1
 8002748:	0020d463          	ble	sp,ra,8002750 <test_20+0x20>
 800274c:	1ad0f06f          	j	80120f8 <fail>
 8002750:	00120213          	addi	tp,tp,1 # 1 <u_mode_trap_table-0x8000003>
 8002754:	00200293          	li	t0,2
 8002758:	fe5210e3          	bne	tp,t0,8002738 <test_20+0x8>

000000000800275c <test_21>:

  #-------------------------------------------------------------
  # Test delay slot instructions not executed nor bypassed
  #-------------------------------------------------------------

  TEST_CASE( 21, x1, 3, \
 800275c:	00100093          	li	ra,1
 8002760:	00104a63          	bgtz	ra,8002774 <test_21+0x18>
 8002764:	00108093          	addi	ra,ra,1
 8002768:	00108093          	addi	ra,ra,1
 800276c:	00108093          	addi	ra,ra,1
 8002770:	00108093          	addi	ra,ra,1
 8002774:	00108093          	addi	ra,ra,1
 8002778:	00108093          	addi	ra,ra,1
 800277c:	00300e93          	li	t4,3
 8002780:	01500193          	li	gp,21
 8002784:	01d08463          	beq	ra,t4,800278c <test_21+0x30>
 8002788:	1710f06f          	j	80120f8 <fail>
    addi x1, x1, 1; \
  )

  TEST_PASSFAIL

RVTEST_CODE_END
 800278c:	c0001073          	unimp

0000000008002790 <test_2>:
  # Branch tests
  #-------------------------------------------------------------

  # Each test checks both forward and backward branches

  TEST_BR2_OP_TAKEN( 2, bltu, 0x00000000, 0x00000001 );
 8002790:	00200193          	li	gp,2
 8002794:	00000093          	li	ra,0
 8002798:	00100113          	li	sp,1
 800279c:	0020e863          	bltu	ra,sp,80027ac <test_2+0x1c>
 80027a0:	00300463          	beq	zero,gp,80027a8 <test_2+0x18>
 80027a4:	1550f06f          	j	80120f8 <fail>
 80027a8:	00301863          	bne	zero,gp,80027b8 <test_3>
 80027ac:	fe20eee3          	bltu	ra,sp,80027a8 <test_2+0x18>
 80027b0:	00300463          	beq	zero,gp,80027b8 <test_3>
 80027b4:	1450f06f          	j	80120f8 <fail>

00000000080027b8 <test_3>:
  TEST_BR2_OP_TAKEN( 3, bltu, 0xfffffffe, 0xffffffff );
 80027b8:	00300193          	li	gp,3
 80027bc:	0010009b          	addiw	ra,zero,1
 80027c0:	02009093          	slli	ra,ra,0x20
 80027c4:	ffe08093          	addi	ra,ra,-2
 80027c8:	0010011b          	addiw	sp,zero,1
 80027cc:	02011113          	slli	sp,sp,0x20
 80027d0:	fff10113          	addi	sp,sp,-1
 80027d4:	0020e863          	bltu	ra,sp,80027e4 <test_3+0x2c>
 80027d8:	00300463          	beq	zero,gp,80027e0 <test_3+0x28>
 80027dc:	11d0f06f          	j	80120f8 <fail>
 80027e0:	00301863          	bne	zero,gp,80027f0 <test_4>
 80027e4:	fe20eee3          	bltu	ra,sp,80027e0 <test_3+0x28>
 80027e8:	00300463          	beq	zero,gp,80027f0 <test_4>
 80027ec:	10d0f06f          	j	80120f8 <fail>

00000000080027f0 <test_4>:
  TEST_BR2_OP_TAKEN( 4, bltu, 0x00000000, 0xffffffff );
 80027f0:	00400193          	li	gp,4
 80027f4:	00000093          	li	ra,0
 80027f8:	0010011b          	addiw	sp,zero,1
 80027fc:	02011113          	slli	sp,sp,0x20
 8002800:	fff10113          	addi	sp,sp,-1
 8002804:	0020e863          	bltu	ra,sp,8002814 <test_4+0x24>
 8002808:	00300463          	beq	zero,gp,8002810 <test_4+0x20>
 800280c:	0ed0f06f          	j	80120f8 <fail>
 8002810:	00301863          	bne	zero,gp,8002820 <test_5>
 8002814:	fe20eee3          	bltu	ra,sp,8002810 <test_4+0x20>
 8002818:	00300463          	beq	zero,gp,8002820 <test_5>
 800281c:	0dd0f06f          	j	80120f8 <fail>

0000000008002820 <test_5>:

  TEST_BR2_OP_NOTTAKEN( 5, bltu, 0x00000001, 0x00000000 );
 8002820:	00500193          	li	gp,5
 8002824:	00100093          	li	ra,1
 8002828:	00000113          	li	sp,0
 800282c:	0020e463          	bltu	ra,sp,8002834 <test_5+0x14>
 8002830:	00301663          	bne	zero,gp,800283c <test_5+0x1c>
 8002834:	00300463          	beq	zero,gp,800283c <test_5+0x1c>
 8002838:	0c10f06f          	j	80120f8 <fail>
 800283c:	fe20ece3          	bltu	ra,sp,8002834 <test_5+0x14>

0000000008002840 <test_6>:
  TEST_BR2_OP_NOTTAKEN( 6, bltu, 0xffffffff, 0xfffffffe );
 8002840:	00600193          	li	gp,6
 8002844:	0010009b          	addiw	ra,zero,1
 8002848:	02009093          	slli	ra,ra,0x20
 800284c:	fff08093          	addi	ra,ra,-1
 8002850:	0010011b          	addiw	sp,zero,1
 8002854:	02011113          	slli	sp,sp,0x20
 8002858:	ffe10113          	addi	sp,sp,-2
 800285c:	0020e463          	bltu	ra,sp,8002864 <test_6+0x24>
 8002860:	00301663          	bne	zero,gp,800286c <test_6+0x2c>
 8002864:	00300463          	beq	zero,gp,800286c <test_6+0x2c>
 8002868:	0910f06f          	j	80120f8 <fail>
 800286c:	fe20ece3          	bltu	ra,sp,8002864 <test_6+0x24>

0000000008002870 <test_7>:
  TEST_BR2_OP_NOTTAKEN( 7, bltu, 0xffffffff, 0x00000000 );
 8002870:	00700193          	li	gp,7
 8002874:	0010009b          	addiw	ra,zero,1
 8002878:	02009093          	slli	ra,ra,0x20
 800287c:	fff08093          	addi	ra,ra,-1
 8002880:	00000113          	li	sp,0
 8002884:	0020e463          	bltu	ra,sp,800288c <test_7+0x1c>
 8002888:	00301663          	bne	zero,gp,8002894 <test_7+0x24>
 800288c:	00300463          	beq	zero,gp,8002894 <test_7+0x24>
 8002890:	0690f06f          	j	80120f8 <fail>
 8002894:	fe20ece3          	bltu	ra,sp,800288c <test_7+0x1c>

0000000008002898 <test_8>:
  TEST_BR2_OP_NOTTAKEN( 8, bltu, 0x80000000, 0x7fffffff );
 8002898:	00800193          	li	gp,8
 800289c:	0010009b          	addiw	ra,zero,1
 80028a0:	01f09093          	slli	ra,ra,0x1f
 80028a4:	80000137          	lui	sp,0x80000
 80028a8:	fff1011b          	addiw	sp,sp,-1
 80028ac:	0020e463          	bltu	ra,sp,80028b4 <test_8+0x1c>
 80028b0:	00301663          	bne	zero,gp,80028bc <test_8+0x24>
 80028b4:	00300463          	beq	zero,gp,80028bc <test_8+0x24>
 80028b8:	0410f06f          	j	80120f8 <fail>
 80028bc:	fe20ece3          	bltu	ra,sp,80028b4 <test_8+0x1c>

00000000080028c0 <test_9>:

  #-------------------------------------------------------------
  # Bypassing tests
  #-------------------------------------------------------------

  TEST_BR2_SRC12_BYPASS( 9,  0, 0, bltu, 0xf0000000, 0xefffffff );
 80028c0:	00900193          	li	gp,9
 80028c4:	00000213          	li	tp,0
 80028c8:	00f0009b          	addiw	ra,zero,15
 80028cc:	01c09093          	slli	ra,ra,0x1c
 80028d0:	00f0011b          	addiw	sp,zero,15
 80028d4:	01c11113          	slli	sp,sp,0x1c
 80028d8:	fff10113          	addi	sp,sp,-1 # ffffffff7fffffff <_end+0xffffffff77fec99f>
 80028dc:	0020f463          	bleu	sp,ra,80028e4 <test_9+0x24>
 80028e0:	0190f06f          	j	80120f8 <fail>
 80028e4:	00120213          	addi	tp,tp,1 # 1 <u_mode_trap_table-0x8000003>
 80028e8:	00200293          	li	t0,2
 80028ec:	fc521ee3          	bne	tp,t0,80028c8 <test_9+0x8>

00000000080028f0 <test_10>:
  TEST_BR2_SRC12_BYPASS( 10, 0, 1, bltu, 0xf0000000, 0xefffffff );
 80028f0:	00a00193          	li	gp,10
 80028f4:	00000213          	li	tp,0
 80028f8:	00f0009b          	addiw	ra,zero,15
 80028fc:	01c09093          	slli	ra,ra,0x1c
 8002900:	00f0011b          	addiw	sp,zero,15
 8002904:	01c11113          	slli	sp,sp,0x1c
 8002908:	fff10113          	addi	sp,sp,-1
 800290c:	00000013          	nop
 8002910:	0020f463          	bleu	sp,ra,8002918 <test_10+0x28>
 8002914:	7e40f06f          	j	80120f8 <fail>
 8002918:	00120213          	addi	tp,tp,1 # 1 <u_mode_trap_table-0x8000003>
 800291c:	00200293          	li	t0,2
 8002920:	fc521ce3          	bne	tp,t0,80028f8 <test_10+0x8>

0000000008002924 <test_11>:
  TEST_BR2_SRC12_BYPASS( 11, 0, 2, bltu, 0xf0000000, 0xefffffff );
 8002924:	00b00193          	li	gp,11
 8002928:	00000213          	li	tp,0
 800292c:	00f0009b          	addiw	ra,zero,15
 8002930:	01c09093          	slli	ra,ra,0x1c
 8002934:	00f0011b          	addiw	sp,zero,15
 8002938:	01c11113          	slli	sp,sp,0x1c
 800293c:	fff10113          	addi	sp,sp,-1
 8002940:	00000013          	nop
 8002944:	00000013          	nop
 8002948:	0020f463          	bleu	sp,ra,8002950 <test_11+0x2c>
 800294c:	7ac0f06f          	j	80120f8 <fail>
 8002950:	00120213          	addi	tp,tp,1 # 1 <u_mode_trap_table-0x8000003>
 8002954:	00200293          	li	t0,2
 8002958:	fc521ae3          	bne	tp,t0,800292c <test_11+0x8>

000000000800295c <test_12>:
  TEST_BR2_SRC12_BYPASS( 12, 1, 0, bltu, 0xf0000000, 0xefffffff );
 800295c:	00c00193          	li	gp,12
 8002960:	00000213          	li	tp,0
 8002964:	00f0009b          	addiw	ra,zero,15
 8002968:	01c09093          	slli	ra,ra,0x1c
 800296c:	00000013          	nop
 8002970:	00f0011b          	addiw	sp,zero,15
 8002974:	01c11113          	slli	sp,sp,0x1c
 8002978:	fff10113          	addi	sp,sp,-1
 800297c:	0020f463          	bleu	sp,ra,8002984 <test_12+0x28>
 8002980:	7780f06f          	j	80120f8 <fail>
 8002984:	00120213          	addi	tp,tp,1 # 1 <u_mode_trap_table-0x8000003>
 8002988:	00200293          	li	t0,2
 800298c:	fc521ce3          	bne	tp,t0,8002964 <test_12+0x8>

0000000008002990 <test_13>:
  TEST_BR2_SRC12_BYPASS( 13, 1, 1, bltu, 0xf0000000, 0xefffffff );
 8002990:	00d00193          	li	gp,13
 8002994:	00000213          	li	tp,0
 8002998:	00f0009b          	addiw	ra,zero,15
 800299c:	01c09093          	slli	ra,ra,0x1c
 80029a0:	00000013          	nop
 80029a4:	00f0011b          	addiw	sp,zero,15
 80029a8:	01c11113          	slli	sp,sp,0x1c
 80029ac:	fff10113          	addi	sp,sp,-1
 80029b0:	00000013          	nop
 80029b4:	0020f463          	bleu	sp,ra,80029bc <test_13+0x2c>
 80029b8:	7400f06f          	j	80120f8 <fail>
 80029bc:	00120213          	addi	tp,tp,1 # 1 <u_mode_trap_table-0x8000003>
 80029c0:	00200293          	li	t0,2
 80029c4:	fc521ae3          	bne	tp,t0,8002998 <test_13+0x8>

00000000080029c8 <test_14>:
  TEST_BR2_SRC12_BYPASS( 14, 2, 0, bltu, 0xf0000000, 0xefffffff );
 80029c8:	00e00193          	li	gp,14
 80029cc:	00000213          	li	tp,0
 80029d0:	00f0009b          	addiw	ra,zero,15
 80029d4:	01c09093          	slli	ra,ra,0x1c
 80029d8:	00000013          	nop
 80029dc:	00000013          	nop
 80029e0:	00f0011b          	addiw	sp,zero,15
 80029e4:	01c11113          	slli	sp,sp,0x1c
 80029e8:	fff10113          	addi	sp,sp,-1
 80029ec:	0020f463          	bleu	sp,ra,80029f4 <test_14+0x2c>
 80029f0:	7080f06f          	j	80120f8 <fail>
 80029f4:	00120213          	addi	tp,tp,1 # 1 <u_mode_trap_table-0x8000003>
 80029f8:	00200293          	li	t0,2
 80029fc:	fc521ae3          	bne	tp,t0,80029d0 <test_14+0x8>

0000000008002a00 <test_15>:

  TEST_BR2_SRC12_BYPASS( 15, 0, 0, bltu, 0xf0000000, 0xefffffff );
 8002a00:	00f00193          	li	gp,15
 8002a04:	00000213          	li	tp,0
 8002a08:	00f0009b          	addiw	ra,zero,15
 8002a0c:	01c09093          	slli	ra,ra,0x1c
 8002a10:	00f0011b          	addiw	sp,zero,15
 8002a14:	01c11113          	slli	sp,sp,0x1c
 8002a18:	fff10113          	addi	sp,sp,-1
 8002a1c:	0020f463          	bleu	sp,ra,8002a24 <test_15+0x24>
 8002a20:	6d80f06f          	j	80120f8 <fail>
 8002a24:	00120213          	addi	tp,tp,1 # 1 <u_mode_trap_table-0x8000003>
 8002a28:	00200293          	li	t0,2
 8002a2c:	fc521ee3          	bne	tp,t0,8002a08 <test_15+0x8>

0000000008002a30 <test_16>:
  TEST_BR2_SRC12_BYPASS( 16, 0, 1, bltu, 0xf0000000, 0xefffffff );
 8002a30:	01000193          	li	gp,16
 8002a34:	00000213          	li	tp,0
 8002a38:	00f0009b          	addiw	ra,zero,15
 8002a3c:	01c09093          	slli	ra,ra,0x1c
 8002a40:	00f0011b          	addiw	sp,zero,15
 8002a44:	01c11113          	slli	sp,sp,0x1c
 8002a48:	fff10113          	addi	sp,sp,-1
 8002a4c:	00000013          	nop
 8002a50:	0020f463          	bleu	sp,ra,8002a58 <test_16+0x28>
 8002a54:	6a40f06f          	j	80120f8 <fail>
 8002a58:	00120213          	addi	tp,tp,1 # 1 <u_mode_trap_table-0x8000003>
 8002a5c:	00200293          	li	t0,2
 8002a60:	fc521ce3          	bne	tp,t0,8002a38 <test_16+0x8>

0000000008002a64 <test_17>:
  TEST_BR2_SRC12_BYPASS( 17, 0, 2, bltu, 0xf0000000, 0xefffffff );
 8002a64:	01100193          	li	gp,17
 8002a68:	00000213          	li	tp,0
 8002a6c:	00f0009b          	addiw	ra,zero,15
 8002a70:	01c09093          	slli	ra,ra,0x1c
 8002a74:	00f0011b          	addiw	sp,zero,15
 8002a78:	01c11113          	slli	sp,sp,0x1c
 8002a7c:	fff10113          	addi	sp,sp,-1
 8002a80:	00000013          	nop
 8002a84:	00000013          	nop
 8002a88:	0020f463          	bleu	sp,ra,8002a90 <test_17+0x2c>
 8002a8c:	66c0f06f          	j	80120f8 <fail>
 8002a90:	00120213          	addi	tp,tp,1 # 1 <u_mode_trap_table-0x8000003>
 8002a94:	00200293          	li	t0,2
 8002a98:	fc521ae3          	bne	tp,t0,8002a6c <test_17+0x8>

0000000008002a9c <test_18>:
  TEST_BR2_SRC12_BYPASS( 18, 1, 0, bltu, 0xf0000000, 0xefffffff );
 8002a9c:	01200193          	li	gp,18
 8002aa0:	00000213          	li	tp,0
 8002aa4:	00f0009b          	addiw	ra,zero,15
 8002aa8:	01c09093          	slli	ra,ra,0x1c
 8002aac:	00000013          	nop
 8002ab0:	00f0011b          	addiw	sp,zero,15
 8002ab4:	01c11113          	slli	sp,sp,0x1c
 8002ab8:	fff10113          	addi	sp,sp,-1
 8002abc:	0020f463          	bleu	sp,ra,8002ac4 <test_18+0x28>
 8002ac0:	6380f06f          	j	80120f8 <fail>
 8002ac4:	00120213          	addi	tp,tp,1 # 1 <u_mode_trap_table-0x8000003>
 8002ac8:	00200293          	li	t0,2
 8002acc:	fc521ce3          	bne	tp,t0,8002aa4 <test_18+0x8>

0000000008002ad0 <test_19>:
  TEST_BR2_SRC12_BYPASS( 19, 1, 1, bltu, 0xf0000000, 0xefffffff );
 8002ad0:	01300193          	li	gp,19
 8002ad4:	00000213          	li	tp,0
 8002ad8:	00f0009b          	addiw	ra,zero,15
 8002adc:	01c09093          	slli	ra,ra,0x1c
 8002ae0:	00000013          	nop
 8002ae4:	00f0011b          	addiw	sp,zero,15
 8002ae8:	01c11113          	slli	sp,sp,0x1c
 8002aec:	fff10113          	addi	sp,sp,-1
 8002af0:	00000013          	nop
 8002af4:	0020f463          	bleu	sp,ra,8002afc <test_19+0x2c>
 8002af8:	6000f06f          	j	80120f8 <fail>
 8002afc:	00120213          	addi	tp,tp,1 # 1 <u_mode_trap_table-0x8000003>
 8002b00:	00200293          	li	t0,2
 8002b04:	fc521ae3          	bne	tp,t0,8002ad8 <test_19+0x8>

0000000008002b08 <test_20>:
  TEST_BR2_SRC12_BYPASS( 20, 2, 0, bltu, 0xf0000000, 0xefffffff );
 8002b08:	01400193          	li	gp,20
 8002b0c:	00000213          	li	tp,0
 8002b10:	00f0009b          	addiw	ra,zero,15
 8002b14:	01c09093          	slli	ra,ra,0x1c
 8002b18:	00000013          	nop
 8002b1c:	00000013          	nop
 8002b20:	00f0011b          	addiw	sp,zero,15
 8002b24:	01c11113          	slli	sp,sp,0x1c
 8002b28:	fff10113          	addi	sp,sp,-1
 8002b2c:	0020f463          	bleu	sp,ra,8002b34 <test_20+0x2c>
 8002b30:	5c80f06f          	j	80120f8 <fail>
 8002b34:	00120213          	addi	tp,tp,1 # 1 <u_mode_trap_table-0x8000003>
 8002b38:	00200293          	li	t0,2
 8002b3c:	fc521ae3          	bne	tp,t0,8002b10 <test_20+0x8>

0000000008002b40 <test_21>:

  #-------------------------------------------------------------
  # Test delay slot instructions not executed nor bypassed
  #-------------------------------------------------------------

  TEST_CASE( 21, x1, 3, \
 8002b40:	00100093          	li	ra,1
 8002b44:	00106a63          	bltu	zero,ra,8002b58 <test_21+0x18>
 8002b48:	00108093          	addi	ra,ra,1
 8002b4c:	00108093          	addi	ra,ra,1
 8002b50:	00108093          	addi	ra,ra,1
 8002b54:	00108093          	addi	ra,ra,1
 8002b58:	00108093          	addi	ra,ra,1
 8002b5c:	00108093          	addi	ra,ra,1
 8002b60:	00300e93          	li	t4,3
 8002b64:	01500193          	li	gp,21
 8002b68:	01d08463          	beq	ra,t4,8002b70 <test_21+0x30>
 8002b6c:	58c0f06f          	j	80120f8 <fail>
    addi x1, x1, 1; \
  )

  TEST_PASSFAIL

RVTEST_CODE_END
 8002b70:	c0001073          	unimp

0000000008002b74 <test_2>:
  # Branch tests
  #-------------------------------------------------------------

  # Each test checks both forward and backward branches

  TEST_BR2_OP_TAKEN( 2, bne,  0,  1 );
 8002b74:	00200193          	li	gp,2
 8002b78:	00000093          	li	ra,0
 8002b7c:	00100113          	li	sp,1
 8002b80:	00209863          	bne	ra,sp,8002b90 <test_2+0x1c>
 8002b84:	00300463          	beq	zero,gp,8002b8c <test_2+0x18>
 8002b88:	5700f06f          	j	80120f8 <fail>
 8002b8c:	00301863          	bne	zero,gp,8002b9c <test_3>
 8002b90:	fe209ee3          	bne	ra,sp,8002b8c <test_2+0x18>
 8002b94:	00300463          	beq	zero,gp,8002b9c <test_3>
 8002b98:	5600f06f          	j	80120f8 <fail>

0000000008002b9c <test_3>:
  TEST_BR2_OP_TAKEN( 3, bne,  1,  0 );
 8002b9c:	00300193          	li	gp,3
 8002ba0:	00100093          	li	ra,1
 8002ba4:	00000113          	li	sp,0
 8002ba8:	00209863          	bne	ra,sp,8002bb8 <test_3+0x1c>
 8002bac:	00300463          	beq	zero,gp,8002bb4 <test_3+0x18>
 8002bb0:	5480f06f          	j	80120f8 <fail>
 8002bb4:	00301863          	bne	zero,gp,8002bc4 <test_4>
 8002bb8:	fe209ee3          	bne	ra,sp,8002bb4 <test_3+0x18>
 8002bbc:	00300463          	beq	zero,gp,8002bc4 <test_4>
 8002bc0:	5380f06f          	j	80120f8 <fail>

0000000008002bc4 <test_4>:
  TEST_BR2_OP_TAKEN( 4, bne, -1,  1 );
 8002bc4:	00400193          	li	gp,4
 8002bc8:	fff00093          	li	ra,-1
 8002bcc:	00100113          	li	sp,1
 8002bd0:	00209863          	bne	ra,sp,8002be0 <test_4+0x1c>
 8002bd4:	00300463          	beq	zero,gp,8002bdc <test_4+0x18>
 8002bd8:	5200f06f          	j	80120f8 <fail>
 8002bdc:	00301863          	bne	zero,gp,8002bec <test_5>
 8002be0:	fe209ee3          	bne	ra,sp,8002bdc <test_4+0x18>
 8002be4:	00300463          	beq	zero,gp,8002bec <test_5>
 8002be8:	5100f06f          	j	80120f8 <fail>

0000000008002bec <test_5>:
  TEST_BR2_OP_TAKEN( 5, bne,  1, -1 );
 8002bec:	00500193          	li	gp,5
 8002bf0:	00100093          	li	ra,1
 8002bf4:	fff00113          	li	sp,-1
 8002bf8:	00209863          	bne	ra,sp,8002c08 <test_5+0x1c>
 8002bfc:	00300463          	beq	zero,gp,8002c04 <test_5+0x18>
 8002c00:	4f80f06f          	j	80120f8 <fail>
 8002c04:	00301863          	bne	zero,gp,8002c14 <test_6>
 8002c08:	fe209ee3          	bne	ra,sp,8002c04 <test_5+0x18>
 8002c0c:	00300463          	beq	zero,gp,8002c14 <test_6>
 8002c10:	4e80f06f          	j	80120f8 <fail>

0000000008002c14 <test_6>:

  TEST_BR2_OP_NOTTAKEN( 6, bne,  0,  0 );
 8002c14:	00600193          	li	gp,6
 8002c18:	00000093          	li	ra,0
 8002c1c:	00000113          	li	sp,0
 8002c20:	00209463          	bne	ra,sp,8002c28 <test_6+0x14>
 8002c24:	00301663          	bne	zero,gp,8002c30 <test_6+0x1c>
 8002c28:	00300463          	beq	zero,gp,8002c30 <test_6+0x1c>
 8002c2c:	4cc0f06f          	j	80120f8 <fail>
 8002c30:	fe209ce3          	bne	ra,sp,8002c28 <test_6+0x14>

0000000008002c34 <test_7>:
  TEST_BR2_OP_NOTTAKEN( 7, bne,  1,  1 );
 8002c34:	00700193          	li	gp,7
 8002c38:	00100093          	li	ra,1
 8002c3c:	00100113          	li	sp,1
 8002c40:	00209463          	bne	ra,sp,8002c48 <test_7+0x14>
 8002c44:	00301663          	bne	zero,gp,8002c50 <test_7+0x1c>
 8002c48:	00300463          	beq	zero,gp,8002c50 <test_7+0x1c>
 8002c4c:	4ac0f06f          	j	80120f8 <fail>
 8002c50:	fe209ce3          	bne	ra,sp,8002c48 <test_7+0x14>

0000000008002c54 <test_8>:
  TEST_BR2_OP_NOTTAKEN( 8, bne, -1, -1 );
 8002c54:	00800193          	li	gp,8
 8002c58:	fff00093          	li	ra,-1
 8002c5c:	fff00113          	li	sp,-1
 8002c60:	00209463          	bne	ra,sp,8002c68 <test_8+0x14>
 8002c64:	00301663          	bne	zero,gp,8002c70 <test_8+0x1c>
 8002c68:	00300463          	beq	zero,gp,8002c70 <test_8+0x1c>
 8002c6c:	48c0f06f          	j	80120f8 <fail>
 8002c70:	fe209ce3          	bne	ra,sp,8002c68 <test_8+0x14>

0000000008002c74 <test_9>:

  #-------------------------------------------------------------
  # Bypassing tests
  #-------------------------------------------------------------

  TEST_BR2_SRC12_BYPASS( 9,  0, 0, bne, 0, 0 );
 8002c74:	00900193          	li	gp,9
 8002c78:	00000213          	li	tp,0
 8002c7c:	00000093          	li	ra,0
 8002c80:	00000113          	li	sp,0
 8002c84:	00208463          	beq	ra,sp,8002c8c <test_9+0x18>
 8002c88:	4700f06f          	j	80120f8 <fail>
 8002c8c:	00120213          	addi	tp,tp,1 # 1 <u_mode_trap_table-0x8000003>
 8002c90:	00200293          	li	t0,2
 8002c94:	fe5214e3          	bne	tp,t0,8002c7c <test_9+0x8>

0000000008002c98 <test_10>:
  TEST_BR2_SRC12_BYPASS( 10, 0, 1, bne, 0, 0 );
 8002c98:	00a00193          	li	gp,10
 8002c9c:	00000213          	li	tp,0
 8002ca0:	00000093          	li	ra,0
 8002ca4:	00000113          	li	sp,0
 8002ca8:	00000013          	nop
 8002cac:	00208463          	beq	ra,sp,8002cb4 <test_10+0x1c>
 8002cb0:	4480f06f          	j	80120f8 <fail>
 8002cb4:	00120213          	addi	tp,tp,1 # 1 <u_mode_trap_table-0x8000003>
 8002cb8:	00200293          	li	t0,2
 8002cbc:	fe5212e3          	bne	tp,t0,8002ca0 <test_10+0x8>

0000000008002cc0 <test_11>:
  TEST_BR2_SRC12_BYPASS( 11, 0, 2, bne, 0, 0 );
 8002cc0:	00b00193          	li	gp,11
 8002cc4:	00000213          	li	tp,0
 8002cc8:	00000093          	li	ra,0
 8002ccc:	00000113          	li	sp,0
 8002cd0:	00000013          	nop
 8002cd4:	00000013          	nop
 8002cd8:	00208463          	beq	ra,sp,8002ce0 <test_11+0x20>
 8002cdc:	41c0f06f          	j	80120f8 <fail>
 8002ce0:	00120213          	addi	tp,tp,1 # 1 <u_mode_trap_table-0x8000003>
 8002ce4:	00200293          	li	t0,2
 8002ce8:	fe5210e3          	bne	tp,t0,8002cc8 <test_11+0x8>

0000000008002cec <test_12>:
  TEST_BR2_SRC12_BYPASS( 12, 1, 0, bne, 0, 0 );
 8002cec:	00c00193          	li	gp,12
 8002cf0:	00000213          	li	tp,0
 8002cf4:	00000093          	li	ra,0
 8002cf8:	00000013          	nop
 8002cfc:	00000113          	li	sp,0
 8002d00:	00208463          	beq	ra,sp,8002d08 <test_12+0x1c>
 8002d04:	3f40f06f          	j	80120f8 <fail>
 8002d08:	00120213          	addi	tp,tp,1 # 1 <u_mode_trap_table-0x8000003>
 8002d0c:	00200293          	li	t0,2
 8002d10:	fe5212e3          	bne	tp,t0,8002cf4 <test_12+0x8>

0000000008002d14 <test_13>:
  TEST_BR2_SRC12_BYPASS( 13, 1, 1, bne, 0, 0 );
 8002d14:	00d00193          	li	gp,13
 8002d18:	00000213          	li	tp,0
 8002d1c:	00000093          	li	ra,0
 8002d20:	00000013          	nop
 8002d24:	00000113          	li	sp,0
 8002d28:	00000013          	nop
 8002d2c:	00208463          	beq	ra,sp,8002d34 <test_13+0x20>
 8002d30:	3c80f06f          	j	80120f8 <fail>
 8002d34:	00120213          	addi	tp,tp,1 # 1 <u_mode_trap_table-0x8000003>
 8002d38:	00200293          	li	t0,2
 8002d3c:	fe5210e3          	bne	tp,t0,8002d1c <test_13+0x8>

0000000008002d40 <test_14>:
  TEST_BR2_SRC12_BYPASS( 14, 2, 0, bne, 0, 0 );
 8002d40:	00e00193          	li	gp,14
 8002d44:	00000213          	li	tp,0
 8002d48:	00000093          	li	ra,0
 8002d4c:	00000013          	nop
 8002d50:	00000013          	nop
 8002d54:	00000113          	li	sp,0
 8002d58:	00208463          	beq	ra,sp,8002d60 <test_14+0x20>
 8002d5c:	39c0f06f          	j	80120f8 <fail>
 8002d60:	00120213          	addi	tp,tp,1 # 1 <u_mode_trap_table-0x8000003>
 8002d64:	00200293          	li	t0,2
 8002d68:	fe5210e3          	bne	tp,t0,8002d48 <test_14+0x8>

0000000008002d6c <test_15>:

  TEST_BR2_SRC12_BYPASS( 15, 0, 0, bne, 0, 0 );
 8002d6c:	00f00193          	li	gp,15
 8002d70:	00000213          	li	tp,0
 8002d74:	00000093          	li	ra,0
 8002d78:	00000113          	li	sp,0
 8002d7c:	00208463          	beq	ra,sp,8002d84 <test_15+0x18>
 8002d80:	3780f06f          	j	80120f8 <fail>
 8002d84:	00120213          	addi	tp,tp,1 # 1 <u_mode_trap_table-0x8000003>
 8002d88:	00200293          	li	t0,2
 8002d8c:	fe5214e3          	bne	tp,t0,8002d74 <test_15+0x8>

0000000008002d90 <test_16>:
  TEST_BR2_SRC12_BYPASS( 16, 0, 1, bne, 0, 0 );
 8002d90:	01000193          	li	gp,16
 8002d94:	00000213          	li	tp,0
 8002d98:	00000093          	li	ra,0
 8002d9c:	00000113          	li	sp,0
 8002da0:	00000013          	nop
 8002da4:	00208463          	beq	ra,sp,8002dac <test_16+0x1c>
 8002da8:	3500f06f          	j	80120f8 <fail>
 8002dac:	00120213          	addi	tp,tp,1 # 1 <u_mode_trap_table-0x8000003>
 8002db0:	00200293          	li	t0,2
 8002db4:	fe5212e3          	bne	tp,t0,8002d98 <test_16+0x8>

0000000008002db8 <test_17>:
  TEST_BR2_SRC12_BYPASS( 17, 0, 2, bne, 0, 0 );
 8002db8:	01100193          	li	gp,17
 8002dbc:	00000213          	li	tp,0
 8002dc0:	00000093          	li	ra,0
 8002dc4:	00000113          	li	sp,0
 8002dc8:	00000013          	nop
 8002dcc:	00000013          	nop
 8002dd0:	00208463          	beq	ra,sp,8002dd8 <test_17+0x20>
 8002dd4:	3240f06f          	j	80120f8 <fail>
 8002dd8:	00120213          	addi	tp,tp,1 # 1 <u_mode_trap_table-0x8000003>
 8002ddc:	00200293          	li	t0,2
 8002de0:	fe5210e3          	bne	tp,t0,8002dc0 <test_17+0x8>

0000000008002de4 <test_18>:
  TEST_BR2_SRC12_BYPASS( 18, 1, 0, bne, 0, 0 );
 8002de4:	01200193          	li	gp,18
 8002de8:	00000213          	li	tp,0
 8002dec:	00000093          	li	ra,0
 8002df0:	00000013          	nop
 8002df4:	00000113          	li	sp,0
 8002df8:	00208463          	beq	ra,sp,8002e00 <test_18+0x1c>
 8002dfc:	2fc0f06f          	j	80120f8 <fail>
 8002e00:	00120213          	addi	tp,tp,1 # 1 <u_mode_trap_table-0x8000003>
 8002e04:	00200293          	li	t0,2
 8002e08:	fe5212e3          	bne	tp,t0,8002dec <test_18+0x8>

0000000008002e0c <test_19>:
  TEST_BR2_SRC12_BYPASS( 19, 1, 1, bne, 0, 0 );
 8002e0c:	01300193          	li	gp,19
 8002e10:	00000213          	li	tp,0
 8002e14:	00000093          	li	ra,0
 8002e18:	00000013          	nop
 8002e1c:	00000113          	li	sp,0
 8002e20:	00000013          	nop
 8002e24:	00208463          	beq	ra,sp,8002e2c <test_19+0x20>
 8002e28:	2d00f06f          	j	80120f8 <fail>
 8002e2c:	00120213          	addi	tp,tp,1 # 1 <u_mode_trap_table-0x8000003>
 8002e30:	00200293          	li	t0,2
 8002e34:	fe5210e3          	bne	tp,t0,8002e14 <test_19+0x8>

0000000008002e38 <test_20>:
  TEST_BR2_SRC12_BYPASS( 20, 2, 0, bne, 0, 0 );
 8002e38:	01400193          	li	gp,20
 8002e3c:	00000213          	li	tp,0
 8002e40:	00000093          	li	ra,0
 8002e44:	00000013          	nop
 8002e48:	00000013          	nop
 8002e4c:	00000113          	li	sp,0
 8002e50:	00208463          	beq	ra,sp,8002e58 <test_20+0x20>
 8002e54:	2a40f06f          	j	80120f8 <fail>
 8002e58:	00120213          	addi	tp,tp,1 # 1 <u_mode_trap_table-0x8000003>
 8002e5c:	00200293          	li	t0,2
 8002e60:	fe5210e3          	bne	tp,t0,8002e40 <test_20+0x8>

0000000008002e64 <test_21>:

  #-------------------------------------------------------------
  # Test delay slot instructions not executed nor bypassed
  #-------------------------------------------------------------

  TEST_CASE( 21, x1, 3, \
 8002e64:	00100093          	li	ra,1
 8002e68:	00009a63          	bnez	ra,8002e7c <test_21+0x18>
 8002e6c:	00108093          	addi	ra,ra,1
 8002e70:	00108093          	addi	ra,ra,1
 8002e74:	00108093          	addi	ra,ra,1
 8002e78:	00108093          	addi	ra,ra,1
 8002e7c:	00108093          	addi	ra,ra,1
 8002e80:	00108093          	addi	ra,ra,1
 8002e84:	00300e93          	li	t4,3
 8002e88:	01500193          	li	gp,21
 8002e8c:	01d08463          	beq	ra,t4,8002e94 <test_21+0x30>
 8002e90:	2680f06f          	j	80120f8 <fail>
    addi x1, x1, 1; \
  )

  TEST_PASSFAIL

RVTEST_CODE_END
 8002e94:	c0001073          	unimp
	...
#include "test_macros.h"

RVTEST_RV64U
RVTEST_CODE_BEGIN

li a3, 111
 8002ec0:	06f00693          	li	a3,111
lh a0, insn
 8002ec4:	00010517          	auipc	a0,0x10
 8002ec8:	13c51503          	lh	a0,316(a0) # 8013000 <insn>
lh a1, insn+2
 8002ecc:	00010597          	auipc	a1,0x10
 8002ed0:	13659583          	lh	a1,310(a1) # 8013002 <insn+0x2>
 8002ed4:	00000013          	nop
 8002ed8:	00000013          	nop
 8002edc:	00000013          	nop
 8002ee0:	00000013          	nop
 8002ee4:	00000013          	nop
 8002ee8:	00000013          	nop
 8002eec:	00000013          	nop
 8002ef0:	00000013          	nop
 8002ef4:	00000013          	nop
 8002ef8:	00000013          	nop
 8002efc:	00000013          	nop

# test I$ hit
.align 6
sh a0, 2f, t0
 8002f00:	00010297          	auipc	t0,0x10
 8002f04:	10a29223          	sh	a0,260(t0) # 8013004 <insn+0x4>
sh a1, 2f+2, t0
 8002f08:	00010297          	auipc	t0,0x10
 8002f0c:	0eb29f23          	sh	a1,254(t0) # 8013006 <insn+0x6>
fence.i
 8002f10:	0000100f          	fence.i

la a5, 2f
 8002f14:	00010797          	auipc	a5,0x10
 8002f18:	0f078793          	addi	a5,a5,240 # 8013004 <insn+0x4>
jalr t1, a5, 0
 8002f1c:	00078367          	jalr	t1,a5

0000000008002f20 <test_2>:
TEST_CASE( 2, a3, 444, nop )
 8002f20:	00000013          	nop
 8002f24:	1bc00e93          	li	t4,444
 8002f28:	00200193          	li	gp,2
 8002f2c:	01d68463          	beq	a3,t4,8002f34 <test_2+0x14>
 8002f30:	1c80f06f          	j	80120f8 <fail>

# test prefetcher hit
li a4, 100
 8002f34:	06400713          	li	a4,100
1: addi a4, a4, -1
 8002f38:	fff70713          	addi	a4,a4,-1
bnez a4, 1b
 8002f3c:	fe071ee3          	bnez	a4,8002f38 <test_2+0x18>

sh a0, 3f, t0
 8002f40:	00010297          	auipc	t0,0x10
 8002f44:	0ca29623          	sh	a0,204(t0) # 801300c <insn+0xc>
sh a1, 3f+2, t0
 8002f48:	00010297          	auipc	t0,0x10
 8002f4c:	0cb29323          	sh	a1,198(t0) # 801300e <insn+0xe>
fence.i
 8002f50:	0000100f          	fence.i
 8002f54:	00000013          	nop
 8002f58:	00000013          	nop
 8002f5c:	00000013          	nop
 8002f60:	00000013          	nop
 8002f64:	00000013          	nop
 8002f68:	00000013          	nop
 8002f6c:	00000013          	nop
 8002f70:	00000013          	nop
 8002f74:	00000013          	nop
 8002f78:	00000013          	nop
 8002f7c:	00000013          	nop

.align 6
la a5, 3f
 8002f80:	00010797          	auipc	a5,0x10
 8002f84:	08c78793          	addi	a5,a5,140 # 801300c <insn+0xc>
jalr t1, a5, 0
 8002f88:	00078367          	jalr	t1,a5

0000000008002f8c <test_3>:
TEST_CASE( 3, a3, 777, nop )
 8002f8c:	00000013          	nop
 8002f90:	30900e93          	li	t4,777
 8002f94:	00300193          	li	gp,3
 8002f98:	01d68463          	beq	a3,t4,8002fa0 <test_3+0x14>
 8002f9c:	15c0f06f          	j	80120f8 <fail>

TEST_PASSFAIL

RVTEST_CODE_END
 8002fa0:	c0001073          	unimp
	...

0000000008002fdc <test_2>:
  #-------------------------------------------------------------
  # Test 2: Basic test
  #-------------------------------------------------------------

test_2:
  li  TESTNUM, 2
 8002fdc:	00200193          	li	gp,2
  li  ra, 0
 8002fe0:	00000093          	li	ra,0

  jal x4, target_2
 8002fe4:	0100026f          	jal	tp,8002ff4 <target_2>

0000000008002fe8 <linkaddr_2>:
linkaddr_2:
  nop
 8002fe8:	00000013          	nop
  nop
 8002fec:	00000013          	nop

  j fail
 8002ff0:	1080f06f          	j	80120f8 <fail>

0000000008002ff4 <target_2>:

target_2:
  la  x2, linkaddr_2
 8002ff4:	00000117          	auipc	sp,0x0
 8002ff8:	ff410113          	addi	sp,sp,-12 # 8002fe8 <linkaddr_2>
  bne x2, x4, fail
 8002ffc:	00410463          	beq	sp,tp,8003004 <test_3>
 8003000:	0f80f06f          	j	80120f8 <fail>

0000000008003004 <test_3>:

  #-------------------------------------------------------------
  # Test delay slot instructions not executed nor bypassed
  #-------------------------------------------------------------

  TEST_CASE( 3, ra, 3, \
 8003004:	00100093          	li	ra,1
 8003008:	0140006f          	j	800301c <test_3+0x18>
 800300c:	00108093          	addi	ra,ra,1
 8003010:	00108093          	addi	ra,ra,1
 8003014:	00108093          	addi	ra,ra,1
 8003018:	00108093          	addi	ra,ra,1
 800301c:	00108093          	addi	ra,ra,1
 8003020:	00108093          	addi	ra,ra,1
 8003024:	00300e93          	li	t4,3
 8003028:	00300193          	li	gp,3
 800302c:	01d08463          	beq	ra,t4,8003034 <test_3+0x30>
 8003030:	0c80f06f          	j	80120f8 <fail>
    addi ra, ra, 1; \
  )

  TEST_PASSFAIL

RVTEST_CODE_END
 8003034:	c0001073          	unimp

0000000008003038 <test_2>:
  #-------------------------------------------------------------
  # Test 2: Basic test
  #-------------------------------------------------------------

test_2:
  li  TESTNUM, 2
 8003038:	00200193          	li	gp,2
  li  t0, 0
 800303c:	00000293          	li	t0,0
  la  t1, target_2
 8003040:	00000317          	auipc	t1,0x0
 8003044:	01030313          	addi	t1,t1,16 # 8003050 <target_2>

  jalr t0, t1, 0
 8003048:	000302e7          	jalr	t0,t1

000000000800304c <linkaddr_2>:
linkaddr_2:
  j fail
 800304c:	0ac0f06f          	j	80120f8 <fail>

0000000008003050 <target_2>:

target_2:
  la  t1, linkaddr_2
 8003050:	00000317          	auipc	t1,0x0
 8003054:	ffc30313          	addi	t1,t1,-4 # 800304c <linkaddr_2>
  bne t0, t1, fail
 8003058:	00628463          	beq	t0,t1,8003060 <test_3>
 800305c:	09c0f06f          	j	80120f8 <fail>

0000000008003060 <test_3>:
  #-------------------------------------------------------------
  # Test 3: Basic test2, rs = rd
  #-------------------------------------------------------------

test_3:
  li  TESTNUM, 3
 8003060:	00300193          	li	gp,3
  la  t0, target_3
 8003064:	00000297          	auipc	t0,0x0
 8003068:	01028293          	addi	t0,t0,16 # 8003074 <target_3>

  jalr t0, t0, 0
 800306c:	000282e7          	jalr	t0,t0

0000000008003070 <linkaddr_3>:
linkaddr_3:
  j fail
 8003070:	0880f06f          	j	80120f8 <fail>

0000000008003074 <target_3>:

target_3:
  la  t1, linkaddr_3
 8003074:	00000317          	auipc	t1,0x0
 8003078:	ffc30313          	addi	t1,t1,-4 # 8003070 <linkaddr_3>
  bne t0, t1, fail
 800307c:	00628463          	beq	t0,t1,8003084 <test_4>
 8003080:	0780f06f          	j	80120f8 <fail>

0000000008003084 <test_4>:

  #-------------------------------------------------------------
  # Bypassing tests
  #-------------------------------------------------------------

  TEST_JALR_SRC1_BYPASS( 4, 0, jalr );
 8003084:	00400193          	li	gp,4
 8003088:	00000213          	li	tp,0
 800308c:	00000317          	auipc	t1,0x0
 8003090:	01430313          	addi	t1,t1,20 # 80030a0 <test_4+0x1c>
 8003094:	000306e7          	jalr	a3,t1
 8003098:	00300463          	beq	zero,gp,80030a0 <test_4+0x1c>
 800309c:	05c0f06f          	j	80120f8 <fail>
 80030a0:	00120213          	addi	tp,tp,1 # 1 <u_mode_trap_table-0x8000003>
 80030a4:	00200293          	li	t0,2
 80030a8:	fe5212e3          	bne	tp,t0,800308c <test_4+0x8>

00000000080030ac <test_5>:
  TEST_JALR_SRC1_BYPASS( 5, 1, jalr );
 80030ac:	00500193          	li	gp,5
 80030b0:	00000213          	li	tp,0
 80030b4:	00000317          	auipc	t1,0x0
 80030b8:	01830313          	addi	t1,t1,24 # 80030cc <test_5+0x20>
 80030bc:	00000013          	nop
 80030c0:	000306e7          	jalr	a3,t1
 80030c4:	00300463          	beq	zero,gp,80030cc <test_5+0x20>
 80030c8:	0300f06f          	j	80120f8 <fail>
 80030cc:	00120213          	addi	tp,tp,1 # 1 <u_mode_trap_table-0x8000003>
 80030d0:	00200293          	li	t0,2
 80030d4:	fe5210e3          	bne	tp,t0,80030b4 <test_5+0x8>

00000000080030d8 <test_6>:
  TEST_JALR_SRC1_BYPASS( 6, 2, jalr );
 80030d8:	00600193          	li	gp,6
 80030dc:	00000213          	li	tp,0
 80030e0:	00000317          	auipc	t1,0x0
 80030e4:	01c30313          	addi	t1,t1,28 # 80030fc <test_6+0x24>
 80030e8:	00000013          	nop
 80030ec:	00000013          	nop
 80030f0:	000306e7          	jalr	a3,t1
 80030f4:	00300463          	beq	zero,gp,80030fc <test_6+0x24>
 80030f8:	0000f06f          	j	80120f8 <fail>
 80030fc:	00120213          	addi	tp,tp,1 # 1 <u_mode_trap_table-0x8000003>
 8003100:	00200293          	li	t0,2
 8003104:	fc521ee3          	bne	tp,t0,80030e0 <test_6+0x8>

0000000008003108 <test_7>:
  #-------------------------------------------------------------

  .option push
  .align 2
  .option norvc
  TEST_CASE( 7, t0, 4, \
 8003108:	00100293          	li	t0,1
 800310c:	00000317          	auipc	t1,0x0
 8003110:	01c30313          	addi	t1,t1,28 # 8003128 <test_7+0x20>
 8003114:	ffc30067          	jr	-4(t1)
 8003118:	00128293          	addi	t0,t0,1
 800311c:	00128293          	addi	t0,t0,1
 8003120:	00128293          	addi	t0,t0,1
 8003124:	00128293          	addi	t0,t0,1
 8003128:	00128293          	addi	t0,t0,1
 800312c:	00128293          	addi	t0,t0,1
 8003130:	00400e93          	li	t4,4
 8003134:	00700193          	li	gp,7
 8003138:	01d28463          	beq	t0,t4,8003140 <test_7+0x38>
 800313c:	7bd0e06f          	j	80120f8 <fail>
  )
  .option pop

  TEST_PASSFAIL

RVTEST_CODE_END
 8003140:	c0001073          	unimp
 8003144:	0000                	unimp
	...

0000000008003148 <test_2>:

  #-------------------------------------------------------------
  # Basic tests
  #-------------------------------------------------------------

  TEST_LD_OP( 2, lb, 0xffffffffffffffff, 0,  tdat );
 8003148:	00010097          	auipc	ra,0x10
 800314c:	ed808093          	addi	ra,ra,-296 # 8013020 <tdat>
 8003150:	00008703          	lb	a4,0(ra)
 8003154:	fff00e93          	li	t4,-1
 8003158:	00200193          	li	gp,2
 800315c:	01d70463          	beq	a4,t4,8003164 <test_3>
 8003160:	7990e06f          	j	80120f8 <fail>

0000000008003164 <test_3>:
  TEST_LD_OP( 3, lb, 0x0000000000000000, 1,  tdat );
 8003164:	00010097          	auipc	ra,0x10
 8003168:	ebc08093          	addi	ra,ra,-324 # 8013020 <tdat>
 800316c:	00108703          	lb	a4,1(ra)
 8003170:	00000e93          	li	t4,0
 8003174:	00300193          	li	gp,3
 8003178:	01d70463          	beq	a4,t4,8003180 <test_4>
 800317c:	77d0e06f          	j	80120f8 <fail>

0000000008003180 <test_4>:
  TEST_LD_OP( 4, lb, 0xfffffffffffffff0, 2,  tdat );
 8003180:	00010097          	auipc	ra,0x10
 8003184:	ea008093          	addi	ra,ra,-352 # 8013020 <tdat>
 8003188:	00208703          	lb	a4,2(ra)
 800318c:	ff000e93          	li	t4,-16
 8003190:	00400193          	li	gp,4
 8003194:	01d70463          	beq	a4,t4,800319c <test_5>
 8003198:	7610e06f          	j	80120f8 <fail>

000000000800319c <test_5>:
  TEST_LD_OP( 5, lb, 0x000000000000000f, 3, tdat );
 800319c:	00010097          	auipc	ra,0x10
 80031a0:	e8408093          	addi	ra,ra,-380 # 8013020 <tdat>
 80031a4:	00308703          	lb	a4,3(ra)
 80031a8:	00f00e93          	li	t4,15
 80031ac:	00500193          	li	gp,5
 80031b0:	01d70463          	beq	a4,t4,80031b8 <test_6>
 80031b4:	7450e06f          	j	80120f8 <fail>

00000000080031b8 <test_6>:

  # Test with negative offset

  TEST_LD_OP( 6, lb, 0xffffffffffffffff, -3, tdat4 );
 80031b8:	00010097          	auipc	ra,0x10
 80031bc:	e6b08093          	addi	ra,ra,-405 # 8013023 <tdat4>
 80031c0:	ffd08703          	lb	a4,-3(ra)
 80031c4:	fff00e93          	li	t4,-1
 80031c8:	00600193          	li	gp,6
 80031cc:	01d70463          	beq	a4,t4,80031d4 <test_7>
 80031d0:	7290e06f          	j	80120f8 <fail>

00000000080031d4 <test_7>:
  TEST_LD_OP( 7, lb, 0x0000000000000000, -2,  tdat4 );
 80031d4:	00010097          	auipc	ra,0x10
 80031d8:	e4f08093          	addi	ra,ra,-433 # 8013023 <tdat4>
 80031dc:	ffe08703          	lb	a4,-2(ra)
 80031e0:	00000e93          	li	t4,0
 80031e4:	00700193          	li	gp,7
 80031e8:	01d70463          	beq	a4,t4,80031f0 <test_8>
 80031ec:	70d0e06f          	j	80120f8 <fail>

00000000080031f0 <test_8>:
  TEST_LD_OP( 8, lb, 0xfffffffffffffff0, -1,  tdat4 );
 80031f0:	00010097          	auipc	ra,0x10
 80031f4:	e3308093          	addi	ra,ra,-461 # 8013023 <tdat4>
 80031f8:	fff08703          	lb	a4,-1(ra)
 80031fc:	ff000e93          	li	t4,-16
 8003200:	00800193          	li	gp,8
 8003204:	01d70463          	beq	a4,t4,800320c <test_9>
 8003208:	6f10e06f          	j	80120f8 <fail>

000000000800320c <test_9>:
  TEST_LD_OP( 9, lb, 0x000000000000000f, 0,   tdat4 );
 800320c:	00010097          	auipc	ra,0x10
 8003210:	e1708093          	addi	ra,ra,-489 # 8013023 <tdat4>
 8003214:	00008703          	lb	a4,0(ra)
 8003218:	00f00e93          	li	t4,15
 800321c:	00900193          	li	gp,9
 8003220:	01d70463          	beq	a4,t4,8003228 <test_10>
 8003224:	6d50e06f          	j	80120f8 <fail>

0000000008003228 <test_10>:

  # Test with a negative base

  TEST_CASE( 10, x5, 0xffffffffffffffff, \
 8003228:	00010097          	auipc	ra,0x10
 800322c:	df808093          	addi	ra,ra,-520 # 8013020 <tdat>
 8003230:	fe008093          	addi	ra,ra,-32
 8003234:	02008283          	lb	t0,32(ra)
 8003238:	fff00e93          	li	t4,-1
 800323c:	00a00193          	li	gp,10
 8003240:	01d28463          	beq	t0,t4,8003248 <test_11>
 8003244:	6b50e06f          	j	80120f8 <fail>

0000000008003248 <test_11>:
    lb x5, 32(x1); \
  )

  # Test with unaligned base

  TEST_CASE( 11, x5, 0x0000000000000000, \
 8003248:	00010097          	auipc	ra,0x10
 800324c:	dd808093          	addi	ra,ra,-552 # 8013020 <tdat>
 8003250:	ffa08093          	addi	ra,ra,-6
 8003254:	00708283          	lb	t0,7(ra)
 8003258:	00000e93          	li	t4,0
 800325c:	00b00193          	li	gp,11
 8003260:	01d28463          	beq	t0,t4,8003268 <test_12>
 8003264:	6950e06f          	j	80120f8 <fail>

0000000008003268 <test_12>:

  #-------------------------------------------------------------
  # Bypassing tests
  #-------------------------------------------------------------

  TEST_LD_DEST_BYPASS( 12, 0, lb, 0xfffffffffffffff0, 1, tdat2 );
 8003268:	00c00193          	li	gp,12
 800326c:	00000213          	li	tp,0
 8003270:	00010097          	auipc	ra,0x10
 8003274:	db108093          	addi	ra,ra,-591 # 8013021 <tdat2>
 8003278:	00108703          	lb	a4,1(ra)
 800327c:	00070313          	mv	t1,a4
 8003280:	ff000e93          	li	t4,-16
 8003284:	01d30463          	beq	t1,t4,800328c <test_12+0x24>
 8003288:	6710e06f          	j	80120f8 <fail>
 800328c:	00120213          	addi	tp,tp,1 # 1 <u_mode_trap_table-0x8000003>
 8003290:	00200293          	li	t0,2
 8003294:	fc521ee3          	bne	tp,t0,8003270 <test_12+0x8>

0000000008003298 <test_13>:
  TEST_LD_DEST_BYPASS( 13, 1, lb, 0x000000000000000f, 1, tdat3 );
 8003298:	00d00193          	li	gp,13
 800329c:	00000213          	li	tp,0
 80032a0:	00010097          	auipc	ra,0x10
 80032a4:	d8208093          	addi	ra,ra,-638 # 8013022 <tdat3>
 80032a8:	00108703          	lb	a4,1(ra)
 80032ac:	00000013          	nop
 80032b0:	00070313          	mv	t1,a4
 80032b4:	00f00e93          	li	t4,15
 80032b8:	01d30463          	beq	t1,t4,80032c0 <test_13+0x28>
 80032bc:	63d0e06f          	j	80120f8 <fail>
 80032c0:	00120213          	addi	tp,tp,1 # 1 <u_mode_trap_table-0x8000003>
 80032c4:	00200293          	li	t0,2
 80032c8:	fc521ce3          	bne	tp,t0,80032a0 <test_13+0x8>

00000000080032cc <test_14>:
  TEST_LD_DEST_BYPASS( 14, 2, lb, 0x0000000000000000, 1, tdat1 );
 80032cc:	00e00193          	li	gp,14
 80032d0:	00000213          	li	tp,0
 80032d4:	00010097          	auipc	ra,0x10
 80032d8:	d4c08093          	addi	ra,ra,-692 # 8013020 <tdat>
 80032dc:	00108703          	lb	a4,1(ra)
 80032e0:	00000013          	nop
 80032e4:	00000013          	nop
 80032e8:	00070313          	mv	t1,a4
 80032ec:	00000e93          	li	t4,0
 80032f0:	01d30463          	beq	t1,t4,80032f8 <test_14+0x2c>
 80032f4:	6050e06f          	j	80120f8 <fail>
 80032f8:	00120213          	addi	tp,tp,1 # 1 <u_mode_trap_table-0x8000003>
 80032fc:	00200293          	li	t0,2
 8003300:	fc521ae3          	bne	tp,t0,80032d4 <test_14+0x8>

0000000008003304 <test_15>:

  TEST_LD_SRC1_BYPASS( 15, 0, lb, 0xfffffffffffffff0, 1, tdat2 );
 8003304:	00f00193          	li	gp,15
 8003308:	00000213          	li	tp,0
 800330c:	00010097          	auipc	ra,0x10
 8003310:	d1508093          	addi	ra,ra,-747 # 8013021 <tdat2>
 8003314:	00108703          	lb	a4,1(ra)
 8003318:	ff000e93          	li	t4,-16
 800331c:	01d70463          	beq	a4,t4,8003324 <test_15+0x20>
 8003320:	5d90e06f          	j	80120f8 <fail>
 8003324:	00120213          	addi	tp,tp,1 # 1 <u_mode_trap_table-0x8000003>
 8003328:	00200293          	li	t0,2
 800332c:	fe5210e3          	bne	tp,t0,800330c <test_15+0x8>

0000000008003330 <test_16>:
  TEST_LD_SRC1_BYPASS( 16, 1, lb, 0x000000000000000f, 1, tdat3 );
 8003330:	01000193          	li	gp,16
 8003334:	00000213          	li	tp,0
 8003338:	00010097          	auipc	ra,0x10
 800333c:	cea08093          	addi	ra,ra,-790 # 8013022 <tdat3>
 8003340:	00000013          	nop
 8003344:	00108703          	lb	a4,1(ra)
 8003348:	00f00e93          	li	t4,15
 800334c:	01d70463          	beq	a4,t4,8003354 <test_16+0x24>
 8003350:	5a90e06f          	j	80120f8 <fail>
 8003354:	00120213          	addi	tp,tp,1 # 1 <u_mode_trap_table-0x8000003>
 8003358:	00200293          	li	t0,2
 800335c:	fc521ee3          	bne	tp,t0,8003338 <test_16+0x8>

0000000008003360 <test_17>:
  TEST_LD_SRC1_BYPASS( 17, 2, lb, 0x0000000000000000, 1, tdat1 );
 8003360:	01100193          	li	gp,17
 8003364:	00000213          	li	tp,0
 8003368:	00010097          	auipc	ra,0x10
 800336c:	cb808093          	addi	ra,ra,-840 # 8013020 <tdat>
 8003370:	00000013          	nop
 8003374:	00000013          	nop
 8003378:	00108703          	lb	a4,1(ra)
 800337c:	00000e93          	li	t4,0
 8003380:	01d70463          	beq	a4,t4,8003388 <test_17+0x28>
 8003384:	5750e06f          	j	80120f8 <fail>
 8003388:	00120213          	addi	tp,tp,1 # 1 <u_mode_trap_table-0x8000003>
 800338c:	00200293          	li	t0,2
 8003390:	fc521ce3          	bne	tp,t0,8003368 <test_17+0x8>

0000000008003394 <test_18>:

  #-------------------------------------------------------------
  # Test write-after-write hazard
  #-------------------------------------------------------------

  TEST_CASE( 18, x2, 2, \
 8003394:	00010297          	auipc	t0,0x10
 8003398:	c8c28293          	addi	t0,t0,-884 # 8013020 <tdat>
 800339c:	00028103          	lb	sp,0(t0)
 80033a0:	00200113          	li	sp,2
 80033a4:	00200e93          	li	t4,2
 80033a8:	01200193          	li	gp,18
 80033ac:	01d10463          	beq	sp,t4,80033b4 <test_19>
 80033b0:	5490e06f          	j	80120f8 <fail>

00000000080033b4 <test_19>:
    la  x5, tdat; \
    lb  x2, 0(x5); \
    li  x2, 2; \
  )

  TEST_CASE( 19, x2, 2, \
 80033b4:	00010297          	auipc	t0,0x10
 80033b8:	c6c28293          	addi	t0,t0,-916 # 8013020 <tdat>
 80033bc:	00028103          	lb	sp,0(t0)
 80033c0:	00000013          	nop
 80033c4:	00200113          	li	sp,2
 80033c8:	00200e93          	li	t4,2
 80033cc:	01300193          	li	gp,19
 80033d0:	01d10463          	beq	sp,t4,80033d8 <test_19+0x24>
 80033d4:	5250e06f          	j	80120f8 <fail>
    li  x2, 2; \
  )

  TEST_PASSFAIL

RVTEST_CODE_END
 80033d8:	c0001073          	unimp

00000000080033dc <test_2>:

  #-------------------------------------------------------------
  # Basic tests
  #-------------------------------------------------------------

  TEST_LD_OP( 2, lbu, 0x00000000000000ff, 0,  tdat );
 80033dc:	00010097          	auipc	ra,0x10
 80033e0:	c5408093          	addi	ra,ra,-940 # 8013030 <tdat>
 80033e4:	0000c703          	lbu	a4,0(ra)
 80033e8:	0ff00e93          	li	t4,255
 80033ec:	00200193          	li	gp,2
 80033f0:	01d70463          	beq	a4,t4,80033f8 <test_3>
 80033f4:	5050e06f          	j	80120f8 <fail>

00000000080033f8 <test_3>:
  TEST_LD_OP( 3, lbu, 0x0000000000000000, 1,  tdat );
 80033f8:	00010097          	auipc	ra,0x10
 80033fc:	c3808093          	addi	ra,ra,-968 # 8013030 <tdat>
 8003400:	0010c703          	lbu	a4,1(ra)
 8003404:	00000e93          	li	t4,0
 8003408:	00300193          	li	gp,3
 800340c:	01d70463          	beq	a4,t4,8003414 <test_4>
 8003410:	4e90e06f          	j	80120f8 <fail>

0000000008003414 <test_4>:
  TEST_LD_OP( 4, lbu, 0x00000000000000f0, 2,  tdat );
 8003414:	00010097          	auipc	ra,0x10
 8003418:	c1c08093          	addi	ra,ra,-996 # 8013030 <tdat>
 800341c:	0020c703          	lbu	a4,2(ra)
 8003420:	0f000e93          	li	t4,240
 8003424:	00400193          	li	gp,4
 8003428:	01d70463          	beq	a4,t4,8003430 <test_5>
 800342c:	4cd0e06f          	j	80120f8 <fail>

0000000008003430 <test_5>:
  TEST_LD_OP( 5, lbu, 0x000000000000000f, 3, tdat );
 8003430:	00010097          	auipc	ra,0x10
 8003434:	c0008093          	addi	ra,ra,-1024 # 8013030 <tdat>
 8003438:	0030c703          	lbu	a4,3(ra)
 800343c:	00f00e93          	li	t4,15
 8003440:	00500193          	li	gp,5
 8003444:	01d70463          	beq	a4,t4,800344c <test_6>
 8003448:	4b10e06f          	j	80120f8 <fail>

000000000800344c <test_6>:

  # Test with negative offset

  TEST_LD_OP( 6, lbu, 0x00000000000000ff, -3, tdat4 );
 800344c:	00010097          	auipc	ra,0x10
 8003450:	be708093          	addi	ra,ra,-1049 # 8013033 <tdat4>
 8003454:	ffd0c703          	lbu	a4,-3(ra)
 8003458:	0ff00e93          	li	t4,255
 800345c:	00600193          	li	gp,6
 8003460:	01d70463          	beq	a4,t4,8003468 <test_7>
 8003464:	4950e06f          	j	80120f8 <fail>

0000000008003468 <test_7>:
  TEST_LD_OP( 7, lbu, 0x0000000000000000, -2,  tdat4 );
 8003468:	00010097          	auipc	ra,0x10
 800346c:	bcb08093          	addi	ra,ra,-1077 # 8013033 <tdat4>
 8003470:	ffe0c703          	lbu	a4,-2(ra)
 8003474:	00000e93          	li	t4,0
 8003478:	00700193          	li	gp,7
 800347c:	01d70463          	beq	a4,t4,8003484 <test_8>
 8003480:	4790e06f          	j	80120f8 <fail>

0000000008003484 <test_8>:
  TEST_LD_OP( 8, lbu, 0x00000000000000f0, -1,  tdat4 );
 8003484:	00010097          	auipc	ra,0x10
 8003488:	baf08093          	addi	ra,ra,-1105 # 8013033 <tdat4>
 800348c:	fff0c703          	lbu	a4,-1(ra)
 8003490:	0f000e93          	li	t4,240
 8003494:	00800193          	li	gp,8
 8003498:	01d70463          	beq	a4,t4,80034a0 <test_9>
 800349c:	45d0e06f          	j	80120f8 <fail>

00000000080034a0 <test_9>:
  TEST_LD_OP( 9, lbu, 0x000000000000000f, 0,   tdat4 );
 80034a0:	00010097          	auipc	ra,0x10
 80034a4:	b9308093          	addi	ra,ra,-1133 # 8013033 <tdat4>
 80034a8:	0000c703          	lbu	a4,0(ra)
 80034ac:	00f00e93          	li	t4,15
 80034b0:	00900193          	li	gp,9
 80034b4:	01d70463          	beq	a4,t4,80034bc <test_10>
 80034b8:	4410e06f          	j	80120f8 <fail>

00000000080034bc <test_10>:

  # Test with a negative base

  TEST_CASE( 10, x5, 0x00000000000000ff, \
 80034bc:	00010097          	auipc	ra,0x10
 80034c0:	b7408093          	addi	ra,ra,-1164 # 8013030 <tdat>
 80034c4:	fe008093          	addi	ra,ra,-32
 80034c8:	0200c283          	lbu	t0,32(ra)
 80034cc:	0ff00e93          	li	t4,255
 80034d0:	00a00193          	li	gp,10
 80034d4:	01d28463          	beq	t0,t4,80034dc <test_11>
 80034d8:	4210e06f          	j	80120f8 <fail>

00000000080034dc <test_11>:
    lbu x5, 32(x1); \
  )

  # Test with unaligned base

  TEST_CASE( 11, x5, 0x0000000000000000, \
 80034dc:	00010097          	auipc	ra,0x10
 80034e0:	b5408093          	addi	ra,ra,-1196 # 8013030 <tdat>
 80034e4:	ffa08093          	addi	ra,ra,-6
 80034e8:	0070c283          	lbu	t0,7(ra)
 80034ec:	00000e93          	li	t4,0
 80034f0:	00b00193          	li	gp,11
 80034f4:	01d28463          	beq	t0,t4,80034fc <test_12>
 80034f8:	4010e06f          	j	80120f8 <fail>

00000000080034fc <test_12>:

  #-------------------------------------------------------------
  # Bypassing tests
  #-------------------------------------------------------------

  TEST_LD_DEST_BYPASS( 12, 0, lbu, 0x00000000000000f0, 1, tdat2 );
 80034fc:	00c00193          	li	gp,12
 8003500:	00000213          	li	tp,0
 8003504:	00010097          	auipc	ra,0x10
 8003508:	b2d08093          	addi	ra,ra,-1235 # 8013031 <tdat2>
 800350c:	0010c703          	lbu	a4,1(ra)
 8003510:	00070313          	mv	t1,a4
 8003514:	0f000e93          	li	t4,240
 8003518:	01d30463          	beq	t1,t4,8003520 <test_12+0x24>
 800351c:	3dd0e06f          	j	80120f8 <fail>
 8003520:	00120213          	addi	tp,tp,1 # 1 <u_mode_trap_table-0x8000003>
 8003524:	00200293          	li	t0,2
 8003528:	fc521ee3          	bne	tp,t0,8003504 <test_12+0x8>

000000000800352c <test_13>:
  TEST_LD_DEST_BYPASS( 13, 1, lbu, 0x000000000000000f, 1, tdat3 );
 800352c:	00d00193          	li	gp,13
 8003530:	00000213          	li	tp,0
 8003534:	00010097          	auipc	ra,0x10
 8003538:	afe08093          	addi	ra,ra,-1282 # 8013032 <tdat3>
 800353c:	0010c703          	lbu	a4,1(ra)
 8003540:	00000013          	nop
 8003544:	00070313          	mv	t1,a4
 8003548:	00f00e93          	li	t4,15
 800354c:	01d30463          	beq	t1,t4,8003554 <test_13+0x28>
 8003550:	3a90e06f          	j	80120f8 <fail>
 8003554:	00120213          	addi	tp,tp,1 # 1 <u_mode_trap_table-0x8000003>
 8003558:	00200293          	li	t0,2
 800355c:	fc521ce3          	bne	tp,t0,8003534 <test_13+0x8>

0000000008003560 <test_14>:
  TEST_LD_DEST_BYPASS( 14, 2, lbu, 0x0000000000000000, 1, tdat1 );
 8003560:	00e00193          	li	gp,14
 8003564:	00000213          	li	tp,0
 8003568:	00010097          	auipc	ra,0x10
 800356c:	ac808093          	addi	ra,ra,-1336 # 8013030 <tdat>
 8003570:	0010c703          	lbu	a4,1(ra)
 8003574:	00000013          	nop
 8003578:	00000013          	nop
 800357c:	00070313          	mv	t1,a4
 8003580:	00000e93          	li	t4,0
 8003584:	01d30463          	beq	t1,t4,800358c <test_14+0x2c>
 8003588:	3710e06f          	j	80120f8 <fail>
 800358c:	00120213          	addi	tp,tp,1 # 1 <u_mode_trap_table-0x8000003>
 8003590:	00200293          	li	t0,2
 8003594:	fc521ae3          	bne	tp,t0,8003568 <test_14+0x8>

0000000008003598 <test_15>:

  TEST_LD_SRC1_BYPASS( 15, 0, lbu, 0x00000000000000f0, 1, tdat2 );
 8003598:	00f00193          	li	gp,15
 800359c:	00000213          	li	tp,0
 80035a0:	00010097          	auipc	ra,0x10
 80035a4:	a9108093          	addi	ra,ra,-1391 # 8013031 <tdat2>
 80035a8:	0010c703          	lbu	a4,1(ra)
 80035ac:	0f000e93          	li	t4,240
 80035b0:	01d70463          	beq	a4,t4,80035b8 <test_15+0x20>
 80035b4:	3450e06f          	j	80120f8 <fail>
 80035b8:	00120213          	addi	tp,tp,1 # 1 <u_mode_trap_table-0x8000003>
 80035bc:	00200293          	li	t0,2
 80035c0:	fe5210e3          	bne	tp,t0,80035a0 <test_15+0x8>

00000000080035c4 <test_16>:
  TEST_LD_SRC1_BYPASS( 16, 1, lbu, 0x000000000000000f, 1, tdat3 );
 80035c4:	01000193          	li	gp,16
 80035c8:	00000213          	li	tp,0
 80035cc:	00010097          	auipc	ra,0x10
 80035d0:	a6608093          	addi	ra,ra,-1434 # 8013032 <tdat3>
 80035d4:	00000013          	nop
 80035d8:	0010c703          	lbu	a4,1(ra)
 80035dc:	00f00e93          	li	t4,15
 80035e0:	01d70463          	beq	a4,t4,80035e8 <test_16+0x24>
 80035e4:	3150e06f          	j	80120f8 <fail>
 80035e8:	00120213          	addi	tp,tp,1 # 1 <u_mode_trap_table-0x8000003>
 80035ec:	00200293          	li	t0,2
 80035f0:	fc521ee3          	bne	tp,t0,80035cc <test_16+0x8>

00000000080035f4 <test_17>:
  TEST_LD_SRC1_BYPASS( 17, 2, lbu, 0x0000000000000000, 1, tdat1 );
 80035f4:	01100193          	li	gp,17
 80035f8:	00000213          	li	tp,0
 80035fc:	00010097          	auipc	ra,0x10
 8003600:	a3408093          	addi	ra,ra,-1484 # 8013030 <tdat>
 8003604:	00000013          	nop
 8003608:	00000013          	nop
 800360c:	0010c703          	lbu	a4,1(ra)
 8003610:	00000e93          	li	t4,0
 8003614:	01d70463          	beq	a4,t4,800361c <test_17+0x28>
 8003618:	2e10e06f          	j	80120f8 <fail>
 800361c:	00120213          	addi	tp,tp,1 # 1 <u_mode_trap_table-0x8000003>
 8003620:	00200293          	li	t0,2
 8003624:	fc521ce3          	bne	tp,t0,80035fc <test_17+0x8>

0000000008003628 <test_18>:

  #-------------------------------------------------------------
  # Test write-after-write hazard
  #-------------------------------------------------------------

  TEST_CASE( 18, x2, 2, \
 8003628:	00010297          	auipc	t0,0x10
 800362c:	a0828293          	addi	t0,t0,-1528 # 8013030 <tdat>
 8003630:	0002c103          	lbu	sp,0(t0)
 8003634:	00200113          	li	sp,2
 8003638:	00200e93          	li	t4,2
 800363c:	01200193          	li	gp,18
 8003640:	01d10463          	beq	sp,t4,8003648 <test_19>
 8003644:	2b50e06f          	j	80120f8 <fail>

0000000008003648 <test_19>:
    la  x5, tdat; \
    lbu  x2, 0(x5); \
    li  x2, 2; \
  )

  TEST_CASE( 19, x2, 2, \
 8003648:	00010297          	auipc	t0,0x10
 800364c:	9e828293          	addi	t0,t0,-1560 # 8013030 <tdat>
 8003650:	0002c103          	lbu	sp,0(t0)
 8003654:	00000013          	nop
 8003658:	00200113          	li	sp,2
 800365c:	00200e93          	li	t4,2
 8003660:	01300193          	li	gp,19
 8003664:	01d10463          	beq	sp,t4,800366c <test_19+0x24>
 8003668:	2910e06f          	j	80120f8 <fail>
    li  x2, 2; \
  )

  TEST_PASSFAIL

RVTEST_CODE_END
 800366c:	c0001073          	unimp

0000000008003670 <test_2>:

  #-------------------------------------------------------------
  # Basic tests
  #-------------------------------------------------------------

  TEST_LD_OP( 2, lh, 0x00000000000000ff, 0,  tdat );
 8003670:	00010097          	auipc	ra,0x10
 8003674:	9d008093          	addi	ra,ra,-1584 # 8013040 <tdat>
 8003678:	00009703          	lh	a4,0(ra)
 800367c:	0ff00e93          	li	t4,255
 8003680:	00200193          	li	gp,2
 8003684:	01d70463          	beq	a4,t4,800368c <test_3>
 8003688:	2710e06f          	j	80120f8 <fail>

000000000800368c <test_3>:
  TEST_LD_OP( 3, lh, 0xffffffffffffff00, 2,  tdat );
 800368c:	00010097          	auipc	ra,0x10
 8003690:	9b408093          	addi	ra,ra,-1612 # 8013040 <tdat>
 8003694:	00209703          	lh	a4,2(ra)
 8003698:	f0000e93          	li	t4,-256
 800369c:	00300193          	li	gp,3
 80036a0:	01d70463          	beq	a4,t4,80036a8 <test_4>
 80036a4:	2550e06f          	j	80120f8 <fail>

00000000080036a8 <test_4>:
  TEST_LD_OP( 4, lh, 0x0000000000000ff0, 4,  tdat );
 80036a8:	00010097          	auipc	ra,0x10
 80036ac:	99808093          	addi	ra,ra,-1640 # 8013040 <tdat>
 80036b0:	00409703          	lh	a4,4(ra)
 80036b4:	00001eb7          	lui	t4,0x1
 80036b8:	ff0e8e9b          	addiw	t4,t4,-16
 80036bc:	00400193          	li	gp,4
 80036c0:	01d70463          	beq	a4,t4,80036c8 <test_5>
 80036c4:	2350e06f          	j	80120f8 <fail>

00000000080036c8 <test_5>:
  TEST_LD_OP( 5, lh, 0xfffffffffffff00f, 6, tdat );
 80036c8:	00010097          	auipc	ra,0x10
 80036cc:	97808093          	addi	ra,ra,-1672 # 8013040 <tdat>
 80036d0:	00609703          	lh	a4,6(ra)
 80036d4:	fffffeb7          	lui	t4,0xfffff
 80036d8:	00fe8e9b          	addiw	t4,t4,15
 80036dc:	00500193          	li	gp,5
 80036e0:	01d70463          	beq	a4,t4,80036e8 <test_6>
 80036e4:	2150e06f          	j	80120f8 <fail>

00000000080036e8 <test_6>:

  # Test with negative offset

  TEST_LD_OP( 6, lh, 0x00000000000000ff, -6,  tdat4 );
 80036e8:	00010097          	auipc	ra,0x10
 80036ec:	95e08093          	addi	ra,ra,-1698 # 8013046 <tdat4>
 80036f0:	ffa09703          	lh	a4,-6(ra)
 80036f4:	0ff00e93          	li	t4,255
 80036f8:	00600193          	li	gp,6
 80036fc:	01d70463          	beq	a4,t4,8003704 <test_7>
 8003700:	1f90e06f          	j	80120f8 <fail>

0000000008003704 <test_7>:
  TEST_LD_OP( 7, lh, 0xffffffffffffff00, -4,  tdat4 );
 8003704:	00010097          	auipc	ra,0x10
 8003708:	94208093          	addi	ra,ra,-1726 # 8013046 <tdat4>
 800370c:	ffc09703          	lh	a4,-4(ra)
 8003710:	f0000e93          	li	t4,-256
 8003714:	00700193          	li	gp,7
 8003718:	01d70463          	beq	a4,t4,8003720 <test_8>
 800371c:	1dd0e06f          	j	80120f8 <fail>

0000000008003720 <test_8>:
  TEST_LD_OP( 8, lh, 0x0000000000000ff0, -2,  tdat4 );
 8003720:	00010097          	auipc	ra,0x10
 8003724:	92608093          	addi	ra,ra,-1754 # 8013046 <tdat4>
 8003728:	ffe09703          	lh	a4,-2(ra)
 800372c:	00001eb7          	lui	t4,0x1
 8003730:	ff0e8e9b          	addiw	t4,t4,-16
 8003734:	00800193          	li	gp,8
 8003738:	01d70463          	beq	a4,t4,8003740 <test_9>
 800373c:	1bd0e06f          	j	80120f8 <fail>

0000000008003740 <test_9>:
  TEST_LD_OP( 9, lh, 0xfffffffffffff00f,  0, tdat4 );
 8003740:	00010097          	auipc	ra,0x10
 8003744:	90608093          	addi	ra,ra,-1786 # 8013046 <tdat4>
 8003748:	00009703          	lh	a4,0(ra)
 800374c:	fffffeb7          	lui	t4,0xfffff
 8003750:	00fe8e9b          	addiw	t4,t4,15
 8003754:	00900193          	li	gp,9
 8003758:	01d70463          	beq	a4,t4,8003760 <test_10>
 800375c:	19d0e06f          	j	80120f8 <fail>

0000000008003760 <test_10>:

  # Test with a negative base

  TEST_CASE( 10, x5, 0x00000000000000ff, \
 8003760:	00010097          	auipc	ra,0x10
 8003764:	8e008093          	addi	ra,ra,-1824 # 8013040 <tdat>
 8003768:	fe008093          	addi	ra,ra,-32
 800376c:	02009283          	lh	t0,32(ra)
 8003770:	0ff00e93          	li	t4,255
 8003774:	00a00193          	li	gp,10
 8003778:	01d28463          	beq	t0,t4,8003780 <test_11>
 800377c:	17d0e06f          	j	80120f8 <fail>

0000000008003780 <test_11>:
    lh x5, 32(x1); \
  )

  # Test with unaligned base

  TEST_CASE( 11, x5, 0xffffffffffffff00, \
 8003780:	00010097          	auipc	ra,0x10
 8003784:	8c008093          	addi	ra,ra,-1856 # 8013040 <tdat>
 8003788:	ffb08093          	addi	ra,ra,-5
 800378c:	00709283          	lh	t0,7(ra)
 8003790:	f0000e93          	li	t4,-256
 8003794:	00b00193          	li	gp,11
 8003798:	01d28463          	beq	t0,t4,80037a0 <test_12>
 800379c:	15d0e06f          	j	80120f8 <fail>

00000000080037a0 <test_12>:

  #-------------------------------------------------------------
  # Bypassing tests
  #-------------------------------------------------------------

  TEST_LD_DEST_BYPASS( 12, 0, lh, 0x0000000000000ff0, 2, tdat2 );
 80037a0:	00c00193          	li	gp,12
 80037a4:	00000213          	li	tp,0
 80037a8:	00010097          	auipc	ra,0x10
 80037ac:	89a08093          	addi	ra,ra,-1894 # 8013042 <tdat2>
 80037b0:	00209703          	lh	a4,2(ra)
 80037b4:	00070313          	mv	t1,a4
 80037b8:	00001eb7          	lui	t4,0x1
 80037bc:	ff0e8e9b          	addiw	t4,t4,-16
 80037c0:	01d30463          	beq	t1,t4,80037c8 <test_12+0x28>
 80037c4:	1350e06f          	j	80120f8 <fail>
 80037c8:	00120213          	addi	tp,tp,1 # 1 <u_mode_trap_table-0x8000003>
 80037cc:	00200293          	li	t0,2
 80037d0:	fc521ce3          	bne	tp,t0,80037a8 <test_12+0x8>

00000000080037d4 <test_13>:
  TEST_LD_DEST_BYPASS( 13, 1, lh, 0xfffffffffffff00f, 2, tdat3 );
 80037d4:	00d00193          	li	gp,13
 80037d8:	00000213          	li	tp,0
 80037dc:	00010097          	auipc	ra,0x10
 80037e0:	86808093          	addi	ra,ra,-1944 # 8013044 <tdat3>
 80037e4:	00209703          	lh	a4,2(ra)
 80037e8:	00000013          	nop
 80037ec:	00070313          	mv	t1,a4
 80037f0:	fffffeb7          	lui	t4,0xfffff
 80037f4:	00fe8e9b          	addiw	t4,t4,15
 80037f8:	01d30463          	beq	t1,t4,8003800 <test_13+0x2c>
 80037fc:	0fd0e06f          	j	80120f8 <fail>
 8003800:	00120213          	addi	tp,tp,1 # 1 <u_mode_trap_table-0x8000003>
 8003804:	00200293          	li	t0,2
 8003808:	fc521ae3          	bne	tp,t0,80037dc <test_13+0x8>

000000000800380c <test_14>:
  TEST_LD_DEST_BYPASS( 14, 2, lh, 0xffffffffffffff00, 2, tdat1 );
 800380c:	00e00193          	li	gp,14
 8003810:	00000213          	li	tp,0
 8003814:	00010097          	auipc	ra,0x10
 8003818:	82c08093          	addi	ra,ra,-2004 # 8013040 <tdat>
 800381c:	00209703          	lh	a4,2(ra)
 8003820:	00000013          	nop
 8003824:	00000013          	nop
 8003828:	00070313          	mv	t1,a4
 800382c:	f0000e93          	li	t4,-256
 8003830:	01d30463          	beq	t1,t4,8003838 <test_14+0x2c>
 8003834:	0c50e06f          	j	80120f8 <fail>
 8003838:	00120213          	addi	tp,tp,1 # 1 <u_mode_trap_table-0x8000003>
 800383c:	00200293          	li	t0,2
 8003840:	fc521ae3          	bne	tp,t0,8003814 <test_14+0x8>

0000000008003844 <test_15>:

  TEST_LD_SRC1_BYPASS( 15, 0, lh, 0x0000000000000ff0, 2, tdat2 );
 8003844:	00f00193          	li	gp,15
 8003848:	00000213          	li	tp,0
 800384c:	0000f097          	auipc	ra,0xf
 8003850:	7f608093          	addi	ra,ra,2038 # 8013042 <tdat2>
 8003854:	00209703          	lh	a4,2(ra)
 8003858:	00001eb7          	lui	t4,0x1
 800385c:	ff0e8e9b          	addiw	t4,t4,-16
 8003860:	01d70463          	beq	a4,t4,8003868 <test_15+0x24>
 8003864:	0950e06f          	j	80120f8 <fail>
 8003868:	00120213          	addi	tp,tp,1 # 1 <u_mode_trap_table-0x8000003>
 800386c:	00200293          	li	t0,2
 8003870:	fc521ee3          	bne	tp,t0,800384c <test_15+0x8>

0000000008003874 <test_16>:
  TEST_LD_SRC1_BYPASS( 16, 1, lh, 0xfffffffffffff00f, 2, tdat3 );
 8003874:	01000193          	li	gp,16
 8003878:	00000213          	li	tp,0
 800387c:	0000f097          	auipc	ra,0xf
 8003880:	7c808093          	addi	ra,ra,1992 # 8013044 <tdat3>
 8003884:	00000013          	nop
 8003888:	00209703          	lh	a4,2(ra)
 800388c:	fffffeb7          	lui	t4,0xfffff
 8003890:	00fe8e9b          	addiw	t4,t4,15
 8003894:	01d70463          	beq	a4,t4,800389c <test_16+0x28>
 8003898:	0610e06f          	j	80120f8 <fail>
 800389c:	00120213          	addi	tp,tp,1 # 1 <u_mode_trap_table-0x8000003>
 80038a0:	00200293          	li	t0,2
 80038a4:	fc521ce3          	bne	tp,t0,800387c <test_16+0x8>

00000000080038a8 <test_17>:
  TEST_LD_SRC1_BYPASS( 17, 2, lh, 0xffffffffffffff00, 2, tdat1 );
 80038a8:	01100193          	li	gp,17
 80038ac:	00000213          	li	tp,0
 80038b0:	0000f097          	auipc	ra,0xf
 80038b4:	79008093          	addi	ra,ra,1936 # 8013040 <tdat>
 80038b8:	00000013          	nop
 80038bc:	00000013          	nop
 80038c0:	00209703          	lh	a4,2(ra)
 80038c4:	f0000e93          	li	t4,-256
 80038c8:	01d70463          	beq	a4,t4,80038d0 <test_17+0x28>
 80038cc:	02d0e06f          	j	80120f8 <fail>
 80038d0:	00120213          	addi	tp,tp,1 # 1 <u_mode_trap_table-0x8000003>
 80038d4:	00200293          	li	t0,2
 80038d8:	fc521ce3          	bne	tp,t0,80038b0 <test_17+0x8>

00000000080038dc <test_18>:

  #-------------------------------------------------------------
  # Test write-after-write hazard
  #-------------------------------------------------------------

  TEST_CASE( 18, x2, 2, \
 80038dc:	0000f297          	auipc	t0,0xf
 80038e0:	76428293          	addi	t0,t0,1892 # 8013040 <tdat>
 80038e4:	00029103          	lh	sp,0(t0)
 80038e8:	00200113          	li	sp,2
 80038ec:	00200e93          	li	t4,2
 80038f0:	01200193          	li	gp,18
 80038f4:	01d10463          	beq	sp,t4,80038fc <test_19>
 80038f8:	0010e06f          	j	80120f8 <fail>

00000000080038fc <test_19>:
    la  x5, tdat; \
    lh  x2, 0(x5); \
    li  x2, 2; \
  )

  TEST_CASE( 19, x2, 2, \
 80038fc:	0000f297          	auipc	t0,0xf
 8003900:	74428293          	addi	t0,t0,1860 # 8013040 <tdat>
 8003904:	00029103          	lh	sp,0(t0)
 8003908:	00000013          	nop
 800390c:	00200113          	li	sp,2
 8003910:	00200e93          	li	t4,2
 8003914:	01300193          	li	gp,19
 8003918:	01d10463          	beq	sp,t4,8003920 <test_19+0x24>
 800391c:	7dc0e06f          	j	80120f8 <fail>
    li  x2, 2; \
  )

  TEST_PASSFAIL

RVTEST_CODE_END
 8003920:	c0001073          	unimp

0000000008003924 <test_2>:

  #-------------------------------------------------------------
  # Basic tests
  #-------------------------------------------------------------

  TEST_LD_OP( 2, lhu, 0x00000000000000ff, 0,  tdat );
 8003924:	0000f097          	auipc	ra,0xf
 8003928:	72c08093          	addi	ra,ra,1836 # 8013050 <tdat>
 800392c:	0000d703          	lhu	a4,0(ra)
 8003930:	0ff00e93          	li	t4,255
 8003934:	00200193          	li	gp,2
 8003938:	01d70463          	beq	a4,t4,8003940 <test_3>
 800393c:	7bc0e06f          	j	80120f8 <fail>

0000000008003940 <test_3>:
  TEST_LD_OP( 3, lhu, 0x000000000000ff00, 2,  tdat );
 8003940:	0000f097          	auipc	ra,0xf
 8003944:	71008093          	addi	ra,ra,1808 # 8013050 <tdat>
 8003948:	0020d703          	lhu	a4,2(ra)
 800394c:	00010eb7          	lui	t4,0x10
 8003950:	f00e8e9b          	addiw	t4,t4,-256
 8003954:	00300193          	li	gp,3
 8003958:	01d70463          	beq	a4,t4,8003960 <test_4>
 800395c:	79c0e06f          	j	80120f8 <fail>

0000000008003960 <test_4>:
  TEST_LD_OP( 4, lhu, 0x0000000000000ff0, 4,  tdat );
 8003960:	0000f097          	auipc	ra,0xf
 8003964:	6f008093          	addi	ra,ra,1776 # 8013050 <tdat>
 8003968:	0040d703          	lhu	a4,4(ra)
 800396c:	00001eb7          	lui	t4,0x1
 8003970:	ff0e8e9b          	addiw	t4,t4,-16
 8003974:	00400193          	li	gp,4
 8003978:	01d70463          	beq	a4,t4,8003980 <test_5>
 800397c:	77c0e06f          	j	80120f8 <fail>

0000000008003980 <test_5>:
  TEST_LD_OP( 5, lhu, 0x000000000000f00f, 6, tdat );
 8003980:	0000f097          	auipc	ra,0xf
 8003984:	6d008093          	addi	ra,ra,1744 # 8013050 <tdat>
 8003988:	0060d703          	lhu	a4,6(ra)
 800398c:	0000feb7          	lui	t4,0xf
 8003990:	00fe8e9b          	addiw	t4,t4,15
 8003994:	00500193          	li	gp,5
 8003998:	01d70463          	beq	a4,t4,80039a0 <test_6>
 800399c:	75c0e06f          	j	80120f8 <fail>

00000000080039a0 <test_6>:

  # Test with negative offset

  TEST_LD_OP( 6, lhu, 0x00000000000000ff, -6,  tdat4 );
 80039a0:	0000f097          	auipc	ra,0xf
 80039a4:	6b608093          	addi	ra,ra,1718 # 8013056 <tdat4>
 80039a8:	ffa0d703          	lhu	a4,-6(ra)
 80039ac:	0ff00e93          	li	t4,255
 80039b0:	00600193          	li	gp,6
 80039b4:	01d70463          	beq	a4,t4,80039bc <test_7>
 80039b8:	7400e06f          	j	80120f8 <fail>

00000000080039bc <test_7>:
  TEST_LD_OP( 7, lhu, 0x000000000000ff00, -4,  tdat4 );
 80039bc:	0000f097          	auipc	ra,0xf
 80039c0:	69a08093          	addi	ra,ra,1690 # 8013056 <tdat4>
 80039c4:	ffc0d703          	lhu	a4,-4(ra)
 80039c8:	00010eb7          	lui	t4,0x10
 80039cc:	f00e8e9b          	addiw	t4,t4,-256
 80039d0:	00700193          	li	gp,7
 80039d4:	01d70463          	beq	a4,t4,80039dc <test_8>
 80039d8:	7200e06f          	j	80120f8 <fail>

00000000080039dc <test_8>:
  TEST_LD_OP( 8, lhu, 0x0000000000000ff0, -2,  tdat4 );
 80039dc:	0000f097          	auipc	ra,0xf
 80039e0:	67a08093          	addi	ra,ra,1658 # 8013056 <tdat4>
 80039e4:	ffe0d703          	lhu	a4,-2(ra)
 80039e8:	00001eb7          	lui	t4,0x1
 80039ec:	ff0e8e9b          	addiw	t4,t4,-16
 80039f0:	00800193          	li	gp,8
 80039f4:	01d70463          	beq	a4,t4,80039fc <test_9>
 80039f8:	7000e06f          	j	80120f8 <fail>

00000000080039fc <test_9>:
  TEST_LD_OP( 9, lhu, 0x000000000000f00f,  0, tdat4 );
 80039fc:	0000f097          	auipc	ra,0xf
 8003a00:	65a08093          	addi	ra,ra,1626 # 8013056 <tdat4>
 8003a04:	0000d703          	lhu	a4,0(ra)
 8003a08:	0000feb7          	lui	t4,0xf
 8003a0c:	00fe8e9b          	addiw	t4,t4,15
 8003a10:	00900193          	li	gp,9
 8003a14:	01d70463          	beq	a4,t4,8003a1c <test_10>
 8003a18:	6e00e06f          	j	80120f8 <fail>

0000000008003a1c <test_10>:

  # Test with a negative base

  TEST_CASE( 10, x5, 0x00000000000000ff, \
 8003a1c:	0000f097          	auipc	ra,0xf
 8003a20:	63408093          	addi	ra,ra,1588 # 8013050 <tdat>
 8003a24:	fe008093          	addi	ra,ra,-32
 8003a28:	0200d283          	lhu	t0,32(ra)
 8003a2c:	0ff00e93          	li	t4,255
 8003a30:	00a00193          	li	gp,10
 8003a34:	01d28463          	beq	t0,t4,8003a3c <test_11>
 8003a38:	6c00e06f          	j	80120f8 <fail>

0000000008003a3c <test_11>:
    lhu x5, 32(x1); \
  )

  # Test with unaligned base

  TEST_CASE( 11, x5, 0x000000000000ff00, \
 8003a3c:	0000f097          	auipc	ra,0xf
 8003a40:	61408093          	addi	ra,ra,1556 # 8013050 <tdat>
 8003a44:	ffb08093          	addi	ra,ra,-5
 8003a48:	0070d283          	lhu	t0,7(ra)
 8003a4c:	00010eb7          	lui	t4,0x10
 8003a50:	f00e8e9b          	addiw	t4,t4,-256
 8003a54:	00b00193          	li	gp,11
 8003a58:	01d28463          	beq	t0,t4,8003a60 <test_12>
 8003a5c:	69c0e06f          	j	80120f8 <fail>

0000000008003a60 <test_12>:

  #-------------------------------------------------------------
  # Bypassing tests
  #-------------------------------------------------------------

  TEST_LD_DEST_BYPASS( 12, 0, lhu, 0x0000000000000ff0, 2, tdat2 );
 8003a60:	00c00193          	li	gp,12
 8003a64:	00000213          	li	tp,0
 8003a68:	0000f097          	auipc	ra,0xf
 8003a6c:	5ea08093          	addi	ra,ra,1514 # 8013052 <tdat2>
 8003a70:	0020d703          	lhu	a4,2(ra)
 8003a74:	00070313          	mv	t1,a4
 8003a78:	00001eb7          	lui	t4,0x1
 8003a7c:	ff0e8e9b          	addiw	t4,t4,-16
 8003a80:	01d30463          	beq	t1,t4,8003a88 <test_12+0x28>
 8003a84:	6740e06f          	j	80120f8 <fail>
 8003a88:	00120213          	addi	tp,tp,1 # 1 <u_mode_trap_table-0x8000003>
 8003a8c:	00200293          	li	t0,2
 8003a90:	fc521ce3          	bne	tp,t0,8003a68 <test_12+0x8>

0000000008003a94 <test_13>:
  TEST_LD_DEST_BYPASS( 13, 1, lhu, 0x000000000000f00f, 2, tdat3 );
 8003a94:	00d00193          	li	gp,13
 8003a98:	00000213          	li	tp,0
 8003a9c:	0000f097          	auipc	ra,0xf
 8003aa0:	5b808093          	addi	ra,ra,1464 # 8013054 <tdat3>
 8003aa4:	0020d703          	lhu	a4,2(ra)
 8003aa8:	00000013          	nop
 8003aac:	00070313          	mv	t1,a4
 8003ab0:	0000feb7          	lui	t4,0xf
 8003ab4:	00fe8e9b          	addiw	t4,t4,15
 8003ab8:	01d30463          	beq	t1,t4,8003ac0 <test_13+0x2c>
 8003abc:	63c0e06f          	j	80120f8 <fail>
 8003ac0:	00120213          	addi	tp,tp,1 # 1 <u_mode_trap_table-0x8000003>
 8003ac4:	00200293          	li	t0,2
 8003ac8:	fc521ae3          	bne	tp,t0,8003a9c <test_13+0x8>

0000000008003acc <test_14>:
  TEST_LD_DEST_BYPASS( 14, 2, lhu, 0x000000000000ff00, 2, tdat1 );
 8003acc:	00e00193          	li	gp,14
 8003ad0:	00000213          	li	tp,0
 8003ad4:	0000f097          	auipc	ra,0xf
 8003ad8:	57c08093          	addi	ra,ra,1404 # 8013050 <tdat>
 8003adc:	0020d703          	lhu	a4,2(ra)
 8003ae0:	00000013          	nop
 8003ae4:	00000013          	nop
 8003ae8:	00070313          	mv	t1,a4
 8003aec:	00010eb7          	lui	t4,0x10
 8003af0:	f00e8e9b          	addiw	t4,t4,-256
 8003af4:	01d30463          	beq	t1,t4,8003afc <test_14+0x30>
 8003af8:	6000e06f          	j	80120f8 <fail>
 8003afc:	00120213          	addi	tp,tp,1 # 1 <u_mode_trap_table-0x8000003>
 8003b00:	00200293          	li	t0,2
 8003b04:	fc5218e3          	bne	tp,t0,8003ad4 <test_14+0x8>

0000000008003b08 <test_15>:

  TEST_LD_SRC1_BYPASS( 15, 0, lhu, 0x0000000000000ff0, 2, tdat2 );
 8003b08:	00f00193          	li	gp,15
 8003b0c:	00000213          	li	tp,0
 8003b10:	0000f097          	auipc	ra,0xf
 8003b14:	54208093          	addi	ra,ra,1346 # 8013052 <tdat2>
 8003b18:	0020d703          	lhu	a4,2(ra)
 8003b1c:	00001eb7          	lui	t4,0x1
 8003b20:	ff0e8e9b          	addiw	t4,t4,-16
 8003b24:	01d70463          	beq	a4,t4,8003b2c <test_15+0x24>
 8003b28:	5d00e06f          	j	80120f8 <fail>
 8003b2c:	00120213          	addi	tp,tp,1 # 1 <u_mode_trap_table-0x8000003>
 8003b30:	00200293          	li	t0,2
 8003b34:	fc521ee3          	bne	tp,t0,8003b10 <test_15+0x8>

0000000008003b38 <test_16>:
  TEST_LD_SRC1_BYPASS( 16, 1, lhu, 0x000000000000f00f, 2, tdat3 );
 8003b38:	01000193          	li	gp,16
 8003b3c:	00000213          	li	tp,0
 8003b40:	0000f097          	auipc	ra,0xf
 8003b44:	51408093          	addi	ra,ra,1300 # 8013054 <tdat3>
 8003b48:	00000013          	nop
 8003b4c:	0020d703          	lhu	a4,2(ra)
 8003b50:	0000feb7          	lui	t4,0xf
 8003b54:	00fe8e9b          	addiw	t4,t4,15
 8003b58:	01d70463          	beq	a4,t4,8003b60 <test_16+0x28>
 8003b5c:	59c0e06f          	j	80120f8 <fail>
 8003b60:	00120213          	addi	tp,tp,1 # 1 <u_mode_trap_table-0x8000003>
 8003b64:	00200293          	li	t0,2
 8003b68:	fc521ce3          	bne	tp,t0,8003b40 <test_16+0x8>

0000000008003b6c <test_17>:
  TEST_LD_SRC1_BYPASS( 17, 2, lhu, 0x000000000000ff00, 2, tdat1 );
 8003b6c:	01100193          	li	gp,17
 8003b70:	00000213          	li	tp,0
 8003b74:	0000f097          	auipc	ra,0xf
 8003b78:	4dc08093          	addi	ra,ra,1244 # 8013050 <tdat>
 8003b7c:	00000013          	nop
 8003b80:	00000013          	nop
 8003b84:	0020d703          	lhu	a4,2(ra)
 8003b88:	00010eb7          	lui	t4,0x10
 8003b8c:	f00e8e9b          	addiw	t4,t4,-256
 8003b90:	01d70463          	beq	a4,t4,8003b98 <test_17+0x2c>
 8003b94:	5640e06f          	j	80120f8 <fail>
 8003b98:	00120213          	addi	tp,tp,1 # 1 <u_mode_trap_table-0x8000003>
 8003b9c:	00200293          	li	t0,2
 8003ba0:	fc521ae3          	bne	tp,t0,8003b74 <test_17+0x8>

0000000008003ba4 <test_18>:

  #-------------------------------------------------------------
  # Test write-after-write hazard
  #-------------------------------------------------------------

  TEST_CASE( 18, x2, 2, \
 8003ba4:	0000f297          	auipc	t0,0xf
 8003ba8:	4ac28293          	addi	t0,t0,1196 # 8013050 <tdat>
 8003bac:	0002d103          	lhu	sp,0(t0)
 8003bb0:	00200113          	li	sp,2
 8003bb4:	00200e93          	li	t4,2
 8003bb8:	01200193          	li	gp,18
 8003bbc:	01d10463          	beq	sp,t4,8003bc4 <test_19>
 8003bc0:	5380e06f          	j	80120f8 <fail>

0000000008003bc4 <test_19>:
    la  x5, tdat; \
    lhu  x2, 0(x5); \
    li  x2, 2; \
  )

  TEST_CASE( 19, x2, 2, \
 8003bc4:	0000f297          	auipc	t0,0xf
 8003bc8:	48c28293          	addi	t0,t0,1164 # 8013050 <tdat>
 8003bcc:	0002d103          	lhu	sp,0(t0)
 8003bd0:	00000013          	nop
 8003bd4:	00200113          	li	sp,2
 8003bd8:	00200e93          	li	t4,2
 8003bdc:	01300193          	li	gp,19
 8003be0:	01d10463          	beq	sp,t4,8003be8 <test_19+0x24>
 8003be4:	5140e06f          	j	80120f8 <fail>
    li  x2, 2; \
  )

  TEST_PASSFAIL

RVTEST_CODE_END
 8003be8:	c0001073          	unimp

0000000008003bec <test_2>:

  #-------------------------------------------------------------
  # Basic tests
  #-------------------------------------------------------------

  TEST_LD_OP( 2, lw, 0x0000000000ff00ff, 0,  tdat );
 8003bec:	0000f097          	auipc	ra,0xf
 8003bf0:	47408093          	addi	ra,ra,1140 # 8013060 <tdat>
 8003bf4:	0000a703          	lw	a4,0(ra)
 8003bf8:	00ff0eb7          	lui	t4,0xff0
 8003bfc:	0ffe8e9b          	addiw	t4,t4,255
 8003c00:	00200193          	li	gp,2
 8003c04:	01d70463          	beq	a4,t4,8003c0c <test_3>
 8003c08:	4f00e06f          	j	80120f8 <fail>

0000000008003c0c <test_3>:
  TEST_LD_OP( 3, lw, 0xffffffffff00ff00, 4,  tdat );
 8003c0c:	0000f097          	auipc	ra,0xf
 8003c10:	45408093          	addi	ra,ra,1108 # 8013060 <tdat>
 8003c14:	0040a703          	lw	a4,4(ra)
 8003c18:	ff010eb7          	lui	t4,0xff010
 8003c1c:	f00e8e9b          	addiw	t4,t4,-256
 8003c20:	00300193          	li	gp,3
 8003c24:	01d70463          	beq	a4,t4,8003c2c <test_4>
 8003c28:	4d00e06f          	j	80120f8 <fail>

0000000008003c2c <test_4>:
  TEST_LD_OP( 4, lw, 0x000000000ff00ff0, 8,  tdat );
 8003c2c:	0000f097          	auipc	ra,0xf
 8003c30:	43408093          	addi	ra,ra,1076 # 8013060 <tdat>
 8003c34:	0080a703          	lw	a4,8(ra)
 8003c38:	0ff01eb7          	lui	t4,0xff01
 8003c3c:	ff0e8e9b          	addiw	t4,t4,-16
 8003c40:	00400193          	li	gp,4
 8003c44:	01d70463          	beq	a4,t4,8003c4c <test_5>
 8003c48:	4b00e06f          	j	80120f8 <fail>

0000000008003c4c <test_5>:
  TEST_LD_OP( 5, lw, 0xfffffffff00ff00f, 12, tdat );
 8003c4c:	0000f097          	auipc	ra,0xf
 8003c50:	41408093          	addi	ra,ra,1044 # 8013060 <tdat>
 8003c54:	00c0a703          	lw	a4,12(ra)
 8003c58:	f00ffeb7          	lui	t4,0xf00ff
 8003c5c:	00fe8e9b          	addiw	t4,t4,15
 8003c60:	00500193          	li	gp,5
 8003c64:	01d70463          	beq	a4,t4,8003c6c <test_6>
 8003c68:	4900e06f          	j	80120f8 <fail>

0000000008003c6c <test_6>:

  # Test with negative offset

  TEST_LD_OP( 6, lw, 0x0000000000ff00ff, -12, tdat4 );
 8003c6c:	0000f097          	auipc	ra,0xf
 8003c70:	40008093          	addi	ra,ra,1024 # 801306c <tdat4>
 8003c74:	ff40a703          	lw	a4,-12(ra)
 8003c78:	00ff0eb7          	lui	t4,0xff0
 8003c7c:	0ffe8e9b          	addiw	t4,t4,255
 8003c80:	00600193          	li	gp,6
 8003c84:	01d70463          	beq	a4,t4,8003c8c <test_7>
 8003c88:	4700e06f          	j	80120f8 <fail>

0000000008003c8c <test_7>:
  TEST_LD_OP( 7, lw, 0xffffffffff00ff00, -8,  tdat4 );
 8003c8c:	0000f097          	auipc	ra,0xf
 8003c90:	3e008093          	addi	ra,ra,992 # 801306c <tdat4>
 8003c94:	ff80a703          	lw	a4,-8(ra)
 8003c98:	ff010eb7          	lui	t4,0xff010
 8003c9c:	f00e8e9b          	addiw	t4,t4,-256
 8003ca0:	00700193          	li	gp,7
 8003ca4:	01d70463          	beq	a4,t4,8003cac <test_8>
 8003ca8:	4500e06f          	j	80120f8 <fail>

0000000008003cac <test_8>:
  TEST_LD_OP( 8, lw, 0x000000000ff00ff0, -4,  tdat4 );
 8003cac:	0000f097          	auipc	ra,0xf
 8003cb0:	3c008093          	addi	ra,ra,960 # 801306c <tdat4>
 8003cb4:	ffc0a703          	lw	a4,-4(ra)
 8003cb8:	0ff01eb7          	lui	t4,0xff01
 8003cbc:	ff0e8e9b          	addiw	t4,t4,-16
 8003cc0:	00800193          	li	gp,8
 8003cc4:	01d70463          	beq	a4,t4,8003ccc <test_9>
 8003cc8:	4300e06f          	j	80120f8 <fail>

0000000008003ccc <test_9>:
  TEST_LD_OP( 9, lw, 0xfffffffff00ff00f, 0,   tdat4 );
 8003ccc:	0000f097          	auipc	ra,0xf
 8003cd0:	3a008093          	addi	ra,ra,928 # 801306c <tdat4>
 8003cd4:	0000a703          	lw	a4,0(ra)
 8003cd8:	f00ffeb7          	lui	t4,0xf00ff
 8003cdc:	00fe8e9b          	addiw	t4,t4,15
 8003ce0:	00900193          	li	gp,9
 8003ce4:	01d70463          	beq	a4,t4,8003cec <test_10>
 8003ce8:	4100e06f          	j	80120f8 <fail>

0000000008003cec <test_10>:

  # Test with a negative base

  TEST_CASE( 10, x5, 0x0000000000ff00ff, \
 8003cec:	0000f097          	auipc	ra,0xf
 8003cf0:	37408093          	addi	ra,ra,884 # 8013060 <tdat>
 8003cf4:	fe008093          	addi	ra,ra,-32
 8003cf8:	0200a283          	lw	t0,32(ra)
 8003cfc:	00ff0eb7          	lui	t4,0xff0
 8003d00:	0ffe8e9b          	addiw	t4,t4,255
 8003d04:	00a00193          	li	gp,10
 8003d08:	01d28463          	beq	t0,t4,8003d10 <test_11>
 8003d0c:	3ec0e06f          	j	80120f8 <fail>

0000000008003d10 <test_11>:
    lw x5, 32(x1); \
  )

  # Test with unaligned base

  TEST_CASE( 11, x5, 0xffffffffff00ff00, \
 8003d10:	0000f097          	auipc	ra,0xf
 8003d14:	35008093          	addi	ra,ra,848 # 8013060 <tdat>
 8003d18:	ffd08093          	addi	ra,ra,-3
 8003d1c:	0070a283          	lw	t0,7(ra)
 8003d20:	ff010eb7          	lui	t4,0xff010
 8003d24:	f00e8e9b          	addiw	t4,t4,-256
 8003d28:	00b00193          	li	gp,11
 8003d2c:	01d28463          	beq	t0,t4,8003d34 <test_12>
 8003d30:	3c80e06f          	j	80120f8 <fail>

0000000008003d34 <test_12>:

  #-------------------------------------------------------------
  # Bypassing tests
  #-------------------------------------------------------------

  TEST_LD_DEST_BYPASS( 12, 0, lw, 0x000000000ff00ff0, 4, tdat2 );
 8003d34:	00c00193          	li	gp,12
 8003d38:	00000213          	li	tp,0
 8003d3c:	0000f097          	auipc	ra,0xf
 8003d40:	32808093          	addi	ra,ra,808 # 8013064 <tdat2>
 8003d44:	0040a703          	lw	a4,4(ra)
 8003d48:	00070313          	mv	t1,a4
 8003d4c:	0ff01eb7          	lui	t4,0xff01
 8003d50:	ff0e8e9b          	addiw	t4,t4,-16
 8003d54:	01d30463          	beq	t1,t4,8003d5c <test_12+0x28>
 8003d58:	3a00e06f          	j	80120f8 <fail>
 8003d5c:	00120213          	addi	tp,tp,1 # 1 <u_mode_trap_table-0x8000003>
 8003d60:	00200293          	li	t0,2
 8003d64:	fc521ce3          	bne	tp,t0,8003d3c <test_12+0x8>

0000000008003d68 <test_13>:
  TEST_LD_DEST_BYPASS( 13, 1, lw, 0xfffffffff00ff00f, 4, tdat3 );
 8003d68:	00d00193          	li	gp,13
 8003d6c:	00000213          	li	tp,0
 8003d70:	0000f097          	auipc	ra,0xf
 8003d74:	2f808093          	addi	ra,ra,760 # 8013068 <tdat3>
 8003d78:	0040a703          	lw	a4,4(ra)
 8003d7c:	00000013          	nop
 8003d80:	00070313          	mv	t1,a4
 8003d84:	f00ffeb7          	lui	t4,0xf00ff
 8003d88:	00fe8e9b          	addiw	t4,t4,15
 8003d8c:	01d30463          	beq	t1,t4,8003d94 <test_13+0x2c>
 8003d90:	3680e06f          	j	80120f8 <fail>
 8003d94:	00120213          	addi	tp,tp,1 # 1 <u_mode_trap_table-0x8000003>
 8003d98:	00200293          	li	t0,2
 8003d9c:	fc521ae3          	bne	tp,t0,8003d70 <test_13+0x8>

0000000008003da0 <test_14>:
  TEST_LD_DEST_BYPASS( 14, 2, lw, 0xffffffffff00ff00, 4, tdat1 );
 8003da0:	00e00193          	li	gp,14
 8003da4:	00000213          	li	tp,0
 8003da8:	0000f097          	auipc	ra,0xf
 8003dac:	2b808093          	addi	ra,ra,696 # 8013060 <tdat>
 8003db0:	0040a703          	lw	a4,4(ra)
 8003db4:	00000013          	nop
 8003db8:	00000013          	nop
 8003dbc:	00070313          	mv	t1,a4
 8003dc0:	ff010eb7          	lui	t4,0xff010
 8003dc4:	f00e8e9b          	addiw	t4,t4,-256
 8003dc8:	01d30463          	beq	t1,t4,8003dd0 <test_14+0x30>
 8003dcc:	32c0e06f          	j	80120f8 <fail>
 8003dd0:	00120213          	addi	tp,tp,1 # 1 <u_mode_trap_table-0x8000003>
 8003dd4:	00200293          	li	t0,2
 8003dd8:	fc5218e3          	bne	tp,t0,8003da8 <test_14+0x8>

0000000008003ddc <test_15>:

  TEST_LD_SRC1_BYPASS( 15, 0, lw, 0x000000000ff00ff0, 4, tdat2 );
 8003ddc:	00f00193          	li	gp,15
 8003de0:	00000213          	li	tp,0
 8003de4:	0000f097          	auipc	ra,0xf
 8003de8:	28008093          	addi	ra,ra,640 # 8013064 <tdat2>
 8003dec:	0040a703          	lw	a4,4(ra)
 8003df0:	0ff01eb7          	lui	t4,0xff01
 8003df4:	ff0e8e9b          	addiw	t4,t4,-16
 8003df8:	01d70463          	beq	a4,t4,8003e00 <test_15+0x24>
 8003dfc:	2fc0e06f          	j	80120f8 <fail>
 8003e00:	00120213          	addi	tp,tp,1 # 1 <u_mode_trap_table-0x8000003>
 8003e04:	00200293          	li	t0,2
 8003e08:	fc521ee3          	bne	tp,t0,8003de4 <test_15+0x8>

0000000008003e0c <test_16>:
  TEST_LD_SRC1_BYPASS( 16, 1, lw, 0xfffffffff00ff00f, 4, tdat3 );
 8003e0c:	01000193          	li	gp,16
 8003e10:	00000213          	li	tp,0
 8003e14:	0000f097          	auipc	ra,0xf
 8003e18:	25408093          	addi	ra,ra,596 # 8013068 <tdat3>
 8003e1c:	00000013          	nop
 8003e20:	0040a703          	lw	a4,4(ra)
 8003e24:	f00ffeb7          	lui	t4,0xf00ff
 8003e28:	00fe8e9b          	addiw	t4,t4,15
 8003e2c:	01d70463          	beq	a4,t4,8003e34 <test_16+0x28>
 8003e30:	2c80e06f          	j	80120f8 <fail>
 8003e34:	00120213          	addi	tp,tp,1 # 1 <u_mode_trap_table-0x8000003>
 8003e38:	00200293          	li	t0,2
 8003e3c:	fc521ce3          	bne	tp,t0,8003e14 <test_16+0x8>

0000000008003e40 <test_17>:
  TEST_LD_SRC1_BYPASS( 17, 2, lw, 0xffffffffff00ff00, 4, tdat1 );
 8003e40:	01100193          	li	gp,17
 8003e44:	00000213          	li	tp,0
 8003e48:	0000f097          	auipc	ra,0xf
 8003e4c:	21808093          	addi	ra,ra,536 # 8013060 <tdat>
 8003e50:	00000013          	nop
 8003e54:	00000013          	nop
 8003e58:	0040a703          	lw	a4,4(ra)
 8003e5c:	ff010eb7          	lui	t4,0xff010
 8003e60:	f00e8e9b          	addiw	t4,t4,-256
 8003e64:	01d70463          	beq	a4,t4,8003e6c <test_17+0x2c>
 8003e68:	2900e06f          	j	80120f8 <fail>
 8003e6c:	00120213          	addi	tp,tp,1 # 1 <u_mode_trap_table-0x8000003>
 8003e70:	00200293          	li	t0,2
 8003e74:	fc521ae3          	bne	tp,t0,8003e48 <test_17+0x8>

0000000008003e78 <test_18>:

  #-------------------------------------------------------------
  # Test write-after-write hazard
  #-------------------------------------------------------------

  TEST_CASE( 18, x2, 2, \
 8003e78:	0000f297          	auipc	t0,0xf
 8003e7c:	1e828293          	addi	t0,t0,488 # 8013060 <tdat>
 8003e80:	0002a103          	lw	sp,0(t0)
 8003e84:	00200113          	li	sp,2
 8003e88:	00200e93          	li	t4,2
 8003e8c:	01200193          	li	gp,18
 8003e90:	01d10463          	beq	sp,t4,8003e98 <test_19>
 8003e94:	2640e06f          	j	80120f8 <fail>

0000000008003e98 <test_19>:
    la  x5, tdat; \
    lw  x2, 0(x5); \
    li  x2, 2; \
  )

  TEST_CASE( 19, x2, 2, \
 8003e98:	0000f297          	auipc	t0,0xf
 8003e9c:	1c828293          	addi	t0,t0,456 # 8013060 <tdat>
 8003ea0:	0002a103          	lw	sp,0(t0)
 8003ea4:	00000013          	nop
 8003ea8:	00200113          	li	sp,2
 8003eac:	00200e93          	li	t4,2
 8003eb0:	01300193          	li	gp,19
 8003eb4:	01d10463          	beq	sp,t4,8003ebc <test_19+0x24>
 8003eb8:	2400e06f          	j	80120f8 <fail>
    li  x2, 2; \
  )

  TEST_PASSFAIL

RVTEST_CODE_END
 8003ebc:	c0001073          	unimp

0000000008003ec0 <test_2>:

  #-------------------------------------------------------------
  # Basic tests
  #-------------------------------------------------------------

  TEST_LD_OP( 2, lwu, 0x0000000000ff00ff, 0,  tdat );
 8003ec0:	0000f097          	auipc	ra,0xf
 8003ec4:	1b008093          	addi	ra,ra,432 # 8013070 <tdat>
 8003ec8:	0000e703          	lwu	a4,0(ra)
 8003ecc:	00ff0eb7          	lui	t4,0xff0
 8003ed0:	0ffe8e9b          	addiw	t4,t4,255
 8003ed4:	00200193          	li	gp,2
 8003ed8:	01d70463          	beq	a4,t4,8003ee0 <test_3>
 8003edc:	21c0e06f          	j	80120f8 <fail>

0000000008003ee0 <test_3>:
  TEST_LD_OP( 3, lwu, 0x00000000ff00ff00, 4,  tdat );
 8003ee0:	0000f097          	auipc	ra,0xf
 8003ee4:	19008093          	addi	ra,ra,400 # 8013070 <tdat>
 8003ee8:	0040e703          	lwu	a4,4(ra)
 8003eec:	00010eb7          	lui	t4,0x10
 8003ef0:	f01e8e9b          	addiw	t4,t4,-255
 8003ef4:	010e9e93          	slli	t4,t4,0x10
 8003ef8:	f00e8e93          	addi	t4,t4,-256 # ff00 <u_mode_trap_table-0x7ff0104>
 8003efc:	00300193          	li	gp,3
 8003f00:	01d70463          	beq	a4,t4,8003f08 <test_4>
 8003f04:	1f40e06f          	j	80120f8 <fail>

0000000008003f08 <test_4>:
  TEST_LD_OP( 4, lwu, 0x000000000ff00ff0, 8,  tdat );
 8003f08:	0000f097          	auipc	ra,0xf
 8003f0c:	16808093          	addi	ra,ra,360 # 8013070 <tdat>
 8003f10:	0080e703          	lwu	a4,8(ra)
 8003f14:	0ff01eb7          	lui	t4,0xff01
 8003f18:	ff0e8e9b          	addiw	t4,t4,-16
 8003f1c:	00400193          	li	gp,4
 8003f20:	01d70463          	beq	a4,t4,8003f28 <test_5>
 8003f24:	1d40e06f          	j	80120f8 <fail>

0000000008003f28 <test_5>:
  TEST_LD_OP( 5, lwu, 0x00000000f00ff00f, 12, tdat );
 8003f28:	0000f097          	auipc	ra,0xf
 8003f2c:	14808093          	addi	ra,ra,328 # 8013070 <tdat>
 8003f30:	00c0e703          	lwu	a4,12(ra)
 8003f34:	000f0eb7          	lui	t4,0xf0
 8003f38:	0ffe8e9b          	addiw	t4,t4,255
 8003f3c:	00ce9e93          	slli	t4,t4,0xc
 8003f40:	00fe8e93          	addi	t4,t4,15 # f000f <u_mode_trap_table-0x7f0fff5>
 8003f44:	00500193          	li	gp,5
 8003f48:	01d70463          	beq	a4,t4,8003f50 <test_6>
 8003f4c:	1ac0e06f          	j	80120f8 <fail>

0000000008003f50 <test_6>:

  # Test with negative offset

  TEST_LD_OP( 6, lwu, 0x0000000000ff00ff, -12, tdat4 );
 8003f50:	0000f097          	auipc	ra,0xf
 8003f54:	12c08093          	addi	ra,ra,300 # 801307c <tdat4>
 8003f58:	ff40e703          	lwu	a4,-12(ra)
 8003f5c:	00ff0eb7          	lui	t4,0xff0
 8003f60:	0ffe8e9b          	addiw	t4,t4,255
 8003f64:	00600193          	li	gp,6
 8003f68:	01d70463          	beq	a4,t4,8003f70 <test_7>
 8003f6c:	18c0e06f          	j	80120f8 <fail>

0000000008003f70 <test_7>:
  TEST_LD_OP( 7, lwu, 0x00000000ff00ff00, -8,  tdat4 );
 8003f70:	0000f097          	auipc	ra,0xf
 8003f74:	10c08093          	addi	ra,ra,268 # 801307c <tdat4>
 8003f78:	ff80e703          	lwu	a4,-8(ra)
 8003f7c:	00010eb7          	lui	t4,0x10
 8003f80:	f01e8e9b          	addiw	t4,t4,-255
 8003f84:	010e9e93          	slli	t4,t4,0x10
 8003f88:	f00e8e93          	addi	t4,t4,-256 # ff00 <u_mode_trap_table-0x7ff0104>
 8003f8c:	00700193          	li	gp,7
 8003f90:	01d70463          	beq	a4,t4,8003f98 <test_8>
 8003f94:	1640e06f          	j	80120f8 <fail>

0000000008003f98 <test_8>:
  TEST_LD_OP( 8, lwu, 0x000000000ff00ff0, -4,  tdat4 );
 8003f98:	0000f097          	auipc	ra,0xf
 8003f9c:	0e408093          	addi	ra,ra,228 # 801307c <tdat4>
 8003fa0:	ffc0e703          	lwu	a4,-4(ra)
 8003fa4:	0ff01eb7          	lui	t4,0xff01
 8003fa8:	ff0e8e9b          	addiw	t4,t4,-16
 8003fac:	00800193          	li	gp,8
 8003fb0:	01d70463          	beq	a4,t4,8003fb8 <test_9>
 8003fb4:	1440e06f          	j	80120f8 <fail>

0000000008003fb8 <test_9>:
  TEST_LD_OP( 9, lwu, 0x00000000f00ff00f, 0,   tdat4 );
 8003fb8:	0000f097          	auipc	ra,0xf
 8003fbc:	0c408093          	addi	ra,ra,196 # 801307c <tdat4>
 8003fc0:	0000e703          	lwu	a4,0(ra)
 8003fc4:	000f0eb7          	lui	t4,0xf0
 8003fc8:	0ffe8e9b          	addiw	t4,t4,255
 8003fcc:	00ce9e93          	slli	t4,t4,0xc
 8003fd0:	00fe8e93          	addi	t4,t4,15 # f000f <u_mode_trap_table-0x7f0fff5>
 8003fd4:	00900193          	li	gp,9
 8003fd8:	01d70463          	beq	a4,t4,8003fe0 <test_10>
 8003fdc:	11c0e06f          	j	80120f8 <fail>

0000000008003fe0 <test_10>:

  # Test with a negative base

  TEST_CASE( 10, x5, 0x0000000000ff00ff, \
 8003fe0:	0000f097          	auipc	ra,0xf
 8003fe4:	09008093          	addi	ra,ra,144 # 8013070 <tdat>
 8003fe8:	fe008093          	addi	ra,ra,-32
 8003fec:	0200e283          	lwu	t0,32(ra)
 8003ff0:	00ff0eb7          	lui	t4,0xff0
 8003ff4:	0ffe8e9b          	addiw	t4,t4,255
 8003ff8:	00a00193          	li	gp,10
 8003ffc:	01d28463          	beq	t0,t4,8004004 <test_11>
 8004000:	0f80e06f          	j	80120f8 <fail>

0000000008004004 <test_11>:
    lwu x5, 32(x1); \
  )

  # Test with unaligned base

  TEST_CASE( 11, x5, 0x00000000ff00ff00, \
 8004004:	0000f097          	auipc	ra,0xf
 8004008:	06c08093          	addi	ra,ra,108 # 8013070 <tdat>
 800400c:	ffd08093          	addi	ra,ra,-3
 8004010:	0070e283          	lwu	t0,7(ra)
 8004014:	00010eb7          	lui	t4,0x10
 8004018:	f01e8e9b          	addiw	t4,t4,-255
 800401c:	010e9e93          	slli	t4,t4,0x10
 8004020:	f00e8e93          	addi	t4,t4,-256 # ff00 <u_mode_trap_table-0x7ff0104>
 8004024:	00b00193          	li	gp,11
 8004028:	01d28463          	beq	t0,t4,8004030 <test_12>
 800402c:	0cc0e06f          	j	80120f8 <fail>

0000000008004030 <test_12>:

  #-------------------------------------------------------------
  # Bypassing tests
  #-------------------------------------------------------------

  TEST_LD_DEST_BYPASS( 12, 0, lwu, 0x000000000ff00ff0, 4, tdat2 );
 8004030:	00c00193          	li	gp,12
 8004034:	00000213          	li	tp,0
 8004038:	0000f097          	auipc	ra,0xf
 800403c:	03c08093          	addi	ra,ra,60 # 8013074 <tdat2>
 8004040:	0040e703          	lwu	a4,4(ra)
 8004044:	00070313          	mv	t1,a4
 8004048:	0ff01eb7          	lui	t4,0xff01
 800404c:	ff0e8e9b          	addiw	t4,t4,-16
 8004050:	01d30463          	beq	t1,t4,8004058 <test_12+0x28>
 8004054:	0a40e06f          	j	80120f8 <fail>
 8004058:	00120213          	addi	tp,tp,1 # 1 <u_mode_trap_table-0x8000003>
 800405c:	00200293          	li	t0,2
 8004060:	fc521ce3          	bne	tp,t0,8004038 <test_12+0x8>

0000000008004064 <test_13>:
  TEST_LD_DEST_BYPASS( 13, 1, lwu, 0x00000000f00ff00f, 4, tdat3 );
 8004064:	00d00193          	li	gp,13
 8004068:	00000213          	li	tp,0
 800406c:	0000f097          	auipc	ra,0xf
 8004070:	00c08093          	addi	ra,ra,12 # 8013078 <tdat3>
 8004074:	0040e703          	lwu	a4,4(ra)
 8004078:	00000013          	nop
 800407c:	00070313          	mv	t1,a4
 8004080:	000f0eb7          	lui	t4,0xf0
 8004084:	0ffe8e9b          	addiw	t4,t4,255
 8004088:	00ce9e93          	slli	t4,t4,0xc
 800408c:	00fe8e93          	addi	t4,t4,15 # f000f <u_mode_trap_table-0x7f0fff5>
 8004090:	01d30463          	beq	t1,t4,8004098 <test_13+0x34>
 8004094:	0640e06f          	j	80120f8 <fail>
 8004098:	00120213          	addi	tp,tp,1 # 1 <u_mode_trap_table-0x8000003>
 800409c:	00200293          	li	t0,2
 80040a0:	fc5216e3          	bne	tp,t0,800406c <test_13+0x8>

00000000080040a4 <test_14>:
  TEST_LD_DEST_BYPASS( 14, 2, lwu, 0x00000000ff00ff00, 4, tdat1 );
 80040a4:	00e00193          	li	gp,14
 80040a8:	00000213          	li	tp,0
 80040ac:	0000f097          	auipc	ra,0xf
 80040b0:	fc408093          	addi	ra,ra,-60 # 8013070 <tdat>
 80040b4:	0040e703          	lwu	a4,4(ra)
 80040b8:	00000013          	nop
 80040bc:	00000013          	nop
 80040c0:	00070313          	mv	t1,a4
 80040c4:	00010eb7          	lui	t4,0x10
 80040c8:	f01e8e9b          	addiw	t4,t4,-255
 80040cc:	010e9e93          	slli	t4,t4,0x10
 80040d0:	f00e8e93          	addi	t4,t4,-256 # ff00 <u_mode_trap_table-0x7ff0104>
 80040d4:	01d30463          	beq	t1,t4,80040dc <test_14+0x38>
 80040d8:	0200e06f          	j	80120f8 <fail>
 80040dc:	00120213          	addi	tp,tp,1 # 1 <u_mode_trap_table-0x8000003>
 80040e0:	00200293          	li	t0,2
 80040e4:	fc5214e3          	bne	tp,t0,80040ac <test_14+0x8>

00000000080040e8 <test_15>:

  TEST_LD_SRC1_BYPASS( 15, 0, lwu, 0x000000000ff00ff0, 4, tdat2 );
 80040e8:	00f00193          	li	gp,15
 80040ec:	00000213          	li	tp,0
 80040f0:	0000f097          	auipc	ra,0xf
 80040f4:	f8408093          	addi	ra,ra,-124 # 8013074 <tdat2>
 80040f8:	0040e703          	lwu	a4,4(ra)
 80040fc:	0ff01eb7          	lui	t4,0xff01
 8004100:	ff0e8e9b          	addiw	t4,t4,-16
 8004104:	01d70463          	beq	a4,t4,800410c <test_15+0x24>
 8004108:	7f10d06f          	j	80120f8 <fail>
 800410c:	00120213          	addi	tp,tp,1 # 1 <u_mode_trap_table-0x8000003>
 8004110:	00200293          	li	t0,2
 8004114:	fc521ee3          	bne	tp,t0,80040f0 <test_15+0x8>

0000000008004118 <test_16>:
  TEST_LD_SRC1_BYPASS( 16, 1, lwu, 0x00000000f00ff00f, 4, tdat3 );
 8004118:	01000193          	li	gp,16
 800411c:	00000213          	li	tp,0
 8004120:	0000f097          	auipc	ra,0xf
 8004124:	f5808093          	addi	ra,ra,-168 # 8013078 <tdat3>
 8004128:	00000013          	nop
 800412c:	0040e703          	lwu	a4,4(ra)
 8004130:	000f0eb7          	lui	t4,0xf0
 8004134:	0ffe8e9b          	addiw	t4,t4,255
 8004138:	00ce9e93          	slli	t4,t4,0xc
 800413c:	00fe8e93          	addi	t4,t4,15 # f000f <u_mode_trap_table-0x7f0fff5>
 8004140:	01d70463          	beq	a4,t4,8004148 <test_16+0x30>
 8004144:	7b50d06f          	j	80120f8 <fail>
 8004148:	00120213          	addi	tp,tp,1 # 1 <u_mode_trap_table-0x8000003>
 800414c:	00200293          	li	t0,2
 8004150:	fc5218e3          	bne	tp,t0,8004120 <test_16+0x8>

0000000008004154 <test_17>:
  TEST_LD_SRC1_BYPASS( 17, 2, lwu, 0x00000000ff00ff00, 4, tdat1 );
 8004154:	01100193          	li	gp,17
 8004158:	00000213          	li	tp,0
 800415c:	0000f097          	auipc	ra,0xf
 8004160:	f1408093          	addi	ra,ra,-236 # 8013070 <tdat>
 8004164:	00000013          	nop
 8004168:	00000013          	nop
 800416c:	0040e703          	lwu	a4,4(ra)
 8004170:	00010eb7          	lui	t4,0x10
 8004174:	f01e8e9b          	addiw	t4,t4,-255
 8004178:	010e9e93          	slli	t4,t4,0x10
 800417c:	f00e8e93          	addi	t4,t4,-256 # ff00 <u_mode_trap_table-0x7ff0104>
 8004180:	01d70463          	beq	a4,t4,8004188 <test_17+0x34>
 8004184:	7750d06f          	j	80120f8 <fail>
 8004188:	00120213          	addi	tp,tp,1 # 1 <u_mode_trap_table-0x8000003>
 800418c:	00200293          	li	t0,2
 8004190:	fc5216e3          	bne	tp,t0,800415c <test_17+0x8>

0000000008004194 <test_18>:

  #-------------------------------------------------------------
  # Test write-after-write hazard
  #-------------------------------------------------------------

  TEST_CASE( 18, x2, 2, \
 8004194:	0000f297          	auipc	t0,0xf
 8004198:	edc28293          	addi	t0,t0,-292 # 8013070 <tdat>
 800419c:	0002e103          	lwu	sp,0(t0)
 80041a0:	00200113          	li	sp,2
 80041a4:	00200e93          	li	t4,2
 80041a8:	01200193          	li	gp,18
 80041ac:	01d10463          	beq	sp,t4,80041b4 <test_19>
 80041b0:	7490d06f          	j	80120f8 <fail>

00000000080041b4 <test_19>:
    la  x5, tdat; \
    lwu x2, 0(x5); \
    li  x2, 2; \
  )

  TEST_CASE( 19, x2, 2, \
 80041b4:	0000f297          	auipc	t0,0xf
 80041b8:	ebc28293          	addi	t0,t0,-324 # 8013070 <tdat>
 80041bc:	0002e103          	lwu	sp,0(t0)
 80041c0:	00000013          	nop
 80041c4:	00200113          	li	sp,2
 80041c8:	00200e93          	li	t4,2
 80041cc:	01300193          	li	gp,19
 80041d0:	01d10463          	beq	sp,t4,80041d8 <test_19+0x24>
 80041d4:	7250d06f          	j	80120f8 <fail>
    li  x2, 2; \
  )

  TEST_PASSFAIL

RVTEST_CODE_END
 80041d8:	c0001073          	unimp

00000000080041dc <test_2>:

  #-------------------------------------------------------------
  # Basic tests
  #-------------------------------------------------------------

  TEST_LD_OP( 2, ld, 0x00ff00ff00ff00ff, 0,  tdat );
 80041dc:	0000f097          	auipc	ra,0xf
 80041e0:	ea408093          	addi	ra,ra,-348 # 8013080 <tdat>
 80041e4:	0000b703          	ld	a4,0(ra)
 80041e8:	00ff0eb7          	lui	t4,0xff0
 80041ec:	0ffe8e9b          	addiw	t4,t4,255
 80041f0:	010e9e93          	slli	t4,t4,0x10
 80041f4:	0ffe8e93          	addi	t4,t4,255 # ff00ff <u_mode_trap_table-0x700ff05>
 80041f8:	010e9e93          	slli	t4,t4,0x10
 80041fc:	0ffe8e93          	addi	t4,t4,255
 8004200:	00200193          	li	gp,2
 8004204:	01d70463          	beq	a4,t4,800420c <test_3>
 8004208:	6f10d06f          	j	80120f8 <fail>

000000000800420c <test_3>:
  TEST_LD_OP( 3, ld, 0xff00ff00ff00ff00, 8,  tdat );
 800420c:	0000f097          	auipc	ra,0xf
 8004210:	e7408093          	addi	ra,ra,-396 # 8013080 <tdat>
 8004214:	0080b703          	ld	a4,8(ra)
 8004218:	ff010eb7          	lui	t4,0xff010
 800421c:	f01e8e9b          	addiw	t4,t4,-255
 8004220:	010e9e93          	slli	t4,t4,0x10
 8004224:	f01e8e93          	addi	t4,t4,-255 # ffffffffff00ff01 <_end+0xfffffffff6ffc8a1>
 8004228:	010e9e93          	slli	t4,t4,0x10
 800422c:	f00e8e93          	addi	t4,t4,-256
 8004230:	00300193          	li	gp,3
 8004234:	01d70463          	beq	a4,t4,800423c <test_4>
 8004238:	6c10d06f          	j	80120f8 <fail>

000000000800423c <test_4>:
  TEST_LD_OP( 4, ld, 0x0ff00ff00ff00ff0, 16, tdat );
 800423c:	0000f097          	auipc	ra,0xf
 8004240:	e4408093          	addi	ra,ra,-444 # 8013080 <tdat>
 8004244:	0100b703          	ld	a4,16(ra)
 8004248:	00010eb7          	lui	t4,0x10
 800424c:	f01e8e9b          	addiw	t4,t4,-255
 8004250:	010e9e93          	slli	t4,t4,0x10
 8004254:	f01e8e93          	addi	t4,t4,-255 # ff01 <u_mode_trap_table-0x7ff0103>
 8004258:	010e9e93          	slli	t4,t4,0x10
 800425c:	f01e8e93          	addi	t4,t4,-255
 8004260:	00ce9e93          	slli	t4,t4,0xc
 8004264:	ff0e8e93          	addi	t4,t4,-16
 8004268:	00400193          	li	gp,4
 800426c:	01d70463          	beq	a4,t4,8004274 <test_5>
 8004270:	6890d06f          	j	80120f8 <fail>

0000000008004274 <test_5>:
  TEST_LD_OP( 5, ld, 0xf00ff00ff00ff00f, 24, tdat );
 8004274:	0000f097          	auipc	ra,0xf
 8004278:	e0c08093          	addi	ra,ra,-500 # 8013080 <tdat>
 800427c:	0180b703          	ld	a4,24(ra)
 8004280:	ffff0eb7          	lui	t4,0xffff0
 8004284:	0ffe8e9b          	addiw	t4,t4,255
 8004288:	010e9e93          	slli	t4,t4,0x10
 800428c:	0ffe8e93          	addi	t4,t4,255 # ffffffffffff00ff <_end+0xfffffffff7fdca9f>
 8004290:	010e9e93          	slli	t4,t4,0x10
 8004294:	0ffe8e93          	addi	t4,t4,255
 8004298:	00ce9e93          	slli	t4,t4,0xc
 800429c:	00fe8e93          	addi	t4,t4,15
 80042a0:	00500193          	li	gp,5
 80042a4:	01d70463          	beq	a4,t4,80042ac <test_6>
 80042a8:	6510d06f          	j	80120f8 <fail>

00000000080042ac <test_6>:

  # Test with negative offset

  TEST_LD_OP( 6, ld, 0x00ff00ff00ff00ff, -24, tdat4 );
 80042ac:	0000f097          	auipc	ra,0xf
 80042b0:	dec08093          	addi	ra,ra,-532 # 8013098 <tdat4>
 80042b4:	fe80b703          	ld	a4,-24(ra)
 80042b8:	00ff0eb7          	lui	t4,0xff0
 80042bc:	0ffe8e9b          	addiw	t4,t4,255
 80042c0:	010e9e93          	slli	t4,t4,0x10
 80042c4:	0ffe8e93          	addi	t4,t4,255 # ff00ff <u_mode_trap_table-0x700ff05>
 80042c8:	010e9e93          	slli	t4,t4,0x10
 80042cc:	0ffe8e93          	addi	t4,t4,255
 80042d0:	00600193          	li	gp,6
 80042d4:	01d70463          	beq	a4,t4,80042dc <test_7>
 80042d8:	6210d06f          	j	80120f8 <fail>

00000000080042dc <test_7>:
  TEST_LD_OP( 7, ld, 0xff00ff00ff00ff00, -16, tdat4 );
 80042dc:	0000f097          	auipc	ra,0xf
 80042e0:	dbc08093          	addi	ra,ra,-580 # 8013098 <tdat4>
 80042e4:	ff00b703          	ld	a4,-16(ra)
 80042e8:	ff010eb7          	lui	t4,0xff010
 80042ec:	f01e8e9b          	addiw	t4,t4,-255
 80042f0:	010e9e93          	slli	t4,t4,0x10
 80042f4:	f01e8e93          	addi	t4,t4,-255 # ffffffffff00ff01 <_end+0xfffffffff6ffc8a1>
 80042f8:	010e9e93          	slli	t4,t4,0x10
 80042fc:	f00e8e93          	addi	t4,t4,-256
 8004300:	00700193          	li	gp,7
 8004304:	01d70463          	beq	a4,t4,800430c <test_8>
 8004308:	5f10d06f          	j	80120f8 <fail>

000000000800430c <test_8>:
  TEST_LD_OP( 8, ld, 0x0ff00ff00ff00ff0, -8,  tdat4 );
 800430c:	0000f097          	auipc	ra,0xf
 8004310:	d8c08093          	addi	ra,ra,-628 # 8013098 <tdat4>
 8004314:	ff80b703          	ld	a4,-8(ra)
 8004318:	00010eb7          	lui	t4,0x10
 800431c:	f01e8e9b          	addiw	t4,t4,-255
 8004320:	010e9e93          	slli	t4,t4,0x10
 8004324:	f01e8e93          	addi	t4,t4,-255 # ff01 <u_mode_trap_table-0x7ff0103>
 8004328:	010e9e93          	slli	t4,t4,0x10
 800432c:	f01e8e93          	addi	t4,t4,-255
 8004330:	00ce9e93          	slli	t4,t4,0xc
 8004334:	ff0e8e93          	addi	t4,t4,-16
 8004338:	00800193          	li	gp,8
 800433c:	01d70463          	beq	a4,t4,8004344 <test_9>
 8004340:	5b90d06f          	j	80120f8 <fail>

0000000008004344 <test_9>:
  TEST_LD_OP( 9, ld, 0xf00ff00ff00ff00f, 0,   tdat4 );
 8004344:	0000f097          	auipc	ra,0xf
 8004348:	d5408093          	addi	ra,ra,-684 # 8013098 <tdat4>
 800434c:	0000b703          	ld	a4,0(ra)
 8004350:	ffff0eb7          	lui	t4,0xffff0
 8004354:	0ffe8e9b          	addiw	t4,t4,255
 8004358:	010e9e93          	slli	t4,t4,0x10
 800435c:	0ffe8e93          	addi	t4,t4,255 # ffffffffffff00ff <_end+0xfffffffff7fdca9f>
 8004360:	010e9e93          	slli	t4,t4,0x10
 8004364:	0ffe8e93          	addi	t4,t4,255
 8004368:	00ce9e93          	slli	t4,t4,0xc
 800436c:	00fe8e93          	addi	t4,t4,15
 8004370:	00900193          	li	gp,9
 8004374:	01d70463          	beq	a4,t4,800437c <test_10>
 8004378:	5810d06f          	j	80120f8 <fail>

000000000800437c <test_10>:

  # Test with a negative base

  TEST_CASE( 10, x5, 0x00ff00ff00ff00ff, \
 800437c:	0000f097          	auipc	ra,0xf
 8004380:	d0408093          	addi	ra,ra,-764 # 8013080 <tdat>
 8004384:	fe008093          	addi	ra,ra,-32
 8004388:	0200b283          	ld	t0,32(ra)
 800438c:	00ff0eb7          	lui	t4,0xff0
 8004390:	0ffe8e9b          	addiw	t4,t4,255
 8004394:	010e9e93          	slli	t4,t4,0x10
 8004398:	0ffe8e93          	addi	t4,t4,255 # ff00ff <u_mode_trap_table-0x700ff05>
 800439c:	010e9e93          	slli	t4,t4,0x10
 80043a0:	0ffe8e93          	addi	t4,t4,255
 80043a4:	00a00193          	li	gp,10
 80043a8:	01d28463          	beq	t0,t4,80043b0 <test_11>
 80043ac:	54d0d06f          	j	80120f8 <fail>

00000000080043b0 <test_11>:
    ld x5, 32(x1); \
  )

  # Test with unaligned base

  TEST_CASE( 11, x5, 0xff00ff00ff00ff00, \
 80043b0:	0000f097          	auipc	ra,0xf
 80043b4:	cd008093          	addi	ra,ra,-816 # 8013080 <tdat>
 80043b8:	ffd08093          	addi	ra,ra,-3
 80043bc:	00b0b283          	ld	t0,11(ra)
 80043c0:	ff010eb7          	lui	t4,0xff010
 80043c4:	f01e8e9b          	addiw	t4,t4,-255
 80043c8:	010e9e93          	slli	t4,t4,0x10
 80043cc:	f01e8e93          	addi	t4,t4,-255 # ffffffffff00ff01 <_end+0xfffffffff6ffc8a1>
 80043d0:	010e9e93          	slli	t4,t4,0x10
 80043d4:	f00e8e93          	addi	t4,t4,-256
 80043d8:	00b00193          	li	gp,11
 80043dc:	01d28463          	beq	t0,t4,80043e4 <test_12>
 80043e0:	5190d06f          	j	80120f8 <fail>

00000000080043e4 <test_12>:

  #-------------------------------------------------------------
  # Bypassing tests
  #-------------------------------------------------------------

  TEST_LD_DEST_BYPASS( 12, 0, ld, 0x0ff00ff00ff00ff0, 8, tdat2 );
 80043e4:	00c00193          	li	gp,12
 80043e8:	00000213          	li	tp,0
 80043ec:	0000f097          	auipc	ra,0xf
 80043f0:	c9c08093          	addi	ra,ra,-868 # 8013088 <tdat2>
 80043f4:	0080b703          	ld	a4,8(ra)
 80043f8:	00070313          	mv	t1,a4
 80043fc:	00010eb7          	lui	t4,0x10
 8004400:	f01e8e9b          	addiw	t4,t4,-255
 8004404:	010e9e93          	slli	t4,t4,0x10
 8004408:	f01e8e93          	addi	t4,t4,-255 # ff01 <u_mode_trap_table-0x7ff0103>
 800440c:	010e9e93          	slli	t4,t4,0x10
 8004410:	f01e8e93          	addi	t4,t4,-255
 8004414:	00ce9e93          	slli	t4,t4,0xc
 8004418:	ff0e8e93          	addi	t4,t4,-16
 800441c:	01d30463          	beq	t1,t4,8004424 <test_12+0x40>
 8004420:	4d90d06f          	j	80120f8 <fail>
 8004424:	00120213          	addi	tp,tp,1 # 1 <u_mode_trap_table-0x8000003>
 8004428:	00200293          	li	t0,2
 800442c:	fc5210e3          	bne	tp,t0,80043ec <test_12+0x8>

0000000008004430 <test_13>:
  TEST_LD_DEST_BYPASS( 13, 1, ld, 0xf00ff00ff00ff00f, 8, tdat3 );
 8004430:	00d00193          	li	gp,13
 8004434:	00000213          	li	tp,0
 8004438:	0000f097          	auipc	ra,0xf
 800443c:	c5808093          	addi	ra,ra,-936 # 8013090 <tdat3>
 8004440:	0080b703          	ld	a4,8(ra)
 8004444:	00000013          	nop
 8004448:	00070313          	mv	t1,a4
 800444c:	ffff0eb7          	lui	t4,0xffff0
 8004450:	0ffe8e9b          	addiw	t4,t4,255
 8004454:	010e9e93          	slli	t4,t4,0x10
 8004458:	0ffe8e93          	addi	t4,t4,255 # ffffffffffff00ff <_end+0xfffffffff7fdca9f>
 800445c:	010e9e93          	slli	t4,t4,0x10
 8004460:	0ffe8e93          	addi	t4,t4,255
 8004464:	00ce9e93          	slli	t4,t4,0xc
 8004468:	00fe8e93          	addi	t4,t4,15
 800446c:	01d30463          	beq	t1,t4,8004474 <test_13+0x44>
 8004470:	4890d06f          	j	80120f8 <fail>
 8004474:	00120213          	addi	tp,tp,1 # 1 <u_mode_trap_table-0x8000003>
 8004478:	00200293          	li	t0,2
 800447c:	fa521ee3          	bne	tp,t0,8004438 <test_13+0x8>

0000000008004480 <test_14>:
  TEST_LD_DEST_BYPASS( 14, 2, ld, 0xff00ff00ff00ff00, 8, tdat1 );
 8004480:	00e00193          	li	gp,14
 8004484:	00000213          	li	tp,0
 8004488:	0000f097          	auipc	ra,0xf
 800448c:	bf808093          	addi	ra,ra,-1032 # 8013080 <tdat>
 8004490:	0080b703          	ld	a4,8(ra)
 8004494:	00000013          	nop
 8004498:	00000013          	nop
 800449c:	00070313          	mv	t1,a4
 80044a0:	ff010eb7          	lui	t4,0xff010
 80044a4:	f01e8e9b          	addiw	t4,t4,-255
 80044a8:	010e9e93          	slli	t4,t4,0x10
 80044ac:	f01e8e93          	addi	t4,t4,-255 # ffffffffff00ff01 <_end+0xfffffffff6ffc8a1>
 80044b0:	010e9e93          	slli	t4,t4,0x10
 80044b4:	f00e8e93          	addi	t4,t4,-256
 80044b8:	01d30463          	beq	t1,t4,80044c0 <test_14+0x40>
 80044bc:	43d0d06f          	j	80120f8 <fail>
 80044c0:	00120213          	addi	tp,tp,1 # 1 <u_mode_trap_table-0x8000003>
 80044c4:	00200293          	li	t0,2
 80044c8:	fc5210e3          	bne	tp,t0,8004488 <test_14+0x8>

00000000080044cc <test_15>:

  TEST_LD_SRC1_BYPASS( 15, 0, ld, 0x0ff00ff00ff00ff0, 8, tdat2 );
 80044cc:	00f00193          	li	gp,15
 80044d0:	00000213          	li	tp,0
 80044d4:	0000f097          	auipc	ra,0xf
 80044d8:	bb408093          	addi	ra,ra,-1100 # 8013088 <tdat2>
 80044dc:	0080b703          	ld	a4,8(ra)
 80044e0:	00010eb7          	lui	t4,0x10
 80044e4:	f01e8e9b          	addiw	t4,t4,-255
 80044e8:	010e9e93          	slli	t4,t4,0x10
 80044ec:	f01e8e93          	addi	t4,t4,-255 # ff01 <u_mode_trap_table-0x7ff0103>
 80044f0:	010e9e93          	slli	t4,t4,0x10
 80044f4:	f01e8e93          	addi	t4,t4,-255
 80044f8:	00ce9e93          	slli	t4,t4,0xc
 80044fc:	ff0e8e93          	addi	t4,t4,-16
 8004500:	01d70463          	beq	a4,t4,8004508 <test_15+0x3c>
 8004504:	3f50d06f          	j	80120f8 <fail>
 8004508:	00120213          	addi	tp,tp,1 # 1 <u_mode_trap_table-0x8000003>
 800450c:	00200293          	li	t0,2
 8004510:	fc5212e3          	bne	tp,t0,80044d4 <test_15+0x8>

0000000008004514 <test_16>:
  TEST_LD_SRC1_BYPASS( 16, 1, ld, 0xf00ff00ff00ff00f, 8, tdat3 );
 8004514:	01000193          	li	gp,16
 8004518:	00000213          	li	tp,0
 800451c:	0000f097          	auipc	ra,0xf
 8004520:	b7408093          	addi	ra,ra,-1164 # 8013090 <tdat3>
 8004524:	00000013          	nop
 8004528:	0080b703          	ld	a4,8(ra)
 800452c:	ffff0eb7          	lui	t4,0xffff0
 8004530:	0ffe8e9b          	addiw	t4,t4,255
 8004534:	010e9e93          	slli	t4,t4,0x10
 8004538:	0ffe8e93          	addi	t4,t4,255 # ffffffffffff00ff <_end+0xfffffffff7fdca9f>
 800453c:	010e9e93          	slli	t4,t4,0x10
 8004540:	0ffe8e93          	addi	t4,t4,255
 8004544:	00ce9e93          	slli	t4,t4,0xc
 8004548:	00fe8e93          	addi	t4,t4,15
 800454c:	01d70463          	beq	a4,t4,8004554 <test_16+0x40>
 8004550:	3a90d06f          	j	80120f8 <fail>
 8004554:	00120213          	addi	tp,tp,1 # 1 <u_mode_trap_table-0x8000003>
 8004558:	00200293          	li	t0,2
 800455c:	fc5210e3          	bne	tp,t0,800451c <test_16+0x8>

0000000008004560 <test_17>:
  TEST_LD_SRC1_BYPASS( 17, 2, ld, 0xff00ff00ff00ff00, 8, tdat1 );
 8004560:	01100193          	li	gp,17
 8004564:	00000213          	li	tp,0
 8004568:	0000f097          	auipc	ra,0xf
 800456c:	b1808093          	addi	ra,ra,-1256 # 8013080 <tdat>
 8004570:	00000013          	nop
 8004574:	00000013          	nop
 8004578:	0080b703          	ld	a4,8(ra)
 800457c:	ff010eb7          	lui	t4,0xff010
 8004580:	f01e8e9b          	addiw	t4,t4,-255
 8004584:	010e9e93          	slli	t4,t4,0x10
 8004588:	f01e8e93          	addi	t4,t4,-255 # ffffffffff00ff01 <_end+0xfffffffff6ffc8a1>
 800458c:	010e9e93          	slli	t4,t4,0x10
 8004590:	f00e8e93          	addi	t4,t4,-256
 8004594:	01d70463          	beq	a4,t4,800459c <test_17+0x3c>
 8004598:	3610d06f          	j	80120f8 <fail>
 800459c:	00120213          	addi	tp,tp,1 # 1 <u_mode_trap_table-0x8000003>
 80045a0:	00200293          	li	t0,2
 80045a4:	fc5212e3          	bne	tp,t0,8004568 <test_17+0x8>

00000000080045a8 <test_18>:

  #-------------------------------------------------------------
  # Test write-after-write hazard
  #-------------------------------------------------------------

  TEST_CASE( 18, x2, 2, \
 80045a8:	0000f297          	auipc	t0,0xf
 80045ac:	ad828293          	addi	t0,t0,-1320 # 8013080 <tdat>
 80045b0:	0002b103          	ld	sp,0(t0)
 80045b4:	00200113          	li	sp,2
 80045b8:	00200e93          	li	t4,2
 80045bc:	01200193          	li	gp,18
 80045c0:	01d10463          	beq	sp,t4,80045c8 <test_19>
 80045c4:	3350d06f          	j	80120f8 <fail>

00000000080045c8 <test_19>:
    la  x5, tdat; \
    ld  x2, 0(x5); \
    li  x2, 2; \
  )

  TEST_CASE( 19, x2, 2, \
 80045c8:	0000f297          	auipc	t0,0xf
 80045cc:	ab828293          	addi	t0,t0,-1352 # 8013080 <tdat>
 80045d0:	0002b103          	ld	sp,0(t0)
 80045d4:	00000013          	nop
 80045d8:	00200113          	li	sp,2
 80045dc:	00200e93          	li	t4,2
 80045e0:	01300193          	li	gp,19
 80045e4:	01d10463          	beq	sp,t4,80045ec <test_19+0x24>
 80045e8:	3110d06f          	j	80120f8 <fail>
    li  x2, 2; \
  )

  TEST_PASSFAIL

RVTEST_CODE_END
 80045ec:	c0001073          	unimp

00000000080045f0 <test_2>:

  #-------------------------------------------------------------
  # Basic tests
  #-------------------------------------------------------------

  TEST_CASE( 2, x1, 0x0000000000000000, lui x1, 0x00000 );
 80045f0:	000000b7          	lui	ra,0x0
 80045f4:	00000e93          	li	t4,0
 80045f8:	00200193          	li	gp,2
 80045fc:	01d08463          	beq	ra,t4,8004604 <test_3>
 8004600:	2f90d06f          	j	80120f8 <fail>

0000000008004604 <test_3>:
  TEST_CASE( 3, x1, 0xfffffffffffff800, lui x1, 0xfffff;sra x1,x1,1);
 8004604:	fffff0b7          	lui	ra,0xfffff
 8004608:	4010d093          	srai	ra,ra,0x1
 800460c:	80000e93          	li	t4,-2048
 8004610:	00300193          	li	gp,3
 8004614:	01d08463          	beq	ra,t4,800461c <test_4>
 8004618:	2e10d06f          	j	80120f8 <fail>

000000000800461c <test_4>:
  TEST_CASE( 4, x1, 0x00000000000007ff, lui x1, 0x7ffff;sra x1,x1,20);
 800461c:	7ffff0b7          	lui	ra,0x7ffff
 8004620:	4140d093          	srai	ra,ra,0x14
 8004624:	7ff00e93          	li	t4,2047
 8004628:	00400193          	li	gp,4
 800462c:	01d08463          	beq	ra,t4,8004634 <test_5>
 8004630:	2c90d06f          	j	80120f8 <fail>

0000000008004634 <test_5>:
  TEST_CASE( 5, x1, 0xfffffffffffff800, lui x1, 0x80000;sra x1,x1,20);
 8004634:	800000b7          	lui	ra,0x80000
 8004638:	4140d093          	srai	ra,ra,0x14
 800463c:	80000e93          	li	t4,-2048
 8004640:	00500193          	li	gp,5
 8004644:	01d08463          	beq	ra,t4,800464c <test_6>
 8004648:	2b10d06f          	j	80120f8 <fail>

000000000800464c <test_6>:

  TEST_CASE( 6, x0, 0, lui x0, 0x80000 );
 800464c:	80000037          	lui	zero,0x80000
 8004650:	00000e93          	li	t4,0
 8004654:	00600193          	li	gp,6
 8004658:	01d00463          	beq	zero,t4,8004660 <test_6+0x14>
 800465c:	29d0d06f          	j	80120f8 <fail>

  TEST_PASSFAIL

RVTEST_CODE_END
 8004660:	c0001073          	unimp

0000000008004664 <test_2>:

  #-------------------------------------------------------------
  # Logical tests
  #-------------------------------------------------------------

  TEST_RR_OP( 2, or, 0xff0fff0f, 0xff00ff00, 0x0f0f0f0f );
 8004664:	000100b7          	lui	ra,0x10
 8004668:	f010809b          	addiw	ra,ra,-255
 800466c:	01009093          	slli	ra,ra,0x10
 8004670:	f0008093          	addi	ra,ra,-256 # ff00 <u_mode_trap_table-0x7ff0104>
 8004674:	0f0f1137          	lui	sp,0xf0f1
 8004678:	f0f1011b          	addiw	sp,sp,-241
 800467c:	0020e733          	or	a4,ra,sp
 8004680:	00001eb7          	lui	t4,0x1
 8004684:	ff1e8e9b          	addiw	t4,t4,-15
 8004688:	014e9e93          	slli	t4,t4,0x14
 800468c:	f0fe8e93          	addi	t4,t4,-241 # f0f <u_mode_trap_table-0x7fff0f5>
 8004690:	00200193          	li	gp,2
 8004694:	01d70463          	beq	a4,t4,800469c <test_3>
 8004698:	2610d06f          	j	80120f8 <fail>

000000000800469c <test_3>:
  TEST_RR_OP( 3, or, 0xfff0fff0, 0x0ff00ff0, 0xf0f0f0f0 );
 800469c:	0ff010b7          	lui	ra,0xff01
 80046a0:	ff00809b          	addiw	ra,ra,-16
 80046a4:	000f1137          	lui	sp,0xf1
 80046a8:	f0f1011b          	addiw	sp,sp,-241
 80046ac:	00c11113          	slli	sp,sp,0xc
 80046b0:	0f010113          	addi	sp,sp,240 # f10f0 <u_mode_trap_table-0x7f0ef14>
 80046b4:	0020e733          	or	a4,ra,sp
 80046b8:	00010eb7          	lui	t4,0x10
 80046bc:	ff1e8e9b          	addiw	t4,t4,-15
 80046c0:	010e9e93          	slli	t4,t4,0x10
 80046c4:	ff0e8e93          	addi	t4,t4,-16 # fff0 <u_mode_trap_table-0x7ff0014>
 80046c8:	00300193          	li	gp,3
 80046cc:	01d70463          	beq	a4,t4,80046d4 <test_4>
 80046d0:	2290d06f          	j	80120f8 <fail>

00000000080046d4 <test_4>:
  TEST_RR_OP( 4, or, 0x0fff0fff, 0x00ff00ff, 0x0f0f0f0f );
 80046d4:	00ff00b7          	lui	ra,0xff0
 80046d8:	0ff0809b          	addiw	ra,ra,255
 80046dc:	0f0f1137          	lui	sp,0xf0f1
 80046e0:	f0f1011b          	addiw	sp,sp,-241
 80046e4:	0020e733          	or	a4,ra,sp
 80046e8:	0fff1eb7          	lui	t4,0xfff1
 80046ec:	fffe8e9b          	addiw	t4,t4,-1
 80046f0:	00400193          	li	gp,4
 80046f4:	01d70463          	beq	a4,t4,80046fc <test_5>
 80046f8:	2010d06f          	j	80120f8 <fail>

00000000080046fc <test_5>:
  TEST_RR_OP( 5, or, 0xf0fff0ff, 0xf00ff00f, 0xf0f0f0f0 );
 80046fc:	000f00b7          	lui	ra,0xf0
 8004700:	0ff0809b          	addiw	ra,ra,255
 8004704:	00c09093          	slli	ra,ra,0xc
 8004708:	00f08093          	addi	ra,ra,15 # f000f <u_mode_trap_table-0x7f0fff5>
 800470c:	000f1137          	lui	sp,0xf1
 8004710:	f0f1011b          	addiw	sp,sp,-241
 8004714:	00c11113          	slli	sp,sp,0xc
 8004718:	0f010113          	addi	sp,sp,240 # f10f0 <u_mode_trap_table-0x7f0ef14>
 800471c:	0020e733          	or	a4,ra,sp
 8004720:	000f1eb7          	lui	t4,0xf1
 8004724:	fffe8e9b          	addiw	t4,t4,-1
 8004728:	00ce9e93          	slli	t4,t4,0xc
 800472c:	0ffe8e93          	addi	t4,t4,255 # f10ff <u_mode_trap_table-0x7f0ef05>
 8004730:	00500193          	li	gp,5
 8004734:	01d70463          	beq	a4,t4,800473c <test_6>
 8004738:	1c10d06f          	j	80120f8 <fail>

000000000800473c <test_6>:

  #-------------------------------------------------------------
  # Source/Destination tests
  #-------------------------------------------------------------

  TEST_RR_SRC1_EQ_DEST( 6, or, 0xff0fff0f, 0xff00ff00, 0x0f0f0f0f );
 800473c:	000100b7          	lui	ra,0x10
 8004740:	f010809b          	addiw	ra,ra,-255
 8004744:	01009093          	slli	ra,ra,0x10
 8004748:	f0008093          	addi	ra,ra,-256 # ff00 <u_mode_trap_table-0x7ff0104>
 800474c:	0f0f1137          	lui	sp,0xf0f1
 8004750:	f0f1011b          	addiw	sp,sp,-241
 8004754:	0020e0b3          	or	ra,ra,sp
 8004758:	00001eb7          	lui	t4,0x1
 800475c:	ff1e8e9b          	addiw	t4,t4,-15
 8004760:	014e9e93          	slli	t4,t4,0x14
 8004764:	f0fe8e93          	addi	t4,t4,-241 # f0f <u_mode_trap_table-0x7fff0f5>
 8004768:	00600193          	li	gp,6
 800476c:	01d08463          	beq	ra,t4,8004774 <test_7>
 8004770:	1890d06f          	j	80120f8 <fail>

0000000008004774 <test_7>:
  TEST_RR_SRC2_EQ_DEST( 7, or, 0xff0fff0f, 0xff00ff00, 0x0f0f0f0f );
 8004774:	000100b7          	lui	ra,0x10
 8004778:	f010809b          	addiw	ra,ra,-255
 800477c:	01009093          	slli	ra,ra,0x10
 8004780:	f0008093          	addi	ra,ra,-256 # ff00 <u_mode_trap_table-0x7ff0104>
 8004784:	0f0f1137          	lui	sp,0xf0f1
 8004788:	f0f1011b          	addiw	sp,sp,-241
 800478c:	0020e133          	or	sp,ra,sp
 8004790:	00001eb7          	lui	t4,0x1
 8004794:	ff1e8e9b          	addiw	t4,t4,-15
 8004798:	014e9e93          	slli	t4,t4,0x14
 800479c:	f0fe8e93          	addi	t4,t4,-241 # f0f <u_mode_trap_table-0x7fff0f5>
 80047a0:	00700193          	li	gp,7
 80047a4:	01d10463          	beq	sp,t4,80047ac <test_8>
 80047a8:	1510d06f          	j	80120f8 <fail>

00000000080047ac <test_8>:
  TEST_RR_SRC12_EQ_DEST( 8, or, 0xff00ff00, 0xff00ff00 );
 80047ac:	000100b7          	lui	ra,0x10
 80047b0:	f010809b          	addiw	ra,ra,-255
 80047b4:	01009093          	slli	ra,ra,0x10
 80047b8:	f0008093          	addi	ra,ra,-256 # ff00 <u_mode_trap_table-0x7ff0104>
 80047bc:	0010e0b3          	or	ra,ra,ra
 80047c0:	00010eb7          	lui	t4,0x10
 80047c4:	f01e8e9b          	addiw	t4,t4,-255
 80047c8:	010e9e93          	slli	t4,t4,0x10
 80047cc:	f00e8e93          	addi	t4,t4,-256 # ff00 <u_mode_trap_table-0x7ff0104>
 80047d0:	00800193          	li	gp,8
 80047d4:	01d08463          	beq	ra,t4,80047dc <test_9>
 80047d8:	1210d06f          	j	80120f8 <fail>

00000000080047dc <test_9>:

  #-------------------------------------------------------------
  # Bypassing tests
  #-------------------------------------------------------------

  TEST_RR_DEST_BYPASS( 9,  0, or, 0xff0fff0f, 0xff00ff00, 0x0f0f0f0f );
 80047dc:	00000213          	li	tp,0
 80047e0:	000100b7          	lui	ra,0x10
 80047e4:	f010809b          	addiw	ra,ra,-255
 80047e8:	01009093          	slli	ra,ra,0x10
 80047ec:	f0008093          	addi	ra,ra,-256 # ff00 <u_mode_trap_table-0x7ff0104>
 80047f0:	0f0f1137          	lui	sp,0xf0f1
 80047f4:	f0f1011b          	addiw	sp,sp,-241
 80047f8:	0020e733          	or	a4,ra,sp
 80047fc:	00070313          	mv	t1,a4
 8004800:	00120213          	addi	tp,tp,1 # 1 <u_mode_trap_table-0x8000003>
 8004804:	00200293          	li	t0,2
 8004808:	fc521ce3          	bne	tp,t0,80047e0 <test_9+0x4>
 800480c:	00001eb7          	lui	t4,0x1
 8004810:	ff1e8e9b          	addiw	t4,t4,-15
 8004814:	014e9e93          	slli	t4,t4,0x14
 8004818:	f0fe8e93          	addi	t4,t4,-241 # f0f <u_mode_trap_table-0x7fff0f5>
 800481c:	00900193          	li	gp,9
 8004820:	01d30463          	beq	t1,t4,8004828 <test_10>
 8004824:	0d50d06f          	j	80120f8 <fail>

0000000008004828 <test_10>:
  TEST_RR_DEST_BYPASS( 10, 1, or, 0xfff0fff0, 0x0ff00ff0, 0xf0f0f0f0 );
 8004828:	00000213          	li	tp,0
 800482c:	0ff010b7          	lui	ra,0xff01
 8004830:	ff00809b          	addiw	ra,ra,-16
 8004834:	000f1137          	lui	sp,0xf1
 8004838:	f0f1011b          	addiw	sp,sp,-241
 800483c:	00c11113          	slli	sp,sp,0xc
 8004840:	0f010113          	addi	sp,sp,240 # f10f0 <u_mode_trap_table-0x7f0ef14>
 8004844:	0020e733          	or	a4,ra,sp
 8004848:	00000013          	nop
 800484c:	00070313          	mv	t1,a4
 8004850:	00120213          	addi	tp,tp,1 # 1 <u_mode_trap_table-0x8000003>
 8004854:	00200293          	li	t0,2
 8004858:	fc521ae3          	bne	tp,t0,800482c <test_10+0x4>
 800485c:	00010eb7          	lui	t4,0x10
 8004860:	ff1e8e9b          	addiw	t4,t4,-15
 8004864:	010e9e93          	slli	t4,t4,0x10
 8004868:	ff0e8e93          	addi	t4,t4,-16 # fff0 <u_mode_trap_table-0x7ff0014>
 800486c:	00a00193          	li	gp,10
 8004870:	01d30463          	beq	t1,t4,8004878 <test_11>
 8004874:	0850d06f          	j	80120f8 <fail>

0000000008004878 <test_11>:
  TEST_RR_DEST_BYPASS( 11, 2, or, 0x0fff0fff, 0x00ff00ff, 0x0f0f0f0f );
 8004878:	00000213          	li	tp,0
 800487c:	00ff00b7          	lui	ra,0xff0
 8004880:	0ff0809b          	addiw	ra,ra,255
 8004884:	0f0f1137          	lui	sp,0xf0f1
 8004888:	f0f1011b          	addiw	sp,sp,-241
 800488c:	0020e733          	or	a4,ra,sp
 8004890:	00000013          	nop
 8004894:	00000013          	nop
 8004898:	00070313          	mv	t1,a4
 800489c:	00120213          	addi	tp,tp,1 # 1 <u_mode_trap_table-0x8000003>
 80048a0:	00200293          	li	t0,2
 80048a4:	fc521ce3          	bne	tp,t0,800487c <test_11+0x4>
 80048a8:	0fff1eb7          	lui	t4,0xfff1
 80048ac:	fffe8e9b          	addiw	t4,t4,-1
 80048b0:	00b00193          	li	gp,11
 80048b4:	01d30463          	beq	t1,t4,80048bc <test_12>
 80048b8:	0410d06f          	j	80120f8 <fail>

00000000080048bc <test_12>:

  TEST_RR_SRC12_BYPASS( 12, 0, 0, or, 0xff0fff0f, 0xff00ff00, 0x0f0f0f0f );
 80048bc:	00000213          	li	tp,0
 80048c0:	000100b7          	lui	ra,0x10
 80048c4:	f010809b          	addiw	ra,ra,-255
 80048c8:	01009093          	slli	ra,ra,0x10
 80048cc:	f0008093          	addi	ra,ra,-256 # ff00 <u_mode_trap_table-0x7ff0104>
 80048d0:	0f0f1137          	lui	sp,0xf0f1
 80048d4:	f0f1011b          	addiw	sp,sp,-241
 80048d8:	0020e733          	or	a4,ra,sp
 80048dc:	00120213          	addi	tp,tp,1 # 1 <u_mode_trap_table-0x8000003>
 80048e0:	00200293          	li	t0,2
 80048e4:	fc521ee3          	bne	tp,t0,80048c0 <test_12+0x4>
 80048e8:	00001eb7          	lui	t4,0x1
 80048ec:	ff1e8e9b          	addiw	t4,t4,-15
 80048f0:	014e9e93          	slli	t4,t4,0x14
 80048f4:	f0fe8e93          	addi	t4,t4,-241 # f0f <u_mode_trap_table-0x7fff0f5>
 80048f8:	00c00193          	li	gp,12
 80048fc:	01d70463          	beq	a4,t4,8004904 <test_13>
 8004900:	7f80d06f          	j	80120f8 <fail>

0000000008004904 <test_13>:
  TEST_RR_SRC12_BYPASS( 13, 0, 1, or, 0xfff0fff0, 0x0ff00ff0, 0xf0f0f0f0 );
 8004904:	00000213          	li	tp,0
 8004908:	0ff010b7          	lui	ra,0xff01
 800490c:	ff00809b          	addiw	ra,ra,-16
 8004910:	000f1137          	lui	sp,0xf1
 8004914:	f0f1011b          	addiw	sp,sp,-241
 8004918:	00c11113          	slli	sp,sp,0xc
 800491c:	0f010113          	addi	sp,sp,240 # f10f0 <u_mode_trap_table-0x7f0ef14>
 8004920:	00000013          	nop
 8004924:	0020e733          	or	a4,ra,sp
 8004928:	00120213          	addi	tp,tp,1 # 1 <u_mode_trap_table-0x8000003>
 800492c:	00200293          	li	t0,2
 8004930:	fc521ce3          	bne	tp,t0,8004908 <test_13+0x4>
 8004934:	00010eb7          	lui	t4,0x10
 8004938:	ff1e8e9b          	addiw	t4,t4,-15
 800493c:	010e9e93          	slli	t4,t4,0x10
 8004940:	ff0e8e93          	addi	t4,t4,-16 # fff0 <u_mode_trap_table-0x7ff0014>
 8004944:	00d00193          	li	gp,13
 8004948:	01d70463          	beq	a4,t4,8004950 <test_14>
 800494c:	7ac0d06f          	j	80120f8 <fail>

0000000008004950 <test_14>:
  TEST_RR_SRC12_BYPASS( 14, 0, 2, or, 0x0fff0fff, 0x00ff00ff, 0x0f0f0f0f );
 8004950:	00000213          	li	tp,0
 8004954:	00ff00b7          	lui	ra,0xff0
 8004958:	0ff0809b          	addiw	ra,ra,255
 800495c:	0f0f1137          	lui	sp,0xf0f1
 8004960:	f0f1011b          	addiw	sp,sp,-241
 8004964:	00000013          	nop
 8004968:	00000013          	nop
 800496c:	0020e733          	or	a4,ra,sp
 8004970:	00120213          	addi	tp,tp,1 # 1 <u_mode_trap_table-0x8000003>
 8004974:	00200293          	li	t0,2
 8004978:	fc521ee3          	bne	tp,t0,8004954 <test_14+0x4>
 800497c:	0fff1eb7          	lui	t4,0xfff1
 8004980:	fffe8e9b          	addiw	t4,t4,-1
 8004984:	00e00193          	li	gp,14
 8004988:	01d70463          	beq	a4,t4,8004990 <test_15>
 800498c:	76c0d06f          	j	80120f8 <fail>

0000000008004990 <test_15>:
  TEST_RR_SRC12_BYPASS( 15, 1, 0, or, 0xff0fff0f, 0xff00ff00, 0x0f0f0f0f );
 8004990:	00000213          	li	tp,0
 8004994:	000100b7          	lui	ra,0x10
 8004998:	f010809b          	addiw	ra,ra,-255
 800499c:	01009093          	slli	ra,ra,0x10
 80049a0:	f0008093          	addi	ra,ra,-256 # ff00 <u_mode_trap_table-0x7ff0104>
 80049a4:	00000013          	nop
 80049a8:	0f0f1137          	lui	sp,0xf0f1
 80049ac:	f0f1011b          	addiw	sp,sp,-241
 80049b0:	0020e733          	or	a4,ra,sp
 80049b4:	00120213          	addi	tp,tp,1 # 1 <u_mode_trap_table-0x8000003>
 80049b8:	00200293          	li	t0,2
 80049bc:	fc521ce3          	bne	tp,t0,8004994 <test_15+0x4>
 80049c0:	00001eb7          	lui	t4,0x1
 80049c4:	ff1e8e9b          	addiw	t4,t4,-15
 80049c8:	014e9e93          	slli	t4,t4,0x14
 80049cc:	f0fe8e93          	addi	t4,t4,-241 # f0f <u_mode_trap_table-0x7fff0f5>
 80049d0:	00f00193          	li	gp,15
 80049d4:	01d70463          	beq	a4,t4,80049dc <test_16>
 80049d8:	7200d06f          	j	80120f8 <fail>

00000000080049dc <test_16>:
  TEST_RR_SRC12_BYPASS( 16, 1, 1, or, 0xfff0fff0, 0x0ff00ff0, 0xf0f0f0f0 );
 80049dc:	00000213          	li	tp,0
 80049e0:	0ff010b7          	lui	ra,0xff01
 80049e4:	ff00809b          	addiw	ra,ra,-16
 80049e8:	00000013          	nop
 80049ec:	000f1137          	lui	sp,0xf1
 80049f0:	f0f1011b          	addiw	sp,sp,-241
 80049f4:	00c11113          	slli	sp,sp,0xc
 80049f8:	0f010113          	addi	sp,sp,240 # f10f0 <u_mode_trap_table-0x7f0ef14>
 80049fc:	00000013          	nop
 8004a00:	0020e733          	or	a4,ra,sp
 8004a04:	00120213          	addi	tp,tp,1 # 1 <u_mode_trap_table-0x8000003>
 8004a08:	00200293          	li	t0,2
 8004a0c:	fc521ae3          	bne	tp,t0,80049e0 <test_16+0x4>
 8004a10:	00010eb7          	lui	t4,0x10
 8004a14:	ff1e8e9b          	addiw	t4,t4,-15
 8004a18:	010e9e93          	slli	t4,t4,0x10
 8004a1c:	ff0e8e93          	addi	t4,t4,-16 # fff0 <u_mode_trap_table-0x7ff0014>
 8004a20:	01000193          	li	gp,16
 8004a24:	01d70463          	beq	a4,t4,8004a2c <test_17>
 8004a28:	6d00d06f          	j	80120f8 <fail>

0000000008004a2c <test_17>:
  TEST_RR_SRC12_BYPASS( 17, 2, 0, or, 0x0fff0fff, 0x00ff00ff, 0x0f0f0f0f );
 8004a2c:	00000213          	li	tp,0
 8004a30:	00ff00b7          	lui	ra,0xff0
 8004a34:	0ff0809b          	addiw	ra,ra,255
 8004a38:	00000013          	nop
 8004a3c:	00000013          	nop
 8004a40:	0f0f1137          	lui	sp,0xf0f1
 8004a44:	f0f1011b          	addiw	sp,sp,-241
 8004a48:	0020e733          	or	a4,ra,sp
 8004a4c:	00120213          	addi	tp,tp,1 # 1 <u_mode_trap_table-0x8000003>
 8004a50:	00200293          	li	t0,2
 8004a54:	fc521ee3          	bne	tp,t0,8004a30 <test_17+0x4>
 8004a58:	0fff1eb7          	lui	t4,0xfff1
 8004a5c:	fffe8e9b          	addiw	t4,t4,-1
 8004a60:	01100193          	li	gp,17
 8004a64:	01d70463          	beq	a4,t4,8004a6c <test_18>
 8004a68:	6900d06f          	j	80120f8 <fail>

0000000008004a6c <test_18>:

  TEST_RR_SRC21_BYPASS( 18, 0, 0, or, 0xff0fff0f, 0xff00ff00, 0x0f0f0f0f );
 8004a6c:	00000213          	li	tp,0
 8004a70:	0f0f1137          	lui	sp,0xf0f1
 8004a74:	f0f1011b          	addiw	sp,sp,-241
 8004a78:	000100b7          	lui	ra,0x10
 8004a7c:	f010809b          	addiw	ra,ra,-255
 8004a80:	01009093          	slli	ra,ra,0x10
 8004a84:	f0008093          	addi	ra,ra,-256 # ff00 <u_mode_trap_table-0x7ff0104>
 8004a88:	0020e733          	or	a4,ra,sp
 8004a8c:	00120213          	addi	tp,tp,1 # 1 <u_mode_trap_table-0x8000003>
 8004a90:	00200293          	li	t0,2
 8004a94:	fc521ee3          	bne	tp,t0,8004a70 <test_18+0x4>
 8004a98:	00001eb7          	lui	t4,0x1
 8004a9c:	ff1e8e9b          	addiw	t4,t4,-15
 8004aa0:	014e9e93          	slli	t4,t4,0x14
 8004aa4:	f0fe8e93          	addi	t4,t4,-241 # f0f <u_mode_trap_table-0x7fff0f5>
 8004aa8:	01200193          	li	gp,18
 8004aac:	01d70463          	beq	a4,t4,8004ab4 <test_19>
 8004ab0:	6480d06f          	j	80120f8 <fail>

0000000008004ab4 <test_19>:
  TEST_RR_SRC21_BYPASS( 19, 0, 1, or, 0xfff0fff0, 0x0ff00ff0, 0xf0f0f0f0 );
 8004ab4:	00000213          	li	tp,0
 8004ab8:	000f1137          	lui	sp,0xf1
 8004abc:	f0f1011b          	addiw	sp,sp,-241
 8004ac0:	00c11113          	slli	sp,sp,0xc
 8004ac4:	0f010113          	addi	sp,sp,240 # f10f0 <u_mode_trap_table-0x7f0ef14>
 8004ac8:	0ff010b7          	lui	ra,0xff01
 8004acc:	ff00809b          	addiw	ra,ra,-16
 8004ad0:	00000013          	nop
 8004ad4:	0020e733          	or	a4,ra,sp
 8004ad8:	00120213          	addi	tp,tp,1 # 1 <u_mode_trap_table-0x8000003>
 8004adc:	00200293          	li	t0,2
 8004ae0:	fc521ce3          	bne	tp,t0,8004ab8 <test_19+0x4>
 8004ae4:	00010eb7          	lui	t4,0x10
 8004ae8:	ff1e8e9b          	addiw	t4,t4,-15
 8004aec:	010e9e93          	slli	t4,t4,0x10
 8004af0:	ff0e8e93          	addi	t4,t4,-16 # fff0 <u_mode_trap_table-0x7ff0014>
 8004af4:	01300193          	li	gp,19
 8004af8:	01d70463          	beq	a4,t4,8004b00 <test_20>
 8004afc:	5fc0d06f          	j	80120f8 <fail>

0000000008004b00 <test_20>:
  TEST_RR_SRC21_BYPASS( 20, 0, 2, or, 0x0fff0fff, 0x00ff00ff, 0x0f0f0f0f );
 8004b00:	00000213          	li	tp,0
 8004b04:	0f0f1137          	lui	sp,0xf0f1
 8004b08:	f0f1011b          	addiw	sp,sp,-241
 8004b0c:	00ff00b7          	lui	ra,0xff0
 8004b10:	0ff0809b          	addiw	ra,ra,255
 8004b14:	00000013          	nop
 8004b18:	00000013          	nop
 8004b1c:	0020e733          	or	a4,ra,sp
 8004b20:	00120213          	addi	tp,tp,1 # 1 <u_mode_trap_table-0x8000003>
 8004b24:	00200293          	li	t0,2
 8004b28:	fc521ee3          	bne	tp,t0,8004b04 <test_20+0x4>
 8004b2c:	0fff1eb7          	lui	t4,0xfff1
 8004b30:	fffe8e9b          	addiw	t4,t4,-1
 8004b34:	01400193          	li	gp,20
 8004b38:	01d70463          	beq	a4,t4,8004b40 <test_21>
 8004b3c:	5bc0d06f          	j	80120f8 <fail>

0000000008004b40 <test_21>:
  TEST_RR_SRC21_BYPASS( 21, 1, 0, or, 0xff0fff0f, 0xff00ff00, 0x0f0f0f0f );
 8004b40:	00000213          	li	tp,0
 8004b44:	0f0f1137          	lui	sp,0xf0f1
 8004b48:	f0f1011b          	addiw	sp,sp,-241
 8004b4c:	00000013          	nop
 8004b50:	000100b7          	lui	ra,0x10
 8004b54:	f010809b          	addiw	ra,ra,-255
 8004b58:	01009093          	slli	ra,ra,0x10
 8004b5c:	f0008093          	addi	ra,ra,-256 # ff00 <u_mode_trap_table-0x7ff0104>
 8004b60:	0020e733          	or	a4,ra,sp
 8004b64:	00120213          	addi	tp,tp,1 # 1 <u_mode_trap_table-0x8000003>
 8004b68:	00200293          	li	t0,2
 8004b6c:	fc521ce3          	bne	tp,t0,8004b44 <test_21+0x4>
 8004b70:	00001eb7          	lui	t4,0x1
 8004b74:	ff1e8e9b          	addiw	t4,t4,-15
 8004b78:	014e9e93          	slli	t4,t4,0x14
 8004b7c:	f0fe8e93          	addi	t4,t4,-241 # f0f <u_mode_trap_table-0x7fff0f5>
 8004b80:	01500193          	li	gp,21
 8004b84:	01d70463          	beq	a4,t4,8004b8c <test_22>
 8004b88:	5700d06f          	j	80120f8 <fail>

0000000008004b8c <test_22>:
  TEST_RR_SRC21_BYPASS( 22, 1, 1, or, 0xfff0fff0, 0x0ff00ff0, 0xf0f0f0f0 );
 8004b8c:	00000213          	li	tp,0
 8004b90:	000f1137          	lui	sp,0xf1
 8004b94:	f0f1011b          	addiw	sp,sp,-241
 8004b98:	00c11113          	slli	sp,sp,0xc
 8004b9c:	0f010113          	addi	sp,sp,240 # f10f0 <u_mode_trap_table-0x7f0ef14>
 8004ba0:	00000013          	nop
 8004ba4:	0ff010b7          	lui	ra,0xff01
 8004ba8:	ff00809b          	addiw	ra,ra,-16
 8004bac:	00000013          	nop
 8004bb0:	0020e733          	or	a4,ra,sp
 8004bb4:	00120213          	addi	tp,tp,1 # 1 <u_mode_trap_table-0x8000003>
 8004bb8:	00200293          	li	t0,2
 8004bbc:	fc521ae3          	bne	tp,t0,8004b90 <test_22+0x4>
 8004bc0:	00010eb7          	lui	t4,0x10
 8004bc4:	ff1e8e9b          	addiw	t4,t4,-15
 8004bc8:	010e9e93          	slli	t4,t4,0x10
 8004bcc:	ff0e8e93          	addi	t4,t4,-16 # fff0 <u_mode_trap_table-0x7ff0014>
 8004bd0:	01600193          	li	gp,22
 8004bd4:	01d70463          	beq	a4,t4,8004bdc <test_23>
 8004bd8:	5200d06f          	j	80120f8 <fail>

0000000008004bdc <test_23>:
  TEST_RR_SRC21_BYPASS( 23, 2, 0, or, 0x0fff0fff, 0x00ff00ff, 0x0f0f0f0f );
 8004bdc:	00000213          	li	tp,0
 8004be0:	0f0f1137          	lui	sp,0xf0f1
 8004be4:	f0f1011b          	addiw	sp,sp,-241
 8004be8:	00000013          	nop
 8004bec:	00000013          	nop
 8004bf0:	00ff00b7          	lui	ra,0xff0
 8004bf4:	0ff0809b          	addiw	ra,ra,255
 8004bf8:	0020e733          	or	a4,ra,sp
 8004bfc:	00120213          	addi	tp,tp,1 # 1 <u_mode_trap_table-0x8000003>
 8004c00:	00200293          	li	t0,2
 8004c04:	fc521ee3          	bne	tp,t0,8004be0 <test_23+0x4>
 8004c08:	0fff1eb7          	lui	t4,0xfff1
 8004c0c:	fffe8e9b          	addiw	t4,t4,-1
 8004c10:	01700193          	li	gp,23
 8004c14:	01d70463          	beq	a4,t4,8004c1c <test_24>
 8004c18:	4e00d06f          	j	80120f8 <fail>

0000000008004c1c <test_24>:

  TEST_RR_ZEROSRC1( 24, or, 0xff00ff00, 0xff00ff00 );
 8004c1c:	000100b7          	lui	ra,0x10
 8004c20:	f010809b          	addiw	ra,ra,-255
 8004c24:	01009093          	slli	ra,ra,0x10
 8004c28:	f0008093          	addi	ra,ra,-256 # ff00 <u_mode_trap_table-0x7ff0104>
 8004c2c:	00106133          	or	sp,zero,ra
 8004c30:	00010eb7          	lui	t4,0x10
 8004c34:	f01e8e9b          	addiw	t4,t4,-255
 8004c38:	010e9e93          	slli	t4,t4,0x10
 8004c3c:	f00e8e93          	addi	t4,t4,-256 # ff00 <u_mode_trap_table-0x7ff0104>
 8004c40:	01800193          	li	gp,24
 8004c44:	01d10463          	beq	sp,t4,8004c4c <test_25>
 8004c48:	4b00d06f          	j	80120f8 <fail>

0000000008004c4c <test_25>:
  TEST_RR_ZEROSRC2( 25, or, 0x00ff00ff, 0x00ff00ff );
 8004c4c:	00ff00b7          	lui	ra,0xff0
 8004c50:	0ff0809b          	addiw	ra,ra,255
 8004c54:	0000e133          	or	sp,ra,zero
 8004c58:	00ff0eb7          	lui	t4,0xff0
 8004c5c:	0ffe8e9b          	addiw	t4,t4,255
 8004c60:	01900193          	li	gp,25
 8004c64:	01d10463          	beq	sp,t4,8004c6c <test_26>
 8004c68:	4900d06f          	j	80120f8 <fail>

0000000008004c6c <test_26>:
  TEST_RR_ZEROSRC12( 26, or, 0 );
 8004c6c:	000060b3          	or	ra,zero,zero
 8004c70:	00000e93          	li	t4,0
 8004c74:	01a00193          	li	gp,26
 8004c78:	01d08463          	beq	ra,t4,8004c80 <test_27>
 8004c7c:	47c0d06f          	j	80120f8 <fail>

0000000008004c80 <test_27>:
  TEST_RR_ZERODEST( 27, or, 0x11111111, 0x22222222 );
 8004c80:	111110b7          	lui	ra,0x11111
 8004c84:	1110809b          	addiw	ra,ra,273
 8004c88:	22222137          	lui	sp,0x22222
 8004c8c:	2221011b          	addiw	sp,sp,546
 8004c90:	0020e033          	or	zero,ra,sp
 8004c94:	00000e93          	li	t4,0
 8004c98:	01b00193          	li	gp,27
 8004c9c:	01d00463          	beq	zero,t4,8004ca4 <test_27+0x24>
 8004ca0:	4580d06f          	j	80120f8 <fail>

  TEST_PASSFAIL

RVTEST_CODE_END
 8004ca4:	c0001073          	unimp

0000000008004ca8 <test_2>:

  #-------------------------------------------------------------
  # Logical tests
  #-------------------------------------------------------------

  TEST_IMM_OP( 2, ori, 0xffffffffffffff0f, 0xffffffffff00ff00, 0xf0f );
 8004ca8:	ff0100b7          	lui	ra,0xff010
 8004cac:	f000809b          	addiw	ra,ra,-256
 8004cb0:	f0f0e713          	ori	a4,ra,-241
 8004cb4:	f0f00e93          	li	t4,-241
 8004cb8:	00200193          	li	gp,2
 8004cbc:	01d70463          	beq	a4,t4,8004cc4 <test_3>
 8004cc0:	4380d06f          	j	80120f8 <fail>

0000000008004cc4 <test_3>:
  TEST_IMM_OP( 3, ori, 0x000000000ff00ff0, 0x000000000ff00ff0, 0x0f0 );
 8004cc4:	0ff010b7          	lui	ra,0xff01
 8004cc8:	ff00809b          	addiw	ra,ra,-16
 8004ccc:	0f00e713          	ori	a4,ra,240
 8004cd0:	0ff01eb7          	lui	t4,0xff01
 8004cd4:	ff0e8e9b          	addiw	t4,t4,-16
 8004cd8:	00300193          	li	gp,3
 8004cdc:	01d70463          	beq	a4,t4,8004ce4 <test_4>
 8004ce0:	4180d06f          	j	80120f8 <fail>

0000000008004ce4 <test_4>:
  TEST_IMM_OP( 4, ori, 0x0000000000ff07ff, 0x0000000000ff00ff, 0x70f );
 8004ce4:	00ff00b7          	lui	ra,0xff0
 8004ce8:	0ff0809b          	addiw	ra,ra,255
 8004cec:	70f0e713          	ori	a4,ra,1807
 8004cf0:	00ff0eb7          	lui	t4,0xff0
 8004cf4:	7ffe8e9b          	addiw	t4,t4,2047
 8004cf8:	00400193          	li	gp,4
 8004cfc:	01d70463          	beq	a4,t4,8004d04 <test_5>
 8004d00:	3f80d06f          	j	80120f8 <fail>

0000000008004d04 <test_5>:
  TEST_IMM_OP( 5, ori, 0xfffffffff00ff0ff, 0xfffffffff00ff00f, 0x0f0 );
 8004d04:	f00ff0b7          	lui	ra,0xf00ff
 8004d08:	00f0809b          	addiw	ra,ra,15
 8004d0c:	0f00e713          	ori	a4,ra,240
 8004d10:	f00ffeb7          	lui	t4,0xf00ff
 8004d14:	0ffe8e9b          	addiw	t4,t4,255
 8004d18:	00500193          	li	gp,5
 8004d1c:	01d70463          	beq	a4,t4,8004d24 <test_6>
 8004d20:	3d80d06f          	j	80120f8 <fail>

0000000008004d24 <test_6>:

  #-------------------------------------------------------------
  # Source/Destination tests
  #-------------------------------------------------------------

  TEST_IMM_SRC1_EQ_DEST( 6, ori, 0xff00fff0, 0xff00ff00, 0x0f0 );
 8004d24:	000100b7          	lui	ra,0x10
 8004d28:	f010809b          	addiw	ra,ra,-255
 8004d2c:	01009093          	slli	ra,ra,0x10
 8004d30:	f0008093          	addi	ra,ra,-256 # ff00 <u_mode_trap_table-0x7ff0104>
 8004d34:	0f00e093          	ori	ra,ra,240
 8004d38:	00010eb7          	lui	t4,0x10
 8004d3c:	f01e8e9b          	addiw	t4,t4,-255
 8004d40:	010e9e93          	slli	t4,t4,0x10
 8004d44:	ff0e8e93          	addi	t4,t4,-16 # fff0 <u_mode_trap_table-0x7ff0014>
 8004d48:	00600193          	li	gp,6
 8004d4c:	01d08463          	beq	ra,t4,8004d54 <test_7>
 8004d50:	3a80d06f          	j	80120f8 <fail>

0000000008004d54 <test_7>:

  #-------------------------------------------------------------
  # Bypassing tests
  #-------------------------------------------------------------

  TEST_IMM_DEST_BYPASS( 7,  0, ori, 0x000000000ff00ff0, 0x000000000ff00ff0, 0x0f0 );
 8004d54:	00000213          	li	tp,0
 8004d58:	0ff010b7          	lui	ra,0xff01
 8004d5c:	ff00809b          	addiw	ra,ra,-16
 8004d60:	0f00e713          	ori	a4,ra,240
 8004d64:	00070313          	mv	t1,a4
 8004d68:	00120213          	addi	tp,tp,1 # 1 <u_mode_trap_table-0x8000003>
 8004d6c:	00200293          	li	t0,2
 8004d70:	fe5214e3          	bne	tp,t0,8004d58 <test_7+0x4>
 8004d74:	0ff01eb7          	lui	t4,0xff01
 8004d78:	ff0e8e9b          	addiw	t4,t4,-16
 8004d7c:	00700193          	li	gp,7
 8004d80:	01d30463          	beq	t1,t4,8004d88 <test_8>
 8004d84:	3740d06f          	j	80120f8 <fail>

0000000008004d88 <test_8>:
  TEST_IMM_DEST_BYPASS( 8,  1, ori, 0x0000000000ff07ff, 0x0000000000ff00ff, 0x70f );
 8004d88:	00000213          	li	tp,0
 8004d8c:	00ff00b7          	lui	ra,0xff0
 8004d90:	0ff0809b          	addiw	ra,ra,255
 8004d94:	70f0e713          	ori	a4,ra,1807
 8004d98:	00000013          	nop
 8004d9c:	00070313          	mv	t1,a4
 8004da0:	00120213          	addi	tp,tp,1 # 1 <u_mode_trap_table-0x8000003>
 8004da4:	00200293          	li	t0,2
 8004da8:	fe5212e3          	bne	tp,t0,8004d8c <test_8+0x4>
 8004dac:	00ff0eb7          	lui	t4,0xff0
 8004db0:	7ffe8e9b          	addiw	t4,t4,2047
 8004db4:	00800193          	li	gp,8
 8004db8:	01d30463          	beq	t1,t4,8004dc0 <test_9>
 8004dbc:	33c0d06f          	j	80120f8 <fail>

0000000008004dc0 <test_9>:
  TEST_IMM_DEST_BYPASS( 9,  2, ori, 0xfffffffff00ff0ff, 0xfffffffff00ff00f, 0x0f0 );
 8004dc0:	00000213          	li	tp,0
 8004dc4:	f00ff0b7          	lui	ra,0xf00ff
 8004dc8:	00f0809b          	addiw	ra,ra,15
 8004dcc:	0f00e713          	ori	a4,ra,240
 8004dd0:	00000013          	nop
 8004dd4:	00000013          	nop
 8004dd8:	00070313          	mv	t1,a4
 8004ddc:	00120213          	addi	tp,tp,1 # 1 <u_mode_trap_table-0x8000003>
 8004de0:	00200293          	li	t0,2
 8004de4:	fe5210e3          	bne	tp,t0,8004dc4 <test_9+0x4>
 8004de8:	f00ffeb7          	lui	t4,0xf00ff
 8004dec:	0ffe8e9b          	addiw	t4,t4,255
 8004df0:	00900193          	li	gp,9
 8004df4:	01d30463          	beq	t1,t4,8004dfc <test_10>
 8004df8:	3000d06f          	j	80120f8 <fail>

0000000008004dfc <test_10>:

  TEST_IMM_SRC1_BYPASS( 10, 0, ori, 0x000000000ff00ff0, 0x000000000ff00ff0, 0x0f0 );
 8004dfc:	00000213          	li	tp,0
 8004e00:	0ff010b7          	lui	ra,0xff01
 8004e04:	ff00809b          	addiw	ra,ra,-16
 8004e08:	0f00e713          	ori	a4,ra,240
 8004e0c:	00120213          	addi	tp,tp,1 # 1 <u_mode_trap_table-0x8000003>
 8004e10:	00200293          	li	t0,2
 8004e14:	fe5216e3          	bne	tp,t0,8004e00 <test_10+0x4>
 8004e18:	0ff01eb7          	lui	t4,0xff01
 8004e1c:	ff0e8e9b          	addiw	t4,t4,-16
 8004e20:	00a00193          	li	gp,10
 8004e24:	01d70463          	beq	a4,t4,8004e2c <test_11>
 8004e28:	2d00d06f          	j	80120f8 <fail>

0000000008004e2c <test_11>:
  TEST_IMM_SRC1_BYPASS( 11, 1, ori, 0xffffffffffffffff, 0x0000000000ff00ff, 0xf0f );
 8004e2c:	00000213          	li	tp,0
 8004e30:	00ff00b7          	lui	ra,0xff0
 8004e34:	0ff0809b          	addiw	ra,ra,255
 8004e38:	00000013          	nop
 8004e3c:	f0f0e713          	ori	a4,ra,-241
 8004e40:	00120213          	addi	tp,tp,1 # 1 <u_mode_trap_table-0x8000003>
 8004e44:	00200293          	li	t0,2
 8004e48:	fe5214e3          	bne	tp,t0,8004e30 <test_11+0x4>
 8004e4c:	fff00e93          	li	t4,-1
 8004e50:	00b00193          	li	gp,11
 8004e54:	01d70463          	beq	a4,t4,8004e5c <test_12>
 8004e58:	2a00d06f          	j	80120f8 <fail>

0000000008004e5c <test_12>:
  TEST_IMM_SRC1_BYPASS( 12, 2, ori, 0xfffffffff00ff0ff, 0xfffffffff00ff00f, 0x0f0 );
 8004e5c:	00000213          	li	tp,0
 8004e60:	f00ff0b7          	lui	ra,0xf00ff
 8004e64:	00f0809b          	addiw	ra,ra,15
 8004e68:	00000013          	nop
 8004e6c:	00000013          	nop
 8004e70:	0f00e713          	ori	a4,ra,240
 8004e74:	00120213          	addi	tp,tp,1 # 1 <u_mode_trap_table-0x8000003>
 8004e78:	00200293          	li	t0,2
 8004e7c:	fe5212e3          	bne	tp,t0,8004e60 <test_12+0x4>
 8004e80:	f00ffeb7          	lui	t4,0xf00ff
 8004e84:	0ffe8e9b          	addiw	t4,t4,255
 8004e88:	00c00193          	li	gp,12
 8004e8c:	01d70463          	beq	a4,t4,8004e94 <test_13>
 8004e90:	2680d06f          	j	80120f8 <fail>

0000000008004e94 <test_13>:

  TEST_IMM_ZEROSRC1( 13, ori, 0x0f0, 0x0f0 );
 8004e94:	0f006093          	ori	ra,zero,240
 8004e98:	0f000e93          	li	t4,240
 8004e9c:	00d00193          	li	gp,13
 8004ea0:	01d08463          	beq	ra,t4,8004ea8 <test_14>
 8004ea4:	2540d06f          	j	80120f8 <fail>

0000000008004ea8 <test_14>:
  TEST_IMM_ZERODEST( 14, ori, 0x00ff00ff, 0x70f );
 8004ea8:	00ff00b7          	lui	ra,0xff0
 8004eac:	0ff0809b          	addiw	ra,ra,255
 8004eb0:	70f0e013          	ori	zero,ra,1807
 8004eb4:	00000e93          	li	t4,0
 8004eb8:	00e00193          	li	gp,14
 8004ebc:	01d00463          	beq	zero,t4,8004ec4 <test_14+0x1c>
 8004ec0:	2380d06f          	j	80120f8 <fail>

  TEST_PASSFAIL

RVTEST_CODE_END
 8004ec4:	c0001073          	unimp

0000000008004ec8 <test_2>:

  #-------------------------------------------------------------
  # Basic tests
  #-------------------------------------------------------------

  TEST_ST_OP( 2, lb, sb, 0xffffffffffffffaa, 0, tdat );
 8004ec8:	0000e097          	auipc	ra,0xe
 8004ecc:	1d808093          	addi	ra,ra,472 # 80130a0 <tdat>
 8004ed0:	faa00113          	li	sp,-86
 8004ed4:	00208023          	sb	sp,0(ra)
 8004ed8:	00008703          	lb	a4,0(ra)
 8004edc:	faa00e93          	li	t4,-86
 8004ee0:	00200193          	li	gp,2
 8004ee4:	01d70463          	beq	a4,t4,8004eec <test_3>
 8004ee8:	2100d06f          	j	80120f8 <fail>

0000000008004eec <test_3>:
  TEST_ST_OP( 3, lb, sb, 0x0000000000000000, 1, tdat );
 8004eec:	0000e097          	auipc	ra,0xe
 8004ef0:	1b408093          	addi	ra,ra,436 # 80130a0 <tdat>
 8004ef4:	00000113          	li	sp,0
 8004ef8:	002080a3          	sb	sp,1(ra)
 8004efc:	00108703          	lb	a4,1(ra)
 8004f00:	00000e93          	li	t4,0
 8004f04:	00300193          	li	gp,3
 8004f08:	01d70463          	beq	a4,t4,8004f10 <test_4>
 8004f0c:	1ec0d06f          	j	80120f8 <fail>

0000000008004f10 <test_4>:
  TEST_ST_OP( 4, lh, sb, 0xffffffffffffefa0, 2, tdat );
 8004f10:	0000e097          	auipc	ra,0xe
 8004f14:	19008093          	addi	ra,ra,400 # 80130a0 <tdat>
 8004f18:	fffff137          	lui	sp,0xfffff
 8004f1c:	fa01011b          	addiw	sp,sp,-96
 8004f20:	00208123          	sb	sp,2(ra)
 8004f24:	00209703          	lh	a4,2(ra)
 8004f28:	fffffeb7          	lui	t4,0xfffff
 8004f2c:	fa0e8e9b          	addiw	t4,t4,-96
 8004f30:	00400193          	li	gp,4
 8004f34:	01d70463          	beq	a4,t4,8004f3c <test_5>
 8004f38:	1c00d06f          	j	80120f8 <fail>

0000000008004f3c <test_5>:
  TEST_ST_OP( 5, lb, sb, 0x000000000000000a, 3, tdat );
 8004f3c:	0000e097          	auipc	ra,0xe
 8004f40:	16408093          	addi	ra,ra,356 # 80130a0 <tdat>
 8004f44:	00a00113          	li	sp,10
 8004f48:	002081a3          	sb	sp,3(ra)
 8004f4c:	00308703          	lb	a4,3(ra)
 8004f50:	00a00e93          	li	t4,10
 8004f54:	00500193          	li	gp,5
 8004f58:	01d70463          	beq	a4,t4,8004f60 <test_6>
 8004f5c:	19c0d06f          	j	80120f8 <fail>

0000000008004f60 <test_6>:

  # Test with negative offset

  TEST_ST_OP( 6, lb, sb, 0xffffffffffffffaa, -3, tdat8 );
 8004f60:	0000e097          	auipc	ra,0xe
 8004f64:	14708093          	addi	ra,ra,327 # 80130a7 <tdat8>
 8004f68:	faa00113          	li	sp,-86
 8004f6c:	fe208ea3          	sb	sp,-3(ra)
 8004f70:	ffd08703          	lb	a4,-3(ra)
 8004f74:	faa00e93          	li	t4,-86
 8004f78:	00600193          	li	gp,6
 8004f7c:	01d70463          	beq	a4,t4,8004f84 <test_7>
 8004f80:	1780d06f          	j	80120f8 <fail>

0000000008004f84 <test_7>:
  TEST_ST_OP( 7, lb, sb, 0x0000000000000000, -2, tdat8 );
 8004f84:	0000e097          	auipc	ra,0xe
 8004f88:	12308093          	addi	ra,ra,291 # 80130a7 <tdat8>
 8004f8c:	00000113          	li	sp,0
 8004f90:	fe208f23          	sb	sp,-2(ra)
 8004f94:	ffe08703          	lb	a4,-2(ra)
 8004f98:	00000e93          	li	t4,0
 8004f9c:	00700193          	li	gp,7
 8004fa0:	01d70463          	beq	a4,t4,8004fa8 <test_8>
 8004fa4:	1540d06f          	j	80120f8 <fail>

0000000008004fa8 <test_8>:
  TEST_ST_OP( 8, lb, sb, 0xffffffffffffffa0, -1, tdat8 );
 8004fa8:	0000e097          	auipc	ra,0xe
 8004fac:	0ff08093          	addi	ra,ra,255 # 80130a7 <tdat8>
 8004fb0:	fa000113          	li	sp,-96
 8004fb4:	fe208fa3          	sb	sp,-1(ra)
 8004fb8:	fff08703          	lb	a4,-1(ra)
 8004fbc:	fa000e93          	li	t4,-96
 8004fc0:	00800193          	li	gp,8
 8004fc4:	01d70463          	beq	a4,t4,8004fcc <test_9>
 8004fc8:	1300d06f          	j	80120f8 <fail>

0000000008004fcc <test_9>:
  TEST_ST_OP( 9, lb, sb, 0x000000000000000a, 0,  tdat8 );
 8004fcc:	0000e097          	auipc	ra,0xe
 8004fd0:	0db08093          	addi	ra,ra,219 # 80130a7 <tdat8>
 8004fd4:	00a00113          	li	sp,10
 8004fd8:	00208023          	sb	sp,0(ra)
 8004fdc:	00008703          	lb	a4,0(ra)
 8004fe0:	00a00e93          	li	t4,10
 8004fe4:	00900193          	li	gp,9
 8004fe8:	01d70463          	beq	a4,t4,8004ff0 <test_10>
 8004fec:	10c0d06f          	j	80120f8 <fail>

0000000008004ff0 <test_10>:

  # Test with a negative base

  TEST_CASE( 10, x5, 0x78, \
 8004ff0:	0000e097          	auipc	ra,0xe
 8004ff4:	0b808093          	addi	ra,ra,184 # 80130a8 <tdat9>
 8004ff8:	12345137          	lui	sp,0x12345
 8004ffc:	6781011b          	addiw	sp,sp,1656
 8005000:	fe008213          	addi	tp,ra,-32
 8005004:	02220023          	sb	sp,32(tp) # 20 <u_mode_trap_table-0x7ffffe4>
 8005008:	00008283          	lb	t0,0(ra)
 800500c:	07800e93          	li	t4,120
 8005010:	00a00193          	li	gp,10
 8005014:	01d28463          	beq	t0,t4,800501c <test_11>
 8005018:	0e00d06f          	j	80120f8 <fail>

000000000800501c <test_11>:
    lb x5, 0(x1); \
  )

  # Test with unaligned base

  TEST_CASE( 11, x5, 0xffffffffffffff98, \
 800501c:	0000e097          	auipc	ra,0xe
 8005020:	08c08093          	addi	ra,ra,140 # 80130a8 <tdat9>
 8005024:	00003137          	lui	sp,0x3
 8005028:	0981011b          	addiw	sp,sp,152
 800502c:	ffa08093          	addi	ra,ra,-6
 8005030:	002083a3          	sb	sp,7(ra)
 8005034:	0000e217          	auipc	tp,0xe
 8005038:	07520213          	addi	tp,tp,117 # 80130a9 <tdat10>
 800503c:	00020283          	lb	t0,0(tp) # 0 <u_mode_trap_table-0x8000004>
 8005040:	f9800e93          	li	t4,-104
 8005044:	00b00193          	li	gp,11
 8005048:	01d28463          	beq	t0,t4,8005050 <test_12>
 800504c:	0ac0d06f          	j	80120f8 <fail>

0000000008005050 <test_12>:

  #-------------------------------------------------------------
  # Bypassing tests
  #-------------------------------------------------------------

  TEST_ST_SRC12_BYPASS( 12, 0, 0, lb, sb, 0xffffffffffffffdd, 0, tdat );
 8005050:	00c00193          	li	gp,12
 8005054:	00000213          	li	tp,0
 8005058:	fdd00093          	li	ra,-35
 800505c:	0000e117          	auipc	sp,0xe
 8005060:	04410113          	addi	sp,sp,68 # 80130a0 <tdat>
 8005064:	00110023          	sb	ra,0(sp)
 8005068:	00010703          	lb	a4,0(sp)
 800506c:	fdd00e93          	li	t4,-35
 8005070:	01d70463          	beq	a4,t4,8005078 <test_12+0x28>
 8005074:	0840d06f          	j	80120f8 <fail>
 8005078:	00120213          	addi	tp,tp,1 # 1 <u_mode_trap_table-0x8000003>
 800507c:	00200293          	li	t0,2
 8005080:	fc521ce3          	bne	tp,t0,8005058 <test_12+0x8>

0000000008005084 <test_13>:
  TEST_ST_SRC12_BYPASS( 13, 0, 1, lb, sb, 0xffffffffffffffcd, 1, tdat );
 8005084:	00d00193          	li	gp,13
 8005088:	00000213          	li	tp,0
 800508c:	fcd00093          	li	ra,-51
 8005090:	0000e117          	auipc	sp,0xe
 8005094:	01010113          	addi	sp,sp,16 # 80130a0 <tdat>
 8005098:	00000013          	nop
 800509c:	001100a3          	sb	ra,1(sp)
 80050a0:	00110703          	lb	a4,1(sp)
 80050a4:	fcd00e93          	li	t4,-51
 80050a8:	01d70463          	beq	a4,t4,80050b0 <test_13+0x2c>
 80050ac:	04c0d06f          	j	80120f8 <fail>
 80050b0:	00120213          	addi	tp,tp,1 # 1 <u_mode_trap_table-0x8000003>
 80050b4:	00200293          	li	t0,2
 80050b8:	fc521ae3          	bne	tp,t0,800508c <test_13+0x8>

00000000080050bc <test_14>:
  TEST_ST_SRC12_BYPASS( 14, 0, 2, lb, sb, 0xffffffffffffffcc, 2, tdat );
 80050bc:	00e00193          	li	gp,14
 80050c0:	00000213          	li	tp,0
 80050c4:	fcc00093          	li	ra,-52
 80050c8:	0000e117          	auipc	sp,0xe
 80050cc:	fd810113          	addi	sp,sp,-40 # 80130a0 <tdat>
 80050d0:	00000013          	nop
 80050d4:	00000013          	nop
 80050d8:	00110123          	sb	ra,2(sp)
 80050dc:	00210703          	lb	a4,2(sp)
 80050e0:	fcc00e93          	li	t4,-52
 80050e4:	01d70463          	beq	a4,t4,80050ec <test_14+0x30>
 80050e8:	0100d06f          	j	80120f8 <fail>
 80050ec:	00120213          	addi	tp,tp,1 # 1 <u_mode_trap_table-0x8000003>
 80050f0:	00200293          	li	t0,2
 80050f4:	fc5218e3          	bne	tp,t0,80050c4 <test_14+0x8>

00000000080050f8 <test_15>:
  TEST_ST_SRC12_BYPASS( 15, 1, 0, lb, sb, 0xffffffffffffffbc, 3, tdat );
 80050f8:	00f00193          	li	gp,15
 80050fc:	00000213          	li	tp,0
 8005100:	fbc00093          	li	ra,-68
 8005104:	00000013          	nop
 8005108:	0000e117          	auipc	sp,0xe
 800510c:	f9810113          	addi	sp,sp,-104 # 80130a0 <tdat>
 8005110:	001101a3          	sb	ra,3(sp)
 8005114:	00310703          	lb	a4,3(sp)
 8005118:	fbc00e93          	li	t4,-68
 800511c:	01d70463          	beq	a4,t4,8005124 <test_15+0x2c>
 8005120:	7d90c06f          	j	80120f8 <fail>
 8005124:	00120213          	addi	tp,tp,1 # 1 <u_mode_trap_table-0x8000003>
 8005128:	00200293          	li	t0,2
 800512c:	fc521ae3          	bne	tp,t0,8005100 <test_15+0x8>

0000000008005130 <test_16>:
  TEST_ST_SRC12_BYPASS( 16, 1, 1, lb, sb, 0xffffffffffffffbb, 4, tdat );
 8005130:	01000193          	li	gp,16
 8005134:	00000213          	li	tp,0
 8005138:	fbb00093          	li	ra,-69
 800513c:	00000013          	nop
 8005140:	0000e117          	auipc	sp,0xe
 8005144:	f6010113          	addi	sp,sp,-160 # 80130a0 <tdat>
 8005148:	00000013          	nop
 800514c:	00110223          	sb	ra,4(sp)
 8005150:	00410703          	lb	a4,4(sp)
 8005154:	fbb00e93          	li	t4,-69
 8005158:	01d70463          	beq	a4,t4,8005160 <test_16+0x30>
 800515c:	79d0c06f          	j	80120f8 <fail>
 8005160:	00120213          	addi	tp,tp,1 # 1 <u_mode_trap_table-0x8000003>
 8005164:	00200293          	li	t0,2
 8005168:	fc5218e3          	bne	tp,t0,8005138 <test_16+0x8>

000000000800516c <test_17>:
  TEST_ST_SRC12_BYPASS( 17, 2, 0, lb, sb, 0xffffffffffffffab, 5, tdat );
 800516c:	01100193          	li	gp,17
 8005170:	00000213          	li	tp,0
 8005174:	fab00093          	li	ra,-85
 8005178:	00000013          	nop
 800517c:	00000013          	nop
 8005180:	0000e117          	auipc	sp,0xe
 8005184:	f2010113          	addi	sp,sp,-224 # 80130a0 <tdat>
 8005188:	001102a3          	sb	ra,5(sp)
 800518c:	00510703          	lb	a4,5(sp)
 8005190:	fab00e93          	li	t4,-85
 8005194:	01d70463          	beq	a4,t4,800519c <test_17+0x30>
 8005198:	7610c06f          	j	80120f8 <fail>
 800519c:	00120213          	addi	tp,tp,1 # 1 <u_mode_trap_table-0x8000003>
 80051a0:	00200293          	li	t0,2
 80051a4:	fc5218e3          	bne	tp,t0,8005174 <test_17+0x8>

00000000080051a8 <test_18>:

  TEST_ST_SRC21_BYPASS( 18, 0, 0, lb, sb, 0x33, 0, tdat );
 80051a8:	01200193          	li	gp,18
 80051ac:	00000213          	li	tp,0
 80051b0:	0000e117          	auipc	sp,0xe
 80051b4:	ef010113          	addi	sp,sp,-272 # 80130a0 <tdat>
 80051b8:	03300093          	li	ra,51
 80051bc:	00110023          	sb	ra,0(sp)
 80051c0:	00010703          	lb	a4,0(sp)
 80051c4:	03300e93          	li	t4,51
 80051c8:	01d70463          	beq	a4,t4,80051d0 <test_18+0x28>
 80051cc:	72d0c06f          	j	80120f8 <fail>
 80051d0:	00120213          	addi	tp,tp,1 # 1 <u_mode_trap_table-0x8000003>
 80051d4:	00200293          	li	t0,2
 80051d8:	fc521ce3          	bne	tp,t0,80051b0 <test_18+0x8>

00000000080051dc <test_19>:
  TEST_ST_SRC21_BYPASS( 19, 0, 1, lb, sb, 0x23, 1, tdat );
 80051dc:	01300193          	li	gp,19
 80051e0:	00000213          	li	tp,0
 80051e4:	0000e117          	auipc	sp,0xe
 80051e8:	ebc10113          	addi	sp,sp,-324 # 80130a0 <tdat>
 80051ec:	02300093          	li	ra,35
 80051f0:	00000013          	nop
 80051f4:	001100a3          	sb	ra,1(sp)
 80051f8:	00110703          	lb	a4,1(sp)
 80051fc:	02300e93          	li	t4,35
 8005200:	01d70463          	beq	a4,t4,8005208 <test_19+0x2c>
 8005204:	6f50c06f          	j	80120f8 <fail>
 8005208:	00120213          	addi	tp,tp,1 # 1 <u_mode_trap_table-0x8000003>
 800520c:	00200293          	li	t0,2
 8005210:	fc521ae3          	bne	tp,t0,80051e4 <test_19+0x8>

0000000008005214 <test_20>:
  TEST_ST_SRC21_BYPASS( 20, 0, 2, lb, sb, 0x22, 2, tdat );
 8005214:	01400193          	li	gp,20
 8005218:	00000213          	li	tp,0
 800521c:	0000e117          	auipc	sp,0xe
 8005220:	e8410113          	addi	sp,sp,-380 # 80130a0 <tdat>
 8005224:	02200093          	li	ra,34
 8005228:	00000013          	nop
 800522c:	00000013          	nop
 8005230:	00110123          	sb	ra,2(sp)
 8005234:	00210703          	lb	a4,2(sp)
 8005238:	02200e93          	li	t4,34
 800523c:	01d70463          	beq	a4,t4,8005244 <test_20+0x30>
 8005240:	6b90c06f          	j	80120f8 <fail>
 8005244:	00120213          	addi	tp,tp,1 # 1 <u_mode_trap_table-0x8000003>
 8005248:	00200293          	li	t0,2
 800524c:	fc5218e3          	bne	tp,t0,800521c <test_20+0x8>

0000000008005250 <test_21>:
  TEST_ST_SRC21_BYPASS( 21, 1, 0, lb, sb, 0x12, 3, tdat );
 8005250:	01500193          	li	gp,21
 8005254:	00000213          	li	tp,0
 8005258:	0000e117          	auipc	sp,0xe
 800525c:	e4810113          	addi	sp,sp,-440 # 80130a0 <tdat>
 8005260:	00000013          	nop
 8005264:	01200093          	li	ra,18
 8005268:	001101a3          	sb	ra,3(sp)
 800526c:	00310703          	lb	a4,3(sp)
 8005270:	01200e93          	li	t4,18
 8005274:	01d70463          	beq	a4,t4,800527c <test_21+0x2c>
 8005278:	6810c06f          	j	80120f8 <fail>
 800527c:	00120213          	addi	tp,tp,1 # 1 <u_mode_trap_table-0x8000003>
 8005280:	00200293          	li	t0,2
 8005284:	fc521ae3          	bne	tp,t0,8005258 <test_21+0x8>

0000000008005288 <test_22>:
  TEST_ST_SRC21_BYPASS( 22, 1, 1, lb, sb, 0x11, 4, tdat );
 8005288:	01600193          	li	gp,22
 800528c:	00000213          	li	tp,0
 8005290:	0000e117          	auipc	sp,0xe
 8005294:	e1010113          	addi	sp,sp,-496 # 80130a0 <tdat>
 8005298:	00000013          	nop
 800529c:	01100093          	li	ra,17
 80052a0:	00000013          	nop
 80052a4:	00110223          	sb	ra,4(sp)
 80052a8:	00410703          	lb	a4,4(sp)
 80052ac:	01100e93          	li	t4,17
 80052b0:	01d70463          	beq	a4,t4,80052b8 <test_22+0x30>
 80052b4:	6450c06f          	j	80120f8 <fail>
 80052b8:	00120213          	addi	tp,tp,1 # 1 <u_mode_trap_table-0x8000003>
 80052bc:	00200293          	li	t0,2
 80052c0:	fc5218e3          	bne	tp,t0,8005290 <test_22+0x8>

00000000080052c4 <test_23>:
  TEST_ST_SRC21_BYPASS( 23, 2, 0, lb, sb, 0x01, 5, tdat );
 80052c4:	01700193          	li	gp,23
 80052c8:	00000213          	li	tp,0
 80052cc:	0000e117          	auipc	sp,0xe
 80052d0:	dd410113          	addi	sp,sp,-556 # 80130a0 <tdat>
 80052d4:	00000013          	nop
 80052d8:	00000013          	nop
 80052dc:	00100093          	li	ra,1
 80052e0:	001102a3          	sb	ra,5(sp)
 80052e4:	00510703          	lb	a4,5(sp)
 80052e8:	00100e93          	li	t4,1
 80052ec:	01d70463          	beq	a4,t4,80052f4 <test_23+0x30>
 80052f0:	6090c06f          	j	80120f8 <fail>
 80052f4:	00120213          	addi	tp,tp,1 # 1 <u_mode_trap_table-0x8000003>
 80052f8:	00200293          	li	t0,2
 80052fc:	fc5218e3          	bne	tp,t0,80052cc <test_23+0x8>

  li a0, 0xef
 8005300:	0ef00513          	li	a0,239
  la a1, tdat
 8005304:	0000e597          	auipc	a1,0xe
 8005308:	d9c58593          	addi	a1,a1,-612 # 80130a0 <tdat>
  sb a0, 3(a1)
 800530c:	00a581a3          	sb	a0,3(a1)

  TEST_PASSFAIL

RVTEST_CODE_END
 8005310:	c0001073          	unimp

0000000008005314 <test_2>:

  #-------------------------------------------------------------
  # Basic tests
  #-------------------------------------------------------------

  TEST_ST_OP( 2, lh, sh, 0x00000000000000aa, 0, tdat );
 8005314:	0000e097          	auipc	ra,0xe
 8005318:	d9c08093          	addi	ra,ra,-612 # 80130b0 <tdat>
 800531c:	0aa00113          	li	sp,170
 8005320:	00209023          	sh	sp,0(ra)
 8005324:	00009703          	lh	a4,0(ra)
 8005328:	0aa00e93          	li	t4,170
 800532c:	00200193          	li	gp,2
 8005330:	01d70463          	beq	a4,t4,8005338 <test_3>
 8005334:	5c50c06f          	j	80120f8 <fail>

0000000008005338 <test_3>:
  TEST_ST_OP( 3, lh, sh, 0xffffffffffffaa00, 2, tdat );
 8005338:	0000e097          	auipc	ra,0xe
 800533c:	d7808093          	addi	ra,ra,-648 # 80130b0 <tdat>
 8005340:	ffffb137          	lui	sp,0xffffb
 8005344:	a001011b          	addiw	sp,sp,-1536
 8005348:	00209123          	sh	sp,2(ra)
 800534c:	00209703          	lh	a4,2(ra)
 8005350:	ffffbeb7          	lui	t4,0xffffb
 8005354:	a00e8e9b          	addiw	t4,t4,-1536
 8005358:	00300193          	li	gp,3
 800535c:	01d70463          	beq	a4,t4,8005364 <test_4>
 8005360:	5990c06f          	j	80120f8 <fail>

0000000008005364 <test_4>:
  TEST_ST_OP( 4, lw, sh, 0xffffffffbeef0aa0, 4, tdat );
 8005364:	0000e097          	auipc	ra,0xe
 8005368:	d4c08093          	addi	ra,ra,-692 # 80130b0 <tdat>
 800536c:	beef1137          	lui	sp,0xbeef1
 8005370:	aa01011b          	addiw	sp,sp,-1376
 8005374:	00209223          	sh	sp,4(ra)
 8005378:	0040a703          	lw	a4,4(ra)
 800537c:	beef1eb7          	lui	t4,0xbeef1
 8005380:	aa0e8e9b          	addiw	t4,t4,-1376
 8005384:	00400193          	li	gp,4
 8005388:	01d70463          	beq	a4,t4,8005390 <test_5>
 800538c:	56d0c06f          	j	80120f8 <fail>

0000000008005390 <test_5>:
  TEST_ST_OP( 5, lh, sh, 0xffffffffffffa00a, 6, tdat );
 8005390:	0000e097          	auipc	ra,0xe
 8005394:	d2008093          	addi	ra,ra,-736 # 80130b0 <tdat>
 8005398:	ffffa137          	lui	sp,0xffffa
 800539c:	00a1011b          	addiw	sp,sp,10
 80053a0:	00209323          	sh	sp,6(ra)
 80053a4:	00609703          	lh	a4,6(ra)
 80053a8:	ffffaeb7          	lui	t4,0xffffa
 80053ac:	00ae8e9b          	addiw	t4,t4,10
 80053b0:	00500193          	li	gp,5
 80053b4:	01d70463          	beq	a4,t4,80053bc <test_6>
 80053b8:	5410c06f          	j	80120f8 <fail>

00000000080053bc <test_6>:

  # Test with negative offset

  TEST_ST_OP( 6, lh, sh, 0x00000000000000aa, -6, tdat8 );
 80053bc:	0000e097          	auipc	ra,0xe
 80053c0:	d0208093          	addi	ra,ra,-766 # 80130be <tdat8>
 80053c4:	0aa00113          	li	sp,170
 80053c8:	fe209d23          	sh	sp,-6(ra)
 80053cc:	ffa09703          	lh	a4,-6(ra)
 80053d0:	0aa00e93          	li	t4,170
 80053d4:	00600193          	li	gp,6
 80053d8:	01d70463          	beq	a4,t4,80053e0 <test_7>
 80053dc:	51d0c06f          	j	80120f8 <fail>

00000000080053e0 <test_7>:
  TEST_ST_OP( 7, lh, sh, 0xffffffffffffaa00, -4, tdat8 );
 80053e0:	0000e097          	auipc	ra,0xe
 80053e4:	cde08093          	addi	ra,ra,-802 # 80130be <tdat8>
 80053e8:	ffffb137          	lui	sp,0xffffb
 80053ec:	a001011b          	addiw	sp,sp,-1536
 80053f0:	fe209e23          	sh	sp,-4(ra)
 80053f4:	ffc09703          	lh	a4,-4(ra)
 80053f8:	ffffbeb7          	lui	t4,0xffffb
 80053fc:	a00e8e9b          	addiw	t4,t4,-1536
 8005400:	00700193          	li	gp,7
 8005404:	01d70463          	beq	a4,t4,800540c <test_8>
 8005408:	4f10c06f          	j	80120f8 <fail>

000000000800540c <test_8>:
  TEST_ST_OP( 8, lh, sh, 0x0000000000000aa0, -2, tdat8 );
 800540c:	0000e097          	auipc	ra,0xe
 8005410:	cb208093          	addi	ra,ra,-846 # 80130be <tdat8>
 8005414:	00001137          	lui	sp,0x1
 8005418:	aa01011b          	addiw	sp,sp,-1376
 800541c:	fe209f23          	sh	sp,-2(ra)
 8005420:	ffe09703          	lh	a4,-2(ra)
 8005424:	00001eb7          	lui	t4,0x1
 8005428:	aa0e8e9b          	addiw	t4,t4,-1376
 800542c:	00800193          	li	gp,8
 8005430:	01d70463          	beq	a4,t4,8005438 <test_9>
 8005434:	4c50c06f          	j	80120f8 <fail>

0000000008005438 <test_9>:
  TEST_ST_OP( 9, lh, sh, 0xffffffffffffa00a, 0,  tdat8 );
 8005438:	0000e097          	auipc	ra,0xe
 800543c:	c8608093          	addi	ra,ra,-890 # 80130be <tdat8>
 8005440:	ffffa137          	lui	sp,0xffffa
 8005444:	00a1011b          	addiw	sp,sp,10
 8005448:	00209023          	sh	sp,0(ra)
 800544c:	00009703          	lh	a4,0(ra)
 8005450:	ffffaeb7          	lui	t4,0xffffa
 8005454:	00ae8e9b          	addiw	t4,t4,10
 8005458:	00900193          	li	gp,9
 800545c:	01d70463          	beq	a4,t4,8005464 <test_10>
 8005460:	4990c06f          	j	80120f8 <fail>

0000000008005464 <test_10>:

  # Test with a negative base

  TEST_CASE( 10, x5, 0x5678, \
 8005464:	0000e097          	auipc	ra,0xe
 8005468:	c5c08093          	addi	ra,ra,-932 # 80130c0 <tdat9>
 800546c:	12345137          	lui	sp,0x12345
 8005470:	6781011b          	addiw	sp,sp,1656
 8005474:	fe008213          	addi	tp,ra,-32
 8005478:	02221023          	sh	sp,32(tp) # 20 <u_mode_trap_table-0x7ffffe4>
 800547c:	00009283          	lh	t0,0(ra)
 8005480:	00005eb7          	lui	t4,0x5
 8005484:	678e8e9b          	addiw	t4,t4,1656
 8005488:	00a00193          	li	gp,10
 800548c:	01d28463          	beq	t0,t4,8005494 <test_11>
 8005490:	4690c06f          	j	80120f8 <fail>

0000000008005494 <test_11>:
    lh x5, 0(x1); \
  )

  # Test with unaligned base

  TEST_CASE( 11, x5, 0x3098, \
 8005494:	0000e097          	auipc	ra,0xe
 8005498:	c2c08093          	addi	ra,ra,-980 # 80130c0 <tdat9>
 800549c:	00003137          	lui	sp,0x3
 80054a0:	0981011b          	addiw	sp,sp,152
 80054a4:	ffb08093          	addi	ra,ra,-5
 80054a8:	002093a3          	sh	sp,7(ra)
 80054ac:	0000e217          	auipc	tp,0xe
 80054b0:	c1620213          	addi	tp,tp,-1002 # 80130c2 <tdat10>
 80054b4:	00021283          	lh	t0,0(tp) # 0 <u_mode_trap_table-0x8000004>
 80054b8:	00003eb7          	lui	t4,0x3
 80054bc:	098e8e9b          	addiw	t4,t4,152
 80054c0:	00b00193          	li	gp,11
 80054c4:	01d28463          	beq	t0,t4,80054cc <test_12>
 80054c8:	4310c06f          	j	80120f8 <fail>

00000000080054cc <test_12>:

  #-------------------------------------------------------------
  # Bypassing tests
  #-------------------------------------------------------------

  TEST_ST_SRC12_BYPASS( 12, 0, 0, lh, sh, 0xffffffffffffccdd, 0,  tdat );
 80054cc:	00c00193          	li	gp,12
 80054d0:	00000213          	li	tp,0
 80054d4:	ffffd0b7          	lui	ra,0xffffd
 80054d8:	cdd0809b          	addiw	ra,ra,-803
 80054dc:	0000e117          	auipc	sp,0xe
 80054e0:	bd410113          	addi	sp,sp,-1068 # 80130b0 <tdat>
 80054e4:	00111023          	sh	ra,0(sp)
 80054e8:	00011703          	lh	a4,0(sp)
 80054ec:	ffffdeb7          	lui	t4,0xffffd
 80054f0:	cdde8e9b          	addiw	t4,t4,-803
 80054f4:	01d70463          	beq	a4,t4,80054fc <test_12+0x30>
 80054f8:	4010c06f          	j	80120f8 <fail>
 80054fc:	00120213          	addi	tp,tp,1 # 1 <u_mode_trap_table-0x8000003>
 8005500:	00200293          	li	t0,2
 8005504:	fc5218e3          	bne	tp,t0,80054d4 <test_12+0x8>

0000000008005508 <test_13>:
  TEST_ST_SRC12_BYPASS( 13, 0, 1, lh, sh, 0xffffffffffffbccd, 2,  tdat );
 8005508:	00d00193          	li	gp,13
 800550c:	00000213          	li	tp,0
 8005510:	ffffc0b7          	lui	ra,0xffffc
 8005514:	ccd0809b          	addiw	ra,ra,-819
 8005518:	0000e117          	auipc	sp,0xe
 800551c:	b9810113          	addi	sp,sp,-1128 # 80130b0 <tdat>
 8005520:	00000013          	nop
 8005524:	00111123          	sh	ra,2(sp)
 8005528:	00211703          	lh	a4,2(sp)
 800552c:	ffffceb7          	lui	t4,0xffffc
 8005530:	ccde8e9b          	addiw	t4,t4,-819
 8005534:	01d70463          	beq	a4,t4,800553c <test_13+0x34>
 8005538:	3c10c06f          	j	80120f8 <fail>
 800553c:	00120213          	addi	tp,tp,1 # 1 <u_mode_trap_table-0x8000003>
 8005540:	00200293          	li	t0,2
 8005544:	fc5216e3          	bne	tp,t0,8005510 <test_13+0x8>

0000000008005548 <test_14>:
  TEST_ST_SRC12_BYPASS( 14, 0, 2, lh, sh, 0xffffffffffffbbcc, 4,  tdat );
 8005548:	00e00193          	li	gp,14
 800554c:	00000213          	li	tp,0
 8005550:	ffffc0b7          	lui	ra,0xffffc
 8005554:	bcc0809b          	addiw	ra,ra,-1076
 8005558:	0000e117          	auipc	sp,0xe
 800555c:	b5810113          	addi	sp,sp,-1192 # 80130b0 <tdat>
 8005560:	00000013          	nop
 8005564:	00000013          	nop
 8005568:	00111223          	sh	ra,4(sp)
 800556c:	00411703          	lh	a4,4(sp)
 8005570:	ffffceb7          	lui	t4,0xffffc
 8005574:	bcce8e9b          	addiw	t4,t4,-1076
 8005578:	01d70463          	beq	a4,t4,8005580 <test_14+0x38>
 800557c:	37d0c06f          	j	80120f8 <fail>
 8005580:	00120213          	addi	tp,tp,1 # 1 <u_mode_trap_table-0x8000003>
 8005584:	00200293          	li	t0,2
 8005588:	fc5214e3          	bne	tp,t0,8005550 <test_14+0x8>

000000000800558c <test_15>:
  TEST_ST_SRC12_BYPASS( 15, 1, 0, lh, sh, 0xffffffffffffabbc, 6, tdat );
 800558c:	00f00193          	li	gp,15
 8005590:	00000213          	li	tp,0
 8005594:	ffffb0b7          	lui	ra,0xffffb
 8005598:	bbc0809b          	addiw	ra,ra,-1092
 800559c:	00000013          	nop
 80055a0:	0000e117          	auipc	sp,0xe
 80055a4:	b1010113          	addi	sp,sp,-1264 # 80130b0 <tdat>
 80055a8:	00111323          	sh	ra,6(sp)
 80055ac:	00611703          	lh	a4,6(sp)
 80055b0:	ffffbeb7          	lui	t4,0xffffb
 80055b4:	bbce8e9b          	addiw	t4,t4,-1092
 80055b8:	01d70463          	beq	a4,t4,80055c0 <test_15+0x34>
 80055bc:	33d0c06f          	j	80120f8 <fail>
 80055c0:	00120213          	addi	tp,tp,1 # 1 <u_mode_trap_table-0x8000003>
 80055c4:	00200293          	li	t0,2
 80055c8:	fc5216e3          	bne	tp,t0,8005594 <test_15+0x8>

00000000080055cc <test_16>:
  TEST_ST_SRC12_BYPASS( 16, 1, 1, lh, sh, 0xffffffffffffaabb, 8, tdat );
 80055cc:	01000193          	li	gp,16
 80055d0:	00000213          	li	tp,0
 80055d4:	ffffb0b7          	lui	ra,0xffffb
 80055d8:	abb0809b          	addiw	ra,ra,-1349
 80055dc:	00000013          	nop
 80055e0:	0000e117          	auipc	sp,0xe
 80055e4:	ad010113          	addi	sp,sp,-1328 # 80130b0 <tdat>
 80055e8:	00000013          	nop
 80055ec:	00111423          	sh	ra,8(sp)
 80055f0:	00811703          	lh	a4,8(sp)
 80055f4:	ffffbeb7          	lui	t4,0xffffb
 80055f8:	abbe8e9b          	addiw	t4,t4,-1349
 80055fc:	01d70463          	beq	a4,t4,8005604 <test_16+0x38>
 8005600:	2f90c06f          	j	80120f8 <fail>
 8005604:	00120213          	addi	tp,tp,1 # 1 <u_mode_trap_table-0x8000003>
 8005608:	00200293          	li	t0,2
 800560c:	fc5214e3          	bne	tp,t0,80055d4 <test_16+0x8>

0000000008005610 <test_17>:
  TEST_ST_SRC12_BYPASS( 17, 2, 0, lh, sh, 0xffffffffffffdaab, 10, tdat );
 8005610:	01100193          	li	gp,17
 8005614:	00000213          	li	tp,0
 8005618:	ffffe0b7          	lui	ra,0xffffe
 800561c:	aab0809b          	addiw	ra,ra,-1365
 8005620:	00000013          	nop
 8005624:	00000013          	nop
 8005628:	0000e117          	auipc	sp,0xe
 800562c:	a8810113          	addi	sp,sp,-1400 # 80130b0 <tdat>
 8005630:	00111523          	sh	ra,10(sp)
 8005634:	00a11703          	lh	a4,10(sp)
 8005638:	ffffeeb7          	lui	t4,0xffffe
 800563c:	aabe8e9b          	addiw	t4,t4,-1365
 8005640:	01d70463          	beq	a4,t4,8005648 <test_17+0x38>
 8005644:	2b50c06f          	j	80120f8 <fail>
 8005648:	00120213          	addi	tp,tp,1 # 1 <u_mode_trap_table-0x8000003>
 800564c:	00200293          	li	t0,2
 8005650:	fc5214e3          	bne	tp,t0,8005618 <test_17+0x8>

0000000008005654 <test_18>:

  TEST_ST_SRC21_BYPASS( 18, 0, 0, lh, sh, 0x2233, 0,  tdat );
 8005654:	01200193          	li	gp,18
 8005658:	00000213          	li	tp,0
 800565c:	0000e117          	auipc	sp,0xe
 8005660:	a5410113          	addi	sp,sp,-1452 # 80130b0 <tdat>
 8005664:	000020b7          	lui	ra,0x2
 8005668:	2330809b          	addiw	ra,ra,563
 800566c:	00111023          	sh	ra,0(sp)
 8005670:	00011703          	lh	a4,0(sp)
 8005674:	00002eb7          	lui	t4,0x2
 8005678:	233e8e9b          	addiw	t4,t4,563
 800567c:	01d70463          	beq	a4,t4,8005684 <test_18+0x30>
 8005680:	2790c06f          	j	80120f8 <fail>
 8005684:	00120213          	addi	tp,tp,1 # 1 <u_mode_trap_table-0x8000003>
 8005688:	00200293          	li	t0,2
 800568c:	fc5218e3          	bne	tp,t0,800565c <test_18+0x8>

0000000008005690 <test_19>:
  TEST_ST_SRC21_BYPASS( 19, 0, 1, lh, sh, 0x1223, 2,  tdat );
 8005690:	01300193          	li	gp,19
 8005694:	00000213          	li	tp,0
 8005698:	0000e117          	auipc	sp,0xe
 800569c:	a1810113          	addi	sp,sp,-1512 # 80130b0 <tdat>
 80056a0:	000010b7          	lui	ra,0x1
 80056a4:	2230809b          	addiw	ra,ra,547
 80056a8:	00000013          	nop
 80056ac:	00111123          	sh	ra,2(sp)
 80056b0:	00211703          	lh	a4,2(sp)
 80056b4:	00001eb7          	lui	t4,0x1
 80056b8:	223e8e9b          	addiw	t4,t4,547
 80056bc:	01d70463          	beq	a4,t4,80056c4 <test_19+0x34>
 80056c0:	2390c06f          	j	80120f8 <fail>
 80056c4:	00120213          	addi	tp,tp,1 # 1 <u_mode_trap_table-0x8000003>
 80056c8:	00200293          	li	t0,2
 80056cc:	fc5216e3          	bne	tp,t0,8005698 <test_19+0x8>

00000000080056d0 <test_20>:
  TEST_ST_SRC21_BYPASS( 20, 0, 2, lh, sh, 0x1122, 4,  tdat );
 80056d0:	01400193          	li	gp,20
 80056d4:	00000213          	li	tp,0
 80056d8:	0000e117          	auipc	sp,0xe
 80056dc:	9d810113          	addi	sp,sp,-1576 # 80130b0 <tdat>
 80056e0:	000010b7          	lui	ra,0x1
 80056e4:	1220809b          	addiw	ra,ra,290
 80056e8:	00000013          	nop
 80056ec:	00000013          	nop
 80056f0:	00111223          	sh	ra,4(sp)
 80056f4:	00411703          	lh	a4,4(sp)
 80056f8:	00001eb7          	lui	t4,0x1
 80056fc:	122e8e9b          	addiw	t4,t4,290
 8005700:	01d70463          	beq	a4,t4,8005708 <test_20+0x38>
 8005704:	1f50c06f          	j	80120f8 <fail>
 8005708:	00120213          	addi	tp,tp,1 # 1 <u_mode_trap_table-0x8000003>
 800570c:	00200293          	li	t0,2
 8005710:	fc5214e3          	bne	tp,t0,80056d8 <test_20+0x8>

0000000008005714 <test_21>:
  TEST_ST_SRC21_BYPASS( 21, 1, 0, lh, sh, 0x0112, 6, tdat );
 8005714:	01500193          	li	gp,21
 8005718:	00000213          	li	tp,0
 800571c:	0000e117          	auipc	sp,0xe
 8005720:	99410113          	addi	sp,sp,-1644 # 80130b0 <tdat>
 8005724:	00000013          	nop
 8005728:	11200093          	li	ra,274
 800572c:	00111323          	sh	ra,6(sp)
 8005730:	00611703          	lh	a4,6(sp)
 8005734:	11200e93          	li	t4,274
 8005738:	01d70463          	beq	a4,t4,8005740 <test_21+0x2c>
 800573c:	1bd0c06f          	j	80120f8 <fail>
 8005740:	00120213          	addi	tp,tp,1 # 1 <u_mode_trap_table-0x8000003>
 8005744:	00200293          	li	t0,2
 8005748:	fc521ae3          	bne	tp,t0,800571c <test_21+0x8>

000000000800574c <test_22>:
  TEST_ST_SRC21_BYPASS( 22, 1, 1, lh, sh, 0x0011, 8, tdat );
 800574c:	01600193          	li	gp,22
 8005750:	00000213          	li	tp,0
 8005754:	0000e117          	auipc	sp,0xe
 8005758:	95c10113          	addi	sp,sp,-1700 # 80130b0 <tdat>
 800575c:	00000013          	nop
 8005760:	01100093          	li	ra,17
 8005764:	00000013          	nop
 8005768:	00111423          	sh	ra,8(sp)
 800576c:	00811703          	lh	a4,8(sp)
 8005770:	01100e93          	li	t4,17
 8005774:	01d70463          	beq	a4,t4,800577c <test_22+0x30>
 8005778:	1810c06f          	j	80120f8 <fail>
 800577c:	00120213          	addi	tp,tp,1 # 1 <u_mode_trap_table-0x8000003>
 8005780:	00200293          	li	t0,2
 8005784:	fc5218e3          	bne	tp,t0,8005754 <test_22+0x8>

0000000008005788 <test_23>:
  TEST_ST_SRC21_BYPASS( 23, 2, 0, lh, sh, 0x3001, 10, tdat );
 8005788:	01700193          	li	gp,23
 800578c:	00000213          	li	tp,0
 8005790:	0000e117          	auipc	sp,0xe
 8005794:	92010113          	addi	sp,sp,-1760 # 80130b0 <tdat>
 8005798:	00000013          	nop
 800579c:	00000013          	nop
 80057a0:	000030b7          	lui	ra,0x3
 80057a4:	0010809b          	addiw	ra,ra,1
 80057a8:	00111523          	sh	ra,10(sp)
 80057ac:	00a11703          	lh	a4,10(sp)
 80057b0:	00003eb7          	lui	t4,0x3
 80057b4:	001e8e9b          	addiw	t4,t4,1
 80057b8:	01d70463          	beq	a4,t4,80057c0 <test_23+0x38>
 80057bc:	13d0c06f          	j	80120f8 <fail>
 80057c0:	00120213          	addi	tp,tp,1 # 1 <u_mode_trap_table-0x8000003>
 80057c4:	00200293          	li	t0,2
 80057c8:	fc5214e3          	bne	tp,t0,8005790 <test_23+0x8>

  li a0, 0xbeef
 80057cc:	0000c537          	lui	a0,0xc
 80057d0:	eef5051b          	addiw	a0,a0,-273
  la a1, tdat
 80057d4:	0000e597          	auipc	a1,0xe
 80057d8:	8dc58593          	addi	a1,a1,-1828 # 80130b0 <tdat>
  sh a0, 6(a1)
 80057dc:	00a59323          	sh	a0,6(a1)

  TEST_PASSFAIL

RVTEST_CODE_END
 80057e0:	c0001073          	unimp

00000000080057e4 <test_2>:

  #-------------------------------------------------------------
  # Basic tests
  #-------------------------------------------------------------

  TEST_ST_OP( 2, lw, sw, 0x0000000000aa00aa, 0,  tdat );
 80057e4:	0000e097          	auipc	ra,0xe
 80057e8:	8ec08093          	addi	ra,ra,-1812 # 80130d0 <tdat>
 80057ec:	00aa0137          	lui	sp,0xaa0
 80057f0:	0aa1011b          	addiw	sp,sp,170
 80057f4:	0020a023          	sw	sp,0(ra)
 80057f8:	0000a703          	lw	a4,0(ra)
 80057fc:	00aa0eb7          	lui	t4,0xaa0
 8005800:	0aae8e9b          	addiw	t4,t4,170
 8005804:	00200193          	li	gp,2
 8005808:	01d70463          	beq	a4,t4,8005810 <test_3>
 800580c:	0ed0c06f          	j	80120f8 <fail>

0000000008005810 <test_3>:
  TEST_ST_OP( 3, lw, sw, 0xffffffffaa00aa00, 4,  tdat );
 8005810:	0000e097          	auipc	ra,0xe
 8005814:	8c008093          	addi	ra,ra,-1856 # 80130d0 <tdat>
 8005818:	aa00b137          	lui	sp,0xaa00b
 800581c:	a001011b          	addiw	sp,sp,-1536
 8005820:	0020a223          	sw	sp,4(ra)
 8005824:	0040a703          	lw	a4,4(ra)
 8005828:	aa00beb7          	lui	t4,0xaa00b
 800582c:	a00e8e9b          	addiw	t4,t4,-1536
 8005830:	00300193          	li	gp,3
 8005834:	01d70463          	beq	a4,t4,800583c <test_4>
 8005838:	0c10c06f          	j	80120f8 <fail>

000000000800583c <test_4>:
  TEST_ST_OP( 4, lw, sw, 0x000000000aa00aa0, 8,  tdat );
 800583c:	0000e097          	auipc	ra,0xe
 8005840:	89408093          	addi	ra,ra,-1900 # 80130d0 <tdat>
 8005844:	0aa01137          	lui	sp,0xaa01
 8005848:	aa01011b          	addiw	sp,sp,-1376
 800584c:	0020a423          	sw	sp,8(ra)
 8005850:	0080a703          	lw	a4,8(ra)
 8005854:	0aa01eb7          	lui	t4,0xaa01
 8005858:	aa0e8e9b          	addiw	t4,t4,-1376
 800585c:	00400193          	li	gp,4
 8005860:	01d70463          	beq	a4,t4,8005868 <test_5>
 8005864:	0950c06f          	j	80120f8 <fail>

0000000008005868 <test_5>:
  TEST_ST_OP( 5, lw, sw, 0xffffffffa00aa00a, 12, tdat );
 8005868:	0000e097          	auipc	ra,0xe
 800586c:	86808093          	addi	ra,ra,-1944 # 80130d0 <tdat>
 8005870:	a00aa137          	lui	sp,0xa00aa
 8005874:	00a1011b          	addiw	sp,sp,10
 8005878:	0020a623          	sw	sp,12(ra)
 800587c:	00c0a703          	lw	a4,12(ra)
 8005880:	a00aaeb7          	lui	t4,0xa00aa
 8005884:	00ae8e9b          	addiw	t4,t4,10
 8005888:	00500193          	li	gp,5
 800588c:	01d70463          	beq	a4,t4,8005894 <test_6>
 8005890:	0690c06f          	j	80120f8 <fail>

0000000008005894 <test_6>:

  # Test with negative offset

  TEST_ST_OP( 6, lw, sw, 0x0000000000aa00aa, -12, tdat8 );
 8005894:	0000e097          	auipc	ra,0xe
 8005898:	85808093          	addi	ra,ra,-1960 # 80130ec <tdat8>
 800589c:	00aa0137          	lui	sp,0xaa0
 80058a0:	0aa1011b          	addiw	sp,sp,170
 80058a4:	fe20aa23          	sw	sp,-12(ra)
 80058a8:	ff40a703          	lw	a4,-12(ra)
 80058ac:	00aa0eb7          	lui	t4,0xaa0
 80058b0:	0aae8e9b          	addiw	t4,t4,170
 80058b4:	00600193          	li	gp,6
 80058b8:	01d70463          	beq	a4,t4,80058c0 <test_7>
 80058bc:	03d0c06f          	j	80120f8 <fail>

00000000080058c0 <test_7>:
  TEST_ST_OP( 7, lw, sw, 0xffffffffaa00aa00, -8,  tdat8 );
 80058c0:	0000e097          	auipc	ra,0xe
 80058c4:	82c08093          	addi	ra,ra,-2004 # 80130ec <tdat8>
 80058c8:	aa00b137          	lui	sp,0xaa00b
 80058cc:	a001011b          	addiw	sp,sp,-1536
 80058d0:	fe20ac23          	sw	sp,-8(ra)
 80058d4:	ff80a703          	lw	a4,-8(ra)
 80058d8:	aa00beb7          	lui	t4,0xaa00b
 80058dc:	a00e8e9b          	addiw	t4,t4,-1536
 80058e0:	00700193          	li	gp,7
 80058e4:	01d70463          	beq	a4,t4,80058ec <test_8>
 80058e8:	0110c06f          	j	80120f8 <fail>

00000000080058ec <test_8>:
  TEST_ST_OP( 8, lw, sw, 0x000000000aa00aa0, -4,  tdat8 );
 80058ec:	0000e097          	auipc	ra,0xe
 80058f0:	80008093          	addi	ra,ra,-2048 # 80130ec <tdat8>
 80058f4:	0aa01137          	lui	sp,0xaa01
 80058f8:	aa01011b          	addiw	sp,sp,-1376
 80058fc:	fe20ae23          	sw	sp,-4(ra)
 8005900:	ffc0a703          	lw	a4,-4(ra)
 8005904:	0aa01eb7          	lui	t4,0xaa01
 8005908:	aa0e8e9b          	addiw	t4,t4,-1376
 800590c:	00800193          	li	gp,8
 8005910:	01d70463          	beq	a4,t4,8005918 <test_9>
 8005914:	7e40c06f          	j	80120f8 <fail>

0000000008005918 <test_9>:
  TEST_ST_OP( 9, lw, sw, 0xffffffffa00aa00a, 0,   tdat8 );
 8005918:	0000d097          	auipc	ra,0xd
 800591c:	7d408093          	addi	ra,ra,2004 # 80130ec <tdat8>
 8005920:	a00aa137          	lui	sp,0xa00aa
 8005924:	00a1011b          	addiw	sp,sp,10
 8005928:	0020a023          	sw	sp,0(ra)
 800592c:	0000a703          	lw	a4,0(ra)
 8005930:	a00aaeb7          	lui	t4,0xa00aa
 8005934:	00ae8e9b          	addiw	t4,t4,10
 8005938:	00900193          	li	gp,9
 800593c:	01d70463          	beq	a4,t4,8005944 <test_10>
 8005940:	7b80c06f          	j	80120f8 <fail>

0000000008005944 <test_10>:

  # Test with a negative base

  TEST_CASE( 10, x5, 0x12345678, \
 8005944:	0000d097          	auipc	ra,0xd
 8005948:	7ac08093          	addi	ra,ra,1964 # 80130f0 <tdat9>
 800594c:	12345137          	lui	sp,0x12345
 8005950:	6781011b          	addiw	sp,sp,1656
 8005954:	fe008213          	addi	tp,ra,-32
 8005958:	02222023          	sw	sp,32(tp) # 20 <u_mode_trap_table-0x7ffffe4>
 800595c:	0000a283          	lw	t0,0(ra)
 8005960:	12345eb7          	lui	t4,0x12345
 8005964:	678e8e9b          	addiw	t4,t4,1656
 8005968:	00a00193          	li	gp,10
 800596c:	01d28463          	beq	t0,t4,8005974 <test_11>
 8005970:	7880c06f          	j	80120f8 <fail>

0000000008005974 <test_11>:
    lw x5, 0(x1); \
  )

  # Test with unaligned base

  TEST_CASE( 11, x5, 0x58213098, \
 8005974:	0000d097          	auipc	ra,0xd
 8005978:	77c08093          	addi	ra,ra,1916 # 80130f0 <tdat9>
 800597c:	58213137          	lui	sp,0x58213
 8005980:	0981011b          	addiw	sp,sp,152
 8005984:	ffd08093          	addi	ra,ra,-3
 8005988:	0020a3a3          	sw	sp,7(ra)
 800598c:	0000d217          	auipc	tp,0xd
 8005990:	76820213          	addi	tp,tp,1896 # 80130f4 <tdat10>
 8005994:	00022283          	lw	t0,0(tp) # 0 <u_mode_trap_table-0x8000004>
 8005998:	58213eb7          	lui	t4,0x58213
 800599c:	098e8e9b          	addiw	t4,t4,152
 80059a0:	00b00193          	li	gp,11
 80059a4:	01d28463          	beq	t0,t4,80059ac <test_12>
 80059a8:	7500c06f          	j	80120f8 <fail>

00000000080059ac <test_12>:

  #-------------------------------------------------------------
  # Bypassing tests
  #-------------------------------------------------------------

  TEST_ST_SRC12_BYPASS( 12, 0, 0, lw, sw, 0xffffffffaabbccdd, 0,  tdat );
 80059ac:	00c00193          	li	gp,12
 80059b0:	00000213          	li	tp,0
 80059b4:	aabbd0b7          	lui	ra,0xaabbd
 80059b8:	cdd0809b          	addiw	ra,ra,-803
 80059bc:	0000d117          	auipc	sp,0xd
 80059c0:	71410113          	addi	sp,sp,1812 # 80130d0 <tdat>
 80059c4:	00112023          	sw	ra,0(sp)
 80059c8:	00012703          	lw	a4,0(sp)
 80059cc:	aabbdeb7          	lui	t4,0xaabbd
 80059d0:	cdde8e9b          	addiw	t4,t4,-803
 80059d4:	01d70463          	beq	a4,t4,80059dc <test_12+0x30>
 80059d8:	7200c06f          	j	80120f8 <fail>
 80059dc:	00120213          	addi	tp,tp,1 # 1 <u_mode_trap_table-0x8000003>
 80059e0:	00200293          	li	t0,2
 80059e4:	fc5218e3          	bne	tp,t0,80059b4 <test_12+0x8>

00000000080059e8 <test_13>:
  TEST_ST_SRC12_BYPASS( 13, 0, 1, lw, sw, 0xffffffffdaabbccd, 4,  tdat );
 80059e8:	00d00193          	li	gp,13
 80059ec:	00000213          	li	tp,0
 80059f0:	daabc0b7          	lui	ra,0xdaabc
 80059f4:	ccd0809b          	addiw	ra,ra,-819
 80059f8:	0000d117          	auipc	sp,0xd
 80059fc:	6d810113          	addi	sp,sp,1752 # 80130d0 <tdat>
 8005a00:	00000013          	nop
 8005a04:	00112223          	sw	ra,4(sp)
 8005a08:	00412703          	lw	a4,4(sp)
 8005a0c:	daabceb7          	lui	t4,0xdaabc
 8005a10:	ccde8e9b          	addiw	t4,t4,-819
 8005a14:	01d70463          	beq	a4,t4,8005a1c <test_13+0x34>
 8005a18:	6e00c06f          	j	80120f8 <fail>
 8005a1c:	00120213          	addi	tp,tp,1 # 1 <u_mode_trap_table-0x8000003>
 8005a20:	00200293          	li	t0,2
 8005a24:	fc5216e3          	bne	tp,t0,80059f0 <test_13+0x8>

0000000008005a28 <test_14>:
  TEST_ST_SRC12_BYPASS( 14, 0, 2, lw, sw, 0xffffffffddaabbcc, 8,  tdat );
 8005a28:	00e00193          	li	gp,14
 8005a2c:	00000213          	li	tp,0
 8005a30:	ddaac0b7          	lui	ra,0xddaac
 8005a34:	bcc0809b          	addiw	ra,ra,-1076
 8005a38:	0000d117          	auipc	sp,0xd
 8005a3c:	69810113          	addi	sp,sp,1688 # 80130d0 <tdat>
 8005a40:	00000013          	nop
 8005a44:	00000013          	nop
 8005a48:	00112423          	sw	ra,8(sp)
 8005a4c:	00812703          	lw	a4,8(sp)
 8005a50:	ddaaceb7          	lui	t4,0xddaac
 8005a54:	bcce8e9b          	addiw	t4,t4,-1076
 8005a58:	01d70463          	beq	a4,t4,8005a60 <test_14+0x38>
 8005a5c:	69c0c06f          	j	80120f8 <fail>
 8005a60:	00120213          	addi	tp,tp,1 # 1 <u_mode_trap_table-0x8000003>
 8005a64:	00200293          	li	t0,2
 8005a68:	fc5214e3          	bne	tp,t0,8005a30 <test_14+0x8>

0000000008005a6c <test_15>:
  TEST_ST_SRC12_BYPASS( 15, 1, 0, lw, sw, 0xffffffffcddaabbc, 12, tdat );
 8005a6c:	00f00193          	li	gp,15
 8005a70:	00000213          	li	tp,0
 8005a74:	cddab0b7          	lui	ra,0xcddab
 8005a78:	bbc0809b          	addiw	ra,ra,-1092
 8005a7c:	00000013          	nop
 8005a80:	0000d117          	auipc	sp,0xd
 8005a84:	65010113          	addi	sp,sp,1616 # 80130d0 <tdat>
 8005a88:	00112623          	sw	ra,12(sp)
 8005a8c:	00c12703          	lw	a4,12(sp)
 8005a90:	cddabeb7          	lui	t4,0xcddab
 8005a94:	bbce8e9b          	addiw	t4,t4,-1092
 8005a98:	01d70463          	beq	a4,t4,8005aa0 <test_15+0x34>
 8005a9c:	65c0c06f          	j	80120f8 <fail>
 8005aa0:	00120213          	addi	tp,tp,1 # 1 <u_mode_trap_table-0x8000003>
 8005aa4:	00200293          	li	t0,2
 8005aa8:	fc5216e3          	bne	tp,t0,8005a74 <test_15+0x8>

0000000008005aac <test_16>:
  TEST_ST_SRC12_BYPASS( 16, 1, 1, lw, sw, 0xffffffffccddaabb, 16, tdat );
 8005aac:	01000193          	li	gp,16
 8005ab0:	00000213          	li	tp,0
 8005ab4:	ccddb0b7          	lui	ra,0xccddb
 8005ab8:	abb0809b          	addiw	ra,ra,-1349
 8005abc:	00000013          	nop
 8005ac0:	0000d117          	auipc	sp,0xd
 8005ac4:	61010113          	addi	sp,sp,1552 # 80130d0 <tdat>
 8005ac8:	00000013          	nop
 8005acc:	00112823          	sw	ra,16(sp)
 8005ad0:	01012703          	lw	a4,16(sp)
 8005ad4:	ccddbeb7          	lui	t4,0xccddb
 8005ad8:	abbe8e9b          	addiw	t4,t4,-1349
 8005adc:	01d70463          	beq	a4,t4,8005ae4 <test_16+0x38>
 8005ae0:	6180c06f          	j	80120f8 <fail>
 8005ae4:	00120213          	addi	tp,tp,1 # 1 <u_mode_trap_table-0x8000003>
 8005ae8:	00200293          	li	t0,2
 8005aec:	fc5214e3          	bne	tp,t0,8005ab4 <test_16+0x8>

0000000008005af0 <test_17>:
  TEST_ST_SRC12_BYPASS( 17, 2, 0, lw, sw, 0xffffffffbccddaab, 20, tdat );
 8005af0:	01100193          	li	gp,17
 8005af4:	00000213          	li	tp,0
 8005af8:	bccde0b7          	lui	ra,0xbccde
 8005afc:	aab0809b          	addiw	ra,ra,-1365
 8005b00:	00000013          	nop
 8005b04:	00000013          	nop
 8005b08:	0000d117          	auipc	sp,0xd
 8005b0c:	5c810113          	addi	sp,sp,1480 # 80130d0 <tdat>
 8005b10:	00112a23          	sw	ra,20(sp)
 8005b14:	01412703          	lw	a4,20(sp)
 8005b18:	bccdeeb7          	lui	t4,0xbccde
 8005b1c:	aabe8e9b          	addiw	t4,t4,-1365
 8005b20:	01d70463          	beq	a4,t4,8005b28 <test_17+0x38>
 8005b24:	5d40c06f          	j	80120f8 <fail>
 8005b28:	00120213          	addi	tp,tp,1 # 1 <u_mode_trap_table-0x8000003>
 8005b2c:	00200293          	li	t0,2
 8005b30:	fc5214e3          	bne	tp,t0,8005af8 <test_17+0x8>

0000000008005b34 <test_18>:

  TEST_ST_SRC21_BYPASS( 18, 0, 0, lw, sw, 0x00112233, 0,  tdat );
 8005b34:	01200193          	li	gp,18
 8005b38:	00000213          	li	tp,0
 8005b3c:	0000d117          	auipc	sp,0xd
 8005b40:	59410113          	addi	sp,sp,1428 # 80130d0 <tdat>
 8005b44:	001120b7          	lui	ra,0x112
 8005b48:	2330809b          	addiw	ra,ra,563
 8005b4c:	00112023          	sw	ra,0(sp)
 8005b50:	00012703          	lw	a4,0(sp)
 8005b54:	00112eb7          	lui	t4,0x112
 8005b58:	233e8e9b          	addiw	t4,t4,563
 8005b5c:	01d70463          	beq	a4,t4,8005b64 <test_18+0x30>
 8005b60:	5980c06f          	j	80120f8 <fail>
 8005b64:	00120213          	addi	tp,tp,1 # 1 <u_mode_trap_table-0x8000003>
 8005b68:	00200293          	li	t0,2
 8005b6c:	fc5218e3          	bne	tp,t0,8005b3c <test_18+0x8>

0000000008005b70 <test_19>:
  TEST_ST_SRC21_BYPASS( 19, 0, 1, lw, sw, 0x30011223, 4,  tdat );
 8005b70:	01300193          	li	gp,19
 8005b74:	00000213          	li	tp,0
 8005b78:	0000d117          	auipc	sp,0xd
 8005b7c:	55810113          	addi	sp,sp,1368 # 80130d0 <tdat>
 8005b80:	300110b7          	lui	ra,0x30011
 8005b84:	2230809b          	addiw	ra,ra,547
 8005b88:	00000013          	nop
 8005b8c:	00112223          	sw	ra,4(sp)
 8005b90:	00412703          	lw	a4,4(sp)
 8005b94:	30011eb7          	lui	t4,0x30011
 8005b98:	223e8e9b          	addiw	t4,t4,547
 8005b9c:	01d70463          	beq	a4,t4,8005ba4 <test_19+0x34>
 8005ba0:	5580c06f          	j	80120f8 <fail>
 8005ba4:	00120213          	addi	tp,tp,1 # 1 <u_mode_trap_table-0x8000003>
 8005ba8:	00200293          	li	t0,2
 8005bac:	fc5216e3          	bne	tp,t0,8005b78 <test_19+0x8>

0000000008005bb0 <test_20>:
  TEST_ST_SRC21_BYPASS( 20, 0, 2, lw, sw, 0x33001122, 8,  tdat );
 8005bb0:	01400193          	li	gp,20
 8005bb4:	00000213          	li	tp,0
 8005bb8:	0000d117          	auipc	sp,0xd
 8005bbc:	51810113          	addi	sp,sp,1304 # 80130d0 <tdat>
 8005bc0:	330010b7          	lui	ra,0x33001
 8005bc4:	1220809b          	addiw	ra,ra,290
 8005bc8:	00000013          	nop
 8005bcc:	00000013          	nop
 8005bd0:	00112423          	sw	ra,8(sp)
 8005bd4:	00812703          	lw	a4,8(sp)
 8005bd8:	33001eb7          	lui	t4,0x33001
 8005bdc:	122e8e9b          	addiw	t4,t4,290
 8005be0:	01d70463          	beq	a4,t4,8005be8 <test_20+0x38>
 8005be4:	5140c06f          	j	80120f8 <fail>
 8005be8:	00120213          	addi	tp,tp,1 # 1 <u_mode_trap_table-0x8000003>
 8005bec:	00200293          	li	t0,2
 8005bf0:	fc5214e3          	bne	tp,t0,8005bb8 <test_20+0x8>

0000000008005bf4 <test_21>:
  TEST_ST_SRC21_BYPASS( 21, 1, 0, lw, sw, 0x23300112, 12, tdat );
 8005bf4:	01500193          	li	gp,21
 8005bf8:	00000213          	li	tp,0
 8005bfc:	0000d117          	auipc	sp,0xd
 8005c00:	4d410113          	addi	sp,sp,1236 # 80130d0 <tdat>
 8005c04:	00000013          	nop
 8005c08:	233000b7          	lui	ra,0x23300
 8005c0c:	1120809b          	addiw	ra,ra,274
 8005c10:	00112623          	sw	ra,12(sp)
 8005c14:	00c12703          	lw	a4,12(sp)
 8005c18:	23300eb7          	lui	t4,0x23300
 8005c1c:	112e8e9b          	addiw	t4,t4,274
 8005c20:	01d70463          	beq	a4,t4,8005c28 <test_21+0x34>
 8005c24:	4d40c06f          	j	80120f8 <fail>
 8005c28:	00120213          	addi	tp,tp,1 # 1 <u_mode_trap_table-0x8000003>
 8005c2c:	00200293          	li	t0,2
 8005c30:	fc5216e3          	bne	tp,t0,8005bfc <test_21+0x8>

0000000008005c34 <test_22>:
  TEST_ST_SRC21_BYPASS( 22, 1, 1, lw, sw, 0x22330011, 16, tdat );
 8005c34:	01600193          	li	gp,22
 8005c38:	00000213          	li	tp,0
 8005c3c:	0000d117          	auipc	sp,0xd
 8005c40:	49410113          	addi	sp,sp,1172 # 80130d0 <tdat>
 8005c44:	00000013          	nop
 8005c48:	223300b7          	lui	ra,0x22330
 8005c4c:	0110809b          	addiw	ra,ra,17
 8005c50:	00000013          	nop
 8005c54:	00112823          	sw	ra,16(sp)
 8005c58:	01012703          	lw	a4,16(sp)
 8005c5c:	22330eb7          	lui	t4,0x22330
 8005c60:	011e8e9b          	addiw	t4,t4,17
 8005c64:	01d70463          	beq	a4,t4,8005c6c <test_22+0x38>
 8005c68:	4900c06f          	j	80120f8 <fail>
 8005c6c:	00120213          	addi	tp,tp,1 # 1 <u_mode_trap_table-0x8000003>
 8005c70:	00200293          	li	t0,2
 8005c74:	fc5214e3          	bne	tp,t0,8005c3c <test_22+0x8>

0000000008005c78 <test_23>:
  TEST_ST_SRC21_BYPASS( 23, 2, 0, lw, sw, 0x12233001, 20, tdat );
 8005c78:	01700193          	li	gp,23
 8005c7c:	00000213          	li	tp,0
 8005c80:	0000d117          	auipc	sp,0xd
 8005c84:	45010113          	addi	sp,sp,1104 # 80130d0 <tdat>
 8005c88:	00000013          	nop
 8005c8c:	00000013          	nop
 8005c90:	122330b7          	lui	ra,0x12233
 8005c94:	0010809b          	addiw	ra,ra,1
 8005c98:	00112a23          	sw	ra,20(sp)
 8005c9c:	01412703          	lw	a4,20(sp)
 8005ca0:	12233eb7          	lui	t4,0x12233
 8005ca4:	001e8e9b          	addiw	t4,t4,1
 8005ca8:	01d70463          	beq	a4,t4,8005cb0 <test_23+0x38>
 8005cac:	44c0c06f          	j	80120f8 <fail>
 8005cb0:	00120213          	addi	tp,tp,1 # 1 <u_mode_trap_table-0x8000003>
 8005cb4:	00200293          	li	t0,2
 8005cb8:	fc5214e3          	bne	tp,t0,8005c80 <test_23+0x8>

  TEST_PASSFAIL

RVTEST_CODE_END
 8005cbc:	c0001073          	unimp

0000000008005cc0 <test_2>:

  #-------------------------------------------------------------
  # Basic tests
  #-------------------------------------------------------------

  TEST_ST_OP( 2, ld, sd, 0x00aa00aa00aa00aa, 0,  tdat );
 8005cc0:	0000d097          	auipc	ra,0xd
 8005cc4:	44008093          	addi	ra,ra,1088 # 8013100 <tdat>
 8005cc8:	00550137          	lui	sp,0x550
 8005ccc:	0551011b          	addiw	sp,sp,85
 8005cd0:	01011113          	slli	sp,sp,0x10
 8005cd4:	05510113          	addi	sp,sp,85 # 550055 <u_mode_trap_table-0x7aaffaf>
 8005cd8:	01111113          	slli	sp,sp,0x11
 8005cdc:	0aa10113          	addi	sp,sp,170
 8005ce0:	0020b023          	sd	sp,0(ra)
 8005ce4:	0000b703          	ld	a4,0(ra)
 8005ce8:	00550eb7          	lui	t4,0x550
 8005cec:	055e8e9b          	addiw	t4,t4,85
 8005cf0:	010e9e93          	slli	t4,t4,0x10
 8005cf4:	055e8e93          	addi	t4,t4,85 # 550055 <u_mode_trap_table-0x7aaffaf>
 8005cf8:	011e9e93          	slli	t4,t4,0x11
 8005cfc:	0aae8e93          	addi	t4,t4,170
 8005d00:	00200193          	li	gp,2
 8005d04:	01d70463          	beq	a4,t4,8005d0c <test_3>
 8005d08:	3f00c06f          	j	80120f8 <fail>

0000000008005d0c <test_3>:
  TEST_ST_OP( 3, ld, sd, 0xaa00aa00aa00aa00, 8,  tdat );
 8005d0c:	0000d097          	auipc	ra,0xd
 8005d10:	3f408093          	addi	ra,ra,1012 # 8013100 <tdat>
 8005d14:	ffd50137          	lui	sp,0xffd50
 8005d18:	0551011b          	addiw	sp,sp,85
 8005d1c:	01011113          	slli	sp,sp,0x10
 8005d20:	05510113          	addi	sp,sp,85 # ffffffffffd50055 <_end+0xfffffffff7d3c9f5>
 8005d24:	00d11113          	slli	sp,sp,0xd
 8005d28:	00b10113          	addi	sp,sp,11
 8005d2c:	00c11113          	slli	sp,sp,0xc
 8005d30:	a0010113          	addi	sp,sp,-1536
 8005d34:	0020b423          	sd	sp,8(ra)
 8005d38:	0080b703          	ld	a4,8(ra)
 8005d3c:	ffd50eb7          	lui	t4,0xffd50
 8005d40:	055e8e9b          	addiw	t4,t4,85
 8005d44:	010e9e93          	slli	t4,t4,0x10
 8005d48:	055e8e93          	addi	t4,t4,85 # ffffffffffd50055 <_end+0xfffffffff7d3c9f5>
 8005d4c:	00de9e93          	slli	t4,t4,0xd
 8005d50:	00be8e93          	addi	t4,t4,11
 8005d54:	00ce9e93          	slli	t4,t4,0xc
 8005d58:	a00e8e93          	addi	t4,t4,-1536
 8005d5c:	00300193          	li	gp,3
 8005d60:	01d70463          	beq	a4,t4,8005d68 <test_4>
 8005d64:	3940c06f          	j	80120f8 <fail>

0000000008005d68 <test_4>:
  TEST_ST_OP( 4, ld, sd, 0x0aa00aa00aa00aa0, 16,  tdat );
 8005d68:	0000d097          	auipc	ra,0xd
 8005d6c:	39808093          	addi	ra,ra,920 # 8013100 <tdat>
 8005d70:	00550137          	lui	sp,0x550
 8005d74:	0551011b          	addiw	sp,sp,85
 8005d78:	00d11113          	slli	sp,sp,0xd
 8005d7c:	00b10113          	addi	sp,sp,11 # 55000b <u_mode_trap_table-0x7aafff9>
 8005d80:	00c11113          	slli	sp,sp,0xc
 8005d84:	a0110113          	addi	sp,sp,-1535
 8005d88:	00c11113          	slli	sp,sp,0xc
 8005d8c:	aa010113          	addi	sp,sp,-1376
 8005d90:	0020b823          	sd	sp,16(ra)
 8005d94:	0100b703          	ld	a4,16(ra)
 8005d98:	00550eb7          	lui	t4,0x550
 8005d9c:	055e8e9b          	addiw	t4,t4,85
 8005da0:	00de9e93          	slli	t4,t4,0xd
 8005da4:	00be8e93          	addi	t4,t4,11 # 55000b <u_mode_trap_table-0x7aafff9>
 8005da8:	00ce9e93          	slli	t4,t4,0xc
 8005dac:	a01e8e93          	addi	t4,t4,-1535
 8005db0:	00ce9e93          	slli	t4,t4,0xc
 8005db4:	aa0e8e93          	addi	t4,t4,-1376
 8005db8:	00400193          	li	gp,4
 8005dbc:	01d70463          	beq	a4,t4,8005dc4 <test_5>
 8005dc0:	3380c06f          	j	80120f8 <fail>

0000000008005dc4 <test_5>:
  TEST_ST_OP( 5, ld, sd, 0xa00aa00aa00aa00a, 24, tdat );
 8005dc4:	0000d097          	auipc	ra,0xd
 8005dc8:	33c08093          	addi	ra,ra,828 # 8013100 <tdat>
 8005dcc:	fffd0137          	lui	sp,0xfffd0
 8005dd0:	0551011b          	addiw	sp,sp,85
 8005dd4:	01011113          	slli	sp,sp,0x10
 8005dd8:	05510113          	addi	sp,sp,85 # fffffffffffd0055 <_end+0xfffffffff7fbc9f5>
 8005ddc:	01011113          	slli	sp,sp,0x10
 8005de0:	05510113          	addi	sp,sp,85
 8005de4:	00d11113          	slli	sp,sp,0xd
 8005de8:	00a10113          	addi	sp,sp,10
 8005dec:	0020bc23          	sd	sp,24(ra)
 8005df0:	0180b703          	ld	a4,24(ra)
 8005df4:	fffd0eb7          	lui	t4,0xfffd0
 8005df8:	055e8e9b          	addiw	t4,t4,85
 8005dfc:	010e9e93          	slli	t4,t4,0x10
 8005e00:	055e8e93          	addi	t4,t4,85 # fffffffffffd0055 <_end+0xfffffffff7fbc9f5>
 8005e04:	010e9e93          	slli	t4,t4,0x10
 8005e08:	055e8e93          	addi	t4,t4,85
 8005e0c:	00de9e93          	slli	t4,t4,0xd
 8005e10:	00ae8e93          	addi	t4,t4,10
 8005e14:	00500193          	li	gp,5
 8005e18:	01d70463          	beq	a4,t4,8005e20 <test_6>
 8005e1c:	2dc0c06f          	j	80120f8 <fail>

0000000008005e20 <test_6>:

  # Test with negative offset

  TEST_ST_OP( 6, ld, sd, 0x00aa00aa00aa00aa, -24, tdat8 );
 8005e20:	0000d097          	auipc	ra,0xd
 8005e24:	31808093          	addi	ra,ra,792 # 8013138 <tdat8>
 8005e28:	00550137          	lui	sp,0x550
 8005e2c:	0551011b          	addiw	sp,sp,85
 8005e30:	01011113          	slli	sp,sp,0x10
 8005e34:	05510113          	addi	sp,sp,85 # 550055 <u_mode_trap_table-0x7aaffaf>
 8005e38:	01111113          	slli	sp,sp,0x11
 8005e3c:	0aa10113          	addi	sp,sp,170
 8005e40:	fe20b423          	sd	sp,-24(ra)
 8005e44:	fe80b703          	ld	a4,-24(ra)
 8005e48:	00550eb7          	lui	t4,0x550
 8005e4c:	055e8e9b          	addiw	t4,t4,85
 8005e50:	010e9e93          	slli	t4,t4,0x10
 8005e54:	055e8e93          	addi	t4,t4,85 # 550055 <u_mode_trap_table-0x7aaffaf>
 8005e58:	011e9e93          	slli	t4,t4,0x11
 8005e5c:	0aae8e93          	addi	t4,t4,170
 8005e60:	00600193          	li	gp,6
 8005e64:	01d70463          	beq	a4,t4,8005e6c <test_7>
 8005e68:	2900c06f          	j	80120f8 <fail>

0000000008005e6c <test_7>:
  TEST_ST_OP( 7, ld, sd, 0xaa00aa00aa00aa00, -16, tdat8 );
 8005e6c:	0000d097          	auipc	ra,0xd
 8005e70:	2cc08093          	addi	ra,ra,716 # 8013138 <tdat8>
 8005e74:	ffd50137          	lui	sp,0xffd50
 8005e78:	0551011b          	addiw	sp,sp,85
 8005e7c:	01011113          	slli	sp,sp,0x10
 8005e80:	05510113          	addi	sp,sp,85 # ffffffffffd50055 <_end+0xfffffffff7d3c9f5>
 8005e84:	00d11113          	slli	sp,sp,0xd
 8005e88:	00b10113          	addi	sp,sp,11
 8005e8c:	00c11113          	slli	sp,sp,0xc
 8005e90:	a0010113          	addi	sp,sp,-1536
 8005e94:	fe20b823          	sd	sp,-16(ra)
 8005e98:	ff00b703          	ld	a4,-16(ra)
 8005e9c:	ffd50eb7          	lui	t4,0xffd50
 8005ea0:	055e8e9b          	addiw	t4,t4,85
 8005ea4:	010e9e93          	slli	t4,t4,0x10
 8005ea8:	055e8e93          	addi	t4,t4,85 # ffffffffffd50055 <_end+0xfffffffff7d3c9f5>
 8005eac:	00de9e93          	slli	t4,t4,0xd
 8005eb0:	00be8e93          	addi	t4,t4,11
 8005eb4:	00ce9e93          	slli	t4,t4,0xc
 8005eb8:	a00e8e93          	addi	t4,t4,-1536
 8005ebc:	00700193          	li	gp,7
 8005ec0:	01d70463          	beq	a4,t4,8005ec8 <test_8>
 8005ec4:	2340c06f          	j	80120f8 <fail>

0000000008005ec8 <test_8>:
  TEST_ST_OP( 8, ld, sd, 0x0aa00aa00aa00aa0, -8,  tdat8 );
 8005ec8:	0000d097          	auipc	ra,0xd
 8005ecc:	27008093          	addi	ra,ra,624 # 8013138 <tdat8>
 8005ed0:	00550137          	lui	sp,0x550
 8005ed4:	0551011b          	addiw	sp,sp,85
 8005ed8:	00d11113          	slli	sp,sp,0xd
 8005edc:	00b10113          	addi	sp,sp,11 # 55000b <u_mode_trap_table-0x7aafff9>
 8005ee0:	00c11113          	slli	sp,sp,0xc
 8005ee4:	a0110113          	addi	sp,sp,-1535
 8005ee8:	00c11113          	slli	sp,sp,0xc
 8005eec:	aa010113          	addi	sp,sp,-1376
 8005ef0:	fe20bc23          	sd	sp,-8(ra)
 8005ef4:	ff80b703          	ld	a4,-8(ra)
 8005ef8:	00550eb7          	lui	t4,0x550
 8005efc:	055e8e9b          	addiw	t4,t4,85
 8005f00:	00de9e93          	slli	t4,t4,0xd
 8005f04:	00be8e93          	addi	t4,t4,11 # 55000b <u_mode_trap_table-0x7aafff9>
 8005f08:	00ce9e93          	slli	t4,t4,0xc
 8005f0c:	a01e8e93          	addi	t4,t4,-1535
 8005f10:	00ce9e93          	slli	t4,t4,0xc
 8005f14:	aa0e8e93          	addi	t4,t4,-1376
 8005f18:	00800193          	li	gp,8
 8005f1c:	01d70463          	beq	a4,t4,8005f24 <test_9>
 8005f20:	1d80c06f          	j	80120f8 <fail>

0000000008005f24 <test_9>:
  TEST_ST_OP( 9, ld, sd, 0xa00aa00aa00aa00a, 0,   tdat8 );
 8005f24:	0000d097          	auipc	ra,0xd
 8005f28:	21408093          	addi	ra,ra,532 # 8013138 <tdat8>
 8005f2c:	fffd0137          	lui	sp,0xfffd0
 8005f30:	0551011b          	addiw	sp,sp,85
 8005f34:	01011113          	slli	sp,sp,0x10
 8005f38:	05510113          	addi	sp,sp,85 # fffffffffffd0055 <_end+0xfffffffff7fbc9f5>
 8005f3c:	01011113          	slli	sp,sp,0x10
 8005f40:	05510113          	addi	sp,sp,85
 8005f44:	00d11113          	slli	sp,sp,0xd
 8005f48:	00a10113          	addi	sp,sp,10
 8005f4c:	0020b023          	sd	sp,0(ra)
 8005f50:	0000b703          	ld	a4,0(ra)
 8005f54:	fffd0eb7          	lui	t4,0xfffd0
 8005f58:	055e8e9b          	addiw	t4,t4,85
 8005f5c:	010e9e93          	slli	t4,t4,0x10
 8005f60:	055e8e93          	addi	t4,t4,85 # fffffffffffd0055 <_end+0xfffffffff7fbc9f5>
 8005f64:	010e9e93          	slli	t4,t4,0x10
 8005f68:	055e8e93          	addi	t4,t4,85
 8005f6c:	00de9e93          	slli	t4,t4,0xd
 8005f70:	00ae8e93          	addi	t4,t4,10
 8005f74:	00900193          	li	gp,9
 8005f78:	01d70463          	beq	a4,t4,8005f80 <test_10>
 8005f7c:	17c0c06f          	j	80120f8 <fail>

0000000008005f80 <test_10>:

  # Test with a negative base

  TEST_CASE( 10, x5, 0x1234567812345678, \
 8005f80:	0000d097          	auipc	ra,0xd
 8005f84:	1c008093          	addi	ra,ra,448 # 8013140 <tdat9>
 8005f88:	00247137          	lui	sp,0x247
 8005f8c:	8ad1011b          	addiw	sp,sp,-1875
 8005f90:	00e11113          	slli	sp,sp,0xe
 8005f94:	c0910113          	addi	sp,sp,-1015 # 246c09 <u_mode_trap_table-0x7db93fb>
 8005f98:	00d11113          	slli	sp,sp,0xd
 8005f9c:	34510113          	addi	sp,sp,837
 8005fa0:	00c11113          	slli	sp,sp,0xc
 8005fa4:	67810113          	addi	sp,sp,1656
 8005fa8:	fe008213          	addi	tp,ra,-32
 8005fac:	02223023          	sd	sp,32(tp) # 20 <u_mode_trap_table-0x7ffffe4>
 8005fb0:	0000b283          	ld	t0,0(ra)
 8005fb4:	00247eb7          	lui	t4,0x247
 8005fb8:	8ade8e9b          	addiw	t4,t4,-1875
 8005fbc:	00ee9e93          	slli	t4,t4,0xe
 8005fc0:	c09e8e93          	addi	t4,t4,-1015 # 246c09 <u_mode_trap_table-0x7db93fb>
 8005fc4:	00de9e93          	slli	t4,t4,0xd
 8005fc8:	345e8e93          	addi	t4,t4,837
 8005fcc:	00ce9e93          	slli	t4,t4,0xc
 8005fd0:	678e8e93          	addi	t4,t4,1656
 8005fd4:	00a00193          	li	gp,10
 8005fd8:	01d28463          	beq	t0,t4,8005fe0 <test_11>
 8005fdc:	11c0c06f          	j	80120f8 <fail>

0000000008005fe0 <test_11>:
    ld x5, 0(x1); \
  )

  # Test with unaligned base

  TEST_CASE( 11, x5, 0x5821309858213098, \
 8005fe0:	0000d097          	auipc	ra,0xd
 8005fe4:	16008093          	addi	ra,ra,352 # 8013140 <tdat9>
 8005fe8:	00b04137          	lui	sp,0xb04
 8005fec:	2611011b          	addiw	sp,sp,609
 8005ff0:	00c11113          	slli	sp,sp,0xc
 8005ff4:	30b10113          	addi	sp,sp,779 # b0430b <u_mode_trap_table-0x74fbcf9>
 8005ff8:	00f11113          	slli	sp,sp,0xf
 8005ffc:	21310113          	addi	sp,sp,531
 8006000:	00c11113          	slli	sp,sp,0xc
 8006004:	09810113          	addi	sp,sp,152
 8006008:	ffd08093          	addi	ra,ra,-3
 800600c:	0020b5a3          	sd	sp,11(ra)
 8006010:	0000d217          	auipc	tp,0xd
 8006014:	13820213          	addi	tp,tp,312 # 8013148 <tdat10>
 8006018:	00023283          	ld	t0,0(tp) # 0 <u_mode_trap_table-0x8000004>
 800601c:	00b04eb7          	lui	t4,0xb04
 8006020:	261e8e9b          	addiw	t4,t4,609
 8006024:	00ce9e93          	slli	t4,t4,0xc
 8006028:	30be8e93          	addi	t4,t4,779 # b0430b <u_mode_trap_table-0x74fbcf9>
 800602c:	00fe9e93          	slli	t4,t4,0xf
 8006030:	213e8e93          	addi	t4,t4,531
 8006034:	00ce9e93          	slli	t4,t4,0xc
 8006038:	098e8e93          	addi	t4,t4,152
 800603c:	00b00193          	li	gp,11
 8006040:	01d28463          	beq	t0,t4,8006048 <test_12>
 8006044:	0b40c06f          	j	80120f8 <fail>

0000000008006048 <test_12>:

  #-------------------------------------------------------------
  # Bypassing tests
  #-------------------------------------------------------------

  TEST_ST_SRC12_BYPASS( 12, 0, 0, ld, sd, 0xabbccdd, 0,  tdat );
 8006048:	00c00193          	li	gp,12
 800604c:	00000213          	li	tp,0
 8006050:	0abbd0b7          	lui	ra,0xabbd
 8006054:	cdd0809b          	addiw	ra,ra,-803
 8006058:	0000d117          	auipc	sp,0xd
 800605c:	0a810113          	addi	sp,sp,168 # 8013100 <tdat>
 8006060:	00113023          	sd	ra,0(sp)
 8006064:	00013703          	ld	a4,0(sp)
 8006068:	0abbdeb7          	lui	t4,0xabbd
 800606c:	cdde8e9b          	addiw	t4,t4,-803
 8006070:	01d70463          	beq	a4,t4,8006078 <test_12+0x30>
 8006074:	0840c06f          	j	80120f8 <fail>
 8006078:	00120213          	addi	tp,tp,1 # 1 <u_mode_trap_table-0x8000003>
 800607c:	00200293          	li	t0,2
 8006080:	fc5218e3          	bne	tp,t0,8006050 <test_12+0x8>

0000000008006084 <test_13>:
  TEST_ST_SRC12_BYPASS( 13, 0, 1, ld, sd, 0xaabbccd, 8,  tdat );
 8006084:	00d00193          	li	gp,13
 8006088:	00000213          	li	tp,0
 800608c:	0aabc0b7          	lui	ra,0xaabc
 8006090:	ccd0809b          	addiw	ra,ra,-819
 8006094:	0000d117          	auipc	sp,0xd
 8006098:	06c10113          	addi	sp,sp,108 # 8013100 <tdat>
 800609c:	00000013          	nop
 80060a0:	00113423          	sd	ra,8(sp)
 80060a4:	00813703          	ld	a4,8(sp)
 80060a8:	0aabceb7          	lui	t4,0xaabc
 80060ac:	ccde8e9b          	addiw	t4,t4,-819
 80060b0:	01d70463          	beq	a4,t4,80060b8 <test_13+0x34>
 80060b4:	0440c06f          	j	80120f8 <fail>
 80060b8:	00120213          	addi	tp,tp,1 # 1 <u_mode_trap_table-0x8000003>
 80060bc:	00200293          	li	t0,2
 80060c0:	fc5216e3          	bne	tp,t0,800608c <test_13+0x8>

00000000080060c4 <test_14>:
  TEST_ST_SRC12_BYPASS( 14, 0, 2, ld, sd, 0xdaabbcc, 16, tdat );
 80060c4:	00e00193          	li	gp,14
 80060c8:	00000213          	li	tp,0
 80060cc:	0daac0b7          	lui	ra,0xdaac
 80060d0:	bcc0809b          	addiw	ra,ra,-1076
 80060d4:	0000d117          	auipc	sp,0xd
 80060d8:	02c10113          	addi	sp,sp,44 # 8013100 <tdat>
 80060dc:	00000013          	nop
 80060e0:	00000013          	nop
 80060e4:	00113823          	sd	ra,16(sp)
 80060e8:	01013703          	ld	a4,16(sp)
 80060ec:	0daaceb7          	lui	t4,0xdaac
 80060f0:	bcce8e9b          	addiw	t4,t4,-1076
 80060f4:	01d70463          	beq	a4,t4,80060fc <test_14+0x38>
 80060f8:	0000c06f          	j	80120f8 <fail>
 80060fc:	00120213          	addi	tp,tp,1 # 1 <u_mode_trap_table-0x8000003>
 8006100:	00200293          	li	t0,2
 8006104:	fc5214e3          	bne	tp,t0,80060cc <test_14+0x8>

0000000008006108 <test_15>:
  TEST_ST_SRC12_BYPASS( 15, 1, 0, ld, sd, 0xddaabbc, 24, tdat );
 8006108:	00f00193          	li	gp,15
 800610c:	00000213          	li	tp,0
 8006110:	0ddab0b7          	lui	ra,0xddab
 8006114:	bbc0809b          	addiw	ra,ra,-1092
 8006118:	00000013          	nop
 800611c:	0000d117          	auipc	sp,0xd
 8006120:	fe410113          	addi	sp,sp,-28 # 8013100 <tdat>
 8006124:	00113c23          	sd	ra,24(sp)
 8006128:	01813703          	ld	a4,24(sp)
 800612c:	0ddabeb7          	lui	t4,0xddab
 8006130:	bbce8e9b          	addiw	t4,t4,-1092
 8006134:	01d70463          	beq	a4,t4,800613c <test_15+0x34>
 8006138:	7c10b06f          	j	80120f8 <fail>
 800613c:	00120213          	addi	tp,tp,1 # 1 <u_mode_trap_table-0x8000003>
 8006140:	00200293          	li	t0,2
 8006144:	fc5216e3          	bne	tp,t0,8006110 <test_15+0x8>

0000000008006148 <test_16>:
  TEST_ST_SRC12_BYPASS( 16, 1, 1, ld, sd, 0xcddaabb, 32, tdat );
 8006148:	01000193          	li	gp,16
 800614c:	00000213          	li	tp,0
 8006150:	0cddb0b7          	lui	ra,0xcddb
 8006154:	abb0809b          	addiw	ra,ra,-1349
 8006158:	00000013          	nop
 800615c:	0000d117          	auipc	sp,0xd
 8006160:	fa410113          	addi	sp,sp,-92 # 8013100 <tdat>
 8006164:	00000013          	nop
 8006168:	02113023          	sd	ra,32(sp)
 800616c:	02013703          	ld	a4,32(sp)
 8006170:	0cddbeb7          	lui	t4,0xcddb
 8006174:	abbe8e9b          	addiw	t4,t4,-1349
 8006178:	01d70463          	beq	a4,t4,8006180 <test_16+0x38>
 800617c:	77d0b06f          	j	80120f8 <fail>
 8006180:	00120213          	addi	tp,tp,1 # 1 <u_mode_trap_table-0x8000003>
 8006184:	00200293          	li	t0,2
 8006188:	fc5214e3          	bne	tp,t0,8006150 <test_16+0x8>

000000000800618c <test_17>:
  TEST_ST_SRC12_BYPASS( 17, 2, 0, ld, sd, 0xccddaab, 40, tdat );
 800618c:	01100193          	li	gp,17
 8006190:	00000213          	li	tp,0
 8006194:	0ccde0b7          	lui	ra,0xccde
 8006198:	aab0809b          	addiw	ra,ra,-1365
 800619c:	00000013          	nop
 80061a0:	00000013          	nop
 80061a4:	0000d117          	auipc	sp,0xd
 80061a8:	f5c10113          	addi	sp,sp,-164 # 8013100 <tdat>
 80061ac:	02113423          	sd	ra,40(sp)
 80061b0:	02813703          	ld	a4,40(sp)
 80061b4:	0ccdeeb7          	lui	t4,0xccde
 80061b8:	aabe8e9b          	addiw	t4,t4,-1365
 80061bc:	01d70463          	beq	a4,t4,80061c4 <test_17+0x38>
 80061c0:	7390b06f          	j	80120f8 <fail>
 80061c4:	00120213          	addi	tp,tp,1 # 1 <u_mode_trap_table-0x8000003>
 80061c8:	00200293          	li	t0,2
 80061cc:	fc5214e3          	bne	tp,t0,8006194 <test_17+0x8>

00000000080061d0 <test_18>:

  TEST_ST_SRC21_BYPASS( 18, 0, 0, ld, sd, 0x00112233, 0,  tdat );
 80061d0:	01200193          	li	gp,18
 80061d4:	00000213          	li	tp,0
 80061d8:	0000d117          	auipc	sp,0xd
 80061dc:	f2810113          	addi	sp,sp,-216 # 8013100 <tdat>
 80061e0:	001120b7          	lui	ra,0x112
 80061e4:	2330809b          	addiw	ra,ra,563
 80061e8:	00113023          	sd	ra,0(sp)
 80061ec:	00013703          	ld	a4,0(sp)
 80061f0:	00112eb7          	lui	t4,0x112
 80061f4:	233e8e9b          	addiw	t4,t4,563
 80061f8:	01d70463          	beq	a4,t4,8006200 <test_18+0x30>
 80061fc:	6fd0b06f          	j	80120f8 <fail>
 8006200:	00120213          	addi	tp,tp,1 # 1 <u_mode_trap_table-0x8000003>
 8006204:	00200293          	li	t0,2
 8006208:	fc5218e3          	bne	tp,t0,80061d8 <test_18+0x8>

000000000800620c <test_19>:
  TEST_ST_SRC21_BYPASS( 19, 0, 1, ld, sd, 0x30011223, 8,  tdat );
 800620c:	01300193          	li	gp,19
 8006210:	00000213          	li	tp,0
 8006214:	0000d117          	auipc	sp,0xd
 8006218:	eec10113          	addi	sp,sp,-276 # 8013100 <tdat>
 800621c:	300110b7          	lui	ra,0x30011
 8006220:	2230809b          	addiw	ra,ra,547
 8006224:	00000013          	nop
 8006228:	00113423          	sd	ra,8(sp)
 800622c:	00813703          	ld	a4,8(sp)
 8006230:	30011eb7          	lui	t4,0x30011
 8006234:	223e8e9b          	addiw	t4,t4,547
 8006238:	01d70463          	beq	a4,t4,8006240 <test_19+0x34>
 800623c:	6bd0b06f          	j	80120f8 <fail>
 8006240:	00120213          	addi	tp,tp,1 # 1 <u_mode_trap_table-0x8000003>
 8006244:	00200293          	li	t0,2
 8006248:	fc5216e3          	bne	tp,t0,8006214 <test_19+0x8>

000000000800624c <test_20>:
  TEST_ST_SRC21_BYPASS( 20, 0, 2, ld, sd, 0x33001122, 16, tdat );
 800624c:	01400193          	li	gp,20
 8006250:	00000213          	li	tp,0
 8006254:	0000d117          	auipc	sp,0xd
 8006258:	eac10113          	addi	sp,sp,-340 # 8013100 <tdat>
 800625c:	330010b7          	lui	ra,0x33001
 8006260:	1220809b          	addiw	ra,ra,290
 8006264:	00000013          	nop
 8006268:	00000013          	nop
 800626c:	00113823          	sd	ra,16(sp)
 8006270:	01013703          	ld	a4,16(sp)
 8006274:	33001eb7          	lui	t4,0x33001
 8006278:	122e8e9b          	addiw	t4,t4,290
 800627c:	01d70463          	beq	a4,t4,8006284 <test_20+0x38>
 8006280:	6790b06f          	j	80120f8 <fail>
 8006284:	00120213          	addi	tp,tp,1 # 1 <u_mode_trap_table-0x8000003>
 8006288:	00200293          	li	t0,2
 800628c:	fc5214e3          	bne	tp,t0,8006254 <test_20+0x8>

0000000008006290 <test_21>:
  TEST_ST_SRC21_BYPASS( 21, 1, 0, ld, sd, 0x23300112, 24, tdat );
 8006290:	01500193          	li	gp,21
 8006294:	00000213          	li	tp,0
 8006298:	0000d117          	auipc	sp,0xd
 800629c:	e6810113          	addi	sp,sp,-408 # 8013100 <tdat>
 80062a0:	00000013          	nop
 80062a4:	233000b7          	lui	ra,0x23300
 80062a8:	1120809b          	addiw	ra,ra,274
 80062ac:	00113c23          	sd	ra,24(sp)
 80062b0:	01813703          	ld	a4,24(sp)
 80062b4:	23300eb7          	lui	t4,0x23300
 80062b8:	112e8e9b          	addiw	t4,t4,274
 80062bc:	01d70463          	beq	a4,t4,80062c4 <test_21+0x34>
 80062c0:	6390b06f          	j	80120f8 <fail>
 80062c4:	00120213          	addi	tp,tp,1 # 1 <u_mode_trap_table-0x8000003>
 80062c8:	00200293          	li	t0,2
 80062cc:	fc5216e3          	bne	tp,t0,8006298 <test_21+0x8>

00000000080062d0 <test_22>:
  TEST_ST_SRC21_BYPASS( 22, 1, 1, ld, sd, 0x22330011, 32, tdat );
 80062d0:	01600193          	li	gp,22
 80062d4:	00000213          	li	tp,0
 80062d8:	0000d117          	auipc	sp,0xd
 80062dc:	e2810113          	addi	sp,sp,-472 # 8013100 <tdat>
 80062e0:	00000013          	nop
 80062e4:	223300b7          	lui	ra,0x22330
 80062e8:	0110809b          	addiw	ra,ra,17
 80062ec:	00000013          	nop
 80062f0:	02113023          	sd	ra,32(sp)
 80062f4:	02013703          	ld	a4,32(sp)
 80062f8:	22330eb7          	lui	t4,0x22330
 80062fc:	011e8e9b          	addiw	t4,t4,17
 8006300:	01d70463          	beq	a4,t4,8006308 <test_22+0x38>
 8006304:	5f50b06f          	j	80120f8 <fail>
 8006308:	00120213          	addi	tp,tp,1 # 1 <u_mode_trap_table-0x8000003>
 800630c:	00200293          	li	t0,2
 8006310:	fc5214e3          	bne	tp,t0,80062d8 <test_22+0x8>

0000000008006314 <test_23>:
  TEST_ST_SRC21_BYPASS( 23, 2, 0, ld, sd, 0x12233001, 40, tdat );
 8006314:	01700193          	li	gp,23
 8006318:	00000213          	li	tp,0
 800631c:	0000d117          	auipc	sp,0xd
 8006320:	de410113          	addi	sp,sp,-540 # 8013100 <tdat>
 8006324:	00000013          	nop
 8006328:	00000013          	nop
 800632c:	122330b7          	lui	ra,0x12233
 8006330:	0010809b          	addiw	ra,ra,1
 8006334:	02113423          	sd	ra,40(sp)
 8006338:	02813703          	ld	a4,40(sp)
 800633c:	12233eb7          	lui	t4,0x12233
 8006340:	001e8e9b          	addiw	t4,t4,1
 8006344:	01d70463          	beq	a4,t4,800634c <test_23+0x38>
 8006348:	5b10b06f          	j	80120f8 <fail>
 800634c:	00120213          	addi	tp,tp,1 # 1 <u_mode_trap_table-0x8000003>
 8006350:	00200293          	li	t0,2
 8006354:	fc5214e3          	bne	tp,t0,800631c <test_23+0x8>

  TEST_PASSFAIL

RVTEST_CODE_END
 8006358:	c0001073          	unimp

000000000800635c <test_2>:

  #-------------------------------------------------------------
  # Arithmetic tests
  #-------------------------------------------------------------

  TEST_RR_OP( 2,  sll, 0x0000000000000001, 0x0000000000000001, 0  );
 800635c:	00100093          	li	ra,1
 8006360:	00000113          	li	sp,0
 8006364:	00209733          	sll	a4,ra,sp
 8006368:	00100e93          	li	t4,1
 800636c:	00200193          	li	gp,2
 8006370:	01d70463          	beq	a4,t4,8006378 <test_3>
 8006374:	5850b06f          	j	80120f8 <fail>

0000000008006378 <test_3>:
  TEST_RR_OP( 3,  sll, 0x0000000000000002, 0x0000000000000001, 1  );
 8006378:	00100093          	li	ra,1
 800637c:	00100113          	li	sp,1
 8006380:	00209733          	sll	a4,ra,sp
 8006384:	00200e93          	li	t4,2
 8006388:	00300193          	li	gp,3
 800638c:	01d70463          	beq	a4,t4,8006394 <test_4>
 8006390:	5690b06f          	j	80120f8 <fail>

0000000008006394 <test_4>:
  TEST_RR_OP( 4,  sll, 0x0000000000000080, 0x0000000000000001, 7  );
 8006394:	00100093          	li	ra,1
 8006398:	00700113          	li	sp,7
 800639c:	00209733          	sll	a4,ra,sp
 80063a0:	08000e93          	li	t4,128
 80063a4:	00400193          	li	gp,4
 80063a8:	01d70463          	beq	a4,t4,80063b0 <test_5>
 80063ac:	54d0b06f          	j	80120f8 <fail>

00000000080063b0 <test_5>:
  TEST_RR_OP( 5,  sll, 0x0000000000004000, 0x0000000000000001, 14 );
 80063b0:	00100093          	li	ra,1
 80063b4:	00e00113          	li	sp,14
 80063b8:	00209733          	sll	a4,ra,sp
 80063bc:	00004eb7          	lui	t4,0x4
 80063c0:	00500193          	li	gp,5
 80063c4:	01d70463          	beq	a4,t4,80063cc <test_6>
 80063c8:	5310b06f          	j	80120f8 <fail>

00000000080063cc <test_6>:
  TEST_RR_OP( 6,  sll, 0x0000000080000000, 0x0000000000000001, 31 );
 80063cc:	00100093          	li	ra,1
 80063d0:	01f00113          	li	sp,31
 80063d4:	00209733          	sll	a4,ra,sp
 80063d8:	00100e9b          	addiw	t4,zero,1
 80063dc:	01fe9e93          	slli	t4,t4,0x1f
 80063e0:	00600193          	li	gp,6
 80063e4:	01d70463          	beq	a4,t4,80063ec <test_7>
 80063e8:	5110b06f          	j	80120f8 <fail>

00000000080063ec <test_7>:

  TEST_RR_OP( 7,  sll, 0xffffffffffffffff, 0xffffffffffffffff, 0  );
 80063ec:	fff00093          	li	ra,-1
 80063f0:	00000113          	li	sp,0
 80063f4:	00209733          	sll	a4,ra,sp
 80063f8:	fff00e93          	li	t4,-1
 80063fc:	00700193          	li	gp,7
 8006400:	01d70463          	beq	a4,t4,8006408 <test_8>
 8006404:	4f50b06f          	j	80120f8 <fail>

0000000008006408 <test_8>:
  TEST_RR_OP( 8,  sll, 0xfffffffffffffffe, 0xffffffffffffffff, 1  );
 8006408:	fff00093          	li	ra,-1
 800640c:	00100113          	li	sp,1
 8006410:	00209733          	sll	a4,ra,sp
 8006414:	ffe00e93          	li	t4,-2
 8006418:	00800193          	li	gp,8
 800641c:	01d70463          	beq	a4,t4,8006424 <test_9>
 8006420:	4d90b06f          	j	80120f8 <fail>

0000000008006424 <test_9>:
  TEST_RR_OP( 9,  sll, 0xffffffffffffff80, 0xffffffffffffffff, 7  );
 8006424:	fff00093          	li	ra,-1
 8006428:	00700113          	li	sp,7
 800642c:	00209733          	sll	a4,ra,sp
 8006430:	f8000e93          	li	t4,-128
 8006434:	00900193          	li	gp,9
 8006438:	01d70463          	beq	a4,t4,8006440 <test_10>
 800643c:	4bd0b06f          	j	80120f8 <fail>

0000000008006440 <test_10>:
  TEST_RR_OP( 10, sll, 0xffffffffffffc000, 0xffffffffffffffff, 14 );
 8006440:	fff00093          	li	ra,-1
 8006444:	00e00113          	li	sp,14
 8006448:	00209733          	sll	a4,ra,sp
 800644c:	ffffceb7          	lui	t4,0xffffc
 8006450:	00a00193          	li	gp,10
 8006454:	01d70463          	beq	a4,t4,800645c <test_11>
 8006458:	4a10b06f          	j	80120f8 <fail>

000000000800645c <test_11>:
  TEST_RR_OP( 11, sll, 0xffffffff80000000, 0xffffffffffffffff, 31 );
 800645c:	fff00093          	li	ra,-1
 8006460:	01f00113          	li	sp,31
 8006464:	00209733          	sll	a4,ra,sp
 8006468:	80000eb7          	lui	t4,0x80000
 800646c:	00b00193          	li	gp,11
 8006470:	01d70463          	beq	a4,t4,8006478 <test_12>
 8006474:	4850b06f          	j	80120f8 <fail>

0000000008006478 <test_12>:

  TEST_RR_OP( 12, sll, 0x0000000021212121, 0x0000000021212121, 0  );
 8006478:	212120b7          	lui	ra,0x21212
 800647c:	1210809b          	addiw	ra,ra,289
 8006480:	00000113          	li	sp,0
 8006484:	00209733          	sll	a4,ra,sp
 8006488:	21212eb7          	lui	t4,0x21212
 800648c:	121e8e9b          	addiw	t4,t4,289
 8006490:	00c00193          	li	gp,12
 8006494:	01d70463          	beq	a4,t4,800649c <test_13>
 8006498:	4610b06f          	j	80120f8 <fail>

000000000800649c <test_13>:
  TEST_RR_OP( 13, sll, 0x0000000042424242, 0x0000000021212121, 1  );
 800649c:	212120b7          	lui	ra,0x21212
 80064a0:	1210809b          	addiw	ra,ra,289
 80064a4:	00100113          	li	sp,1
 80064a8:	00209733          	sll	a4,ra,sp
 80064ac:	42424eb7          	lui	t4,0x42424
 80064b0:	242e8e9b          	addiw	t4,t4,578
 80064b4:	00d00193          	li	gp,13
 80064b8:	01d70463          	beq	a4,t4,80064c0 <test_14>
 80064bc:	43d0b06f          	j	80120f8 <fail>

00000000080064c0 <test_14>:
  TEST_RR_OP( 14, sll, 0x0000001090909080, 0x0000000021212121, 7  );
 80064c0:	212120b7          	lui	ra,0x21212
 80064c4:	1210809b          	addiw	ra,ra,289
 80064c8:	00700113          	li	sp,7
 80064cc:	00209733          	sll	a4,ra,sp
 80064d0:	01091eb7          	lui	t4,0x1091
 80064d4:	909e8e9b          	addiw	t4,t4,-1783
 80064d8:	00ce9e93          	slli	t4,t4,0xc
 80064dc:	080e8e93          	addi	t4,t4,128 # 1091080 <u_mode_trap_table-0x6f6ef84>
 80064e0:	00e00193          	li	gp,14
 80064e4:	01d70463          	beq	a4,t4,80064ec <test_15>
 80064e8:	4110b06f          	j	80120f8 <fail>

00000000080064ec <test_15>:
  TEST_RR_OP( 15, sll, 0x0000084848484000, 0x0000000021212121, 14 );
 80064ec:	212120b7          	lui	ra,0x21212
 80064f0:	1210809b          	addiw	ra,ra,289
 80064f4:	00e00113          	li	sp,14
 80064f8:	00209733          	sll	a4,ra,sp
 80064fc:	21212eb7          	lui	t4,0x21212
 8006500:	121e8e9b          	addiw	t4,t4,289
 8006504:	00ee9e93          	slli	t4,t4,0xe
 8006508:	00f00193          	li	gp,15
 800650c:	01d70463          	beq	a4,t4,8006514 <test_16>
 8006510:	3e90b06f          	j	80120f8 <fail>

0000000008006514 <test_16>:
  TEST_RR_OP( 16, sll, 0x1090909080000000, 0x0000000021212121, 31 );
 8006514:	212120b7          	lui	ra,0x21212
 8006518:	1210809b          	addiw	ra,ra,289
 800651c:	01f00113          	li	sp,31
 8006520:	00209733          	sll	a4,ra,sp
 8006524:	21212eb7          	lui	t4,0x21212
 8006528:	121e8e9b          	addiw	t4,t4,289
 800652c:	01fe9e93          	slli	t4,t4,0x1f
 8006530:	01000193          	li	gp,16
 8006534:	01d70463          	beq	a4,t4,800653c <test_17>
 8006538:	3c10b06f          	j	80120f8 <fail>

000000000800653c <test_17>:

  # Verify that shifts only use bottom six(rv64) or five(rv32) bits

  TEST_RR_OP( 17, sll, 0x0000000021212121, 0x0000000021212121, 0xffffffffffffffc0 );
 800653c:	212120b7          	lui	ra,0x21212
 8006540:	1210809b          	addiw	ra,ra,289
 8006544:	fc000113          	li	sp,-64
 8006548:	00209733          	sll	a4,ra,sp
 800654c:	21212eb7          	lui	t4,0x21212
 8006550:	121e8e9b          	addiw	t4,t4,289
 8006554:	01100193          	li	gp,17
 8006558:	01d70463          	beq	a4,t4,8006560 <test_18>
 800655c:	39d0b06f          	j	80120f8 <fail>

0000000008006560 <test_18>:
  TEST_RR_OP( 18, sll, 0x0000000042424242, 0x0000000021212121, 0xffffffffffffffc1 );
 8006560:	212120b7          	lui	ra,0x21212
 8006564:	1210809b          	addiw	ra,ra,289
 8006568:	fc100113          	li	sp,-63
 800656c:	00209733          	sll	a4,ra,sp
 8006570:	42424eb7          	lui	t4,0x42424
 8006574:	242e8e9b          	addiw	t4,t4,578
 8006578:	01200193          	li	gp,18
 800657c:	01d70463          	beq	a4,t4,8006584 <test_19>
 8006580:	3790b06f          	j	80120f8 <fail>

0000000008006584 <test_19>:
  TEST_RR_OP( 19, sll, 0x0000001090909080, 0x0000000021212121, 0xffffffffffffffc7 );
 8006584:	212120b7          	lui	ra,0x21212
 8006588:	1210809b          	addiw	ra,ra,289
 800658c:	fc700113          	li	sp,-57
 8006590:	00209733          	sll	a4,ra,sp
 8006594:	01091eb7          	lui	t4,0x1091
 8006598:	909e8e9b          	addiw	t4,t4,-1783
 800659c:	00ce9e93          	slli	t4,t4,0xc
 80065a0:	080e8e93          	addi	t4,t4,128 # 1091080 <u_mode_trap_table-0x6f6ef84>
 80065a4:	01300193          	li	gp,19
 80065a8:	01d70463          	beq	a4,t4,80065b0 <test_20>
 80065ac:	34d0b06f          	j	80120f8 <fail>

00000000080065b0 <test_20>:
  TEST_RR_OP( 20, sll, 0x0000084848484000, 0x0000000021212121, 0xffffffffffffffce );
 80065b0:	212120b7          	lui	ra,0x21212
 80065b4:	1210809b          	addiw	ra,ra,289
 80065b8:	fce00113          	li	sp,-50
 80065bc:	00209733          	sll	a4,ra,sp
 80065c0:	21212eb7          	lui	t4,0x21212
 80065c4:	121e8e9b          	addiw	t4,t4,289
 80065c8:	00ee9e93          	slli	t4,t4,0xe
 80065cc:	01400193          	li	gp,20
 80065d0:	01d70463          	beq	a4,t4,80065d8 <test_21>
 80065d4:	3250b06f          	j	80120f8 <fail>

00000000080065d8 <test_21>:

#if __riscv_xlen == 64
  TEST_RR_OP( 21, sll, 0x8000000000000000, 0x0000000021212121, 0xffffffffffffffff );
 80065d8:	212120b7          	lui	ra,0x21212
 80065dc:	1210809b          	addiw	ra,ra,289
 80065e0:	fff00113          	li	sp,-1
 80065e4:	00209733          	sll	a4,ra,sp
 80065e8:	fff00e9b          	addiw	t4,zero,-1
 80065ec:	03fe9e93          	slli	t4,t4,0x3f
 80065f0:	01500193          	li	gp,21
 80065f4:	01d70463          	beq	a4,t4,80065fc <test_50>
 80065f8:	3010b06f          	j	80120f8 <fail>

00000000080065fc <test_50>:
  TEST_RR_OP( 50, sll, 0x8000000000000000, 0x0000000000000001, 63 );
 80065fc:	00100093          	li	ra,1
 8006600:	03f00113          	li	sp,63
 8006604:	00209733          	sll	a4,ra,sp
 8006608:	fff00e9b          	addiw	t4,zero,-1
 800660c:	03fe9e93          	slli	t4,t4,0x3f
 8006610:	03200193          	li	gp,50
 8006614:	01d70463          	beq	a4,t4,800661c <test_51>
 8006618:	2e10b06f          	j	80120f8 <fail>

000000000800661c <test_51>:
  TEST_RR_OP( 51, sll, 0xffffff8000000000, 0xffffffffffffffff, 39 );
 800661c:	fff00093          	li	ra,-1
 8006620:	02700113          	li	sp,39
 8006624:	00209733          	sll	a4,ra,sp
 8006628:	fff00e9b          	addiw	t4,zero,-1
 800662c:	027e9e93          	slli	t4,t4,0x27
 8006630:	03300193          	li	gp,51
 8006634:	01d70463          	beq	a4,t4,800663c <test_52>
 8006638:	2c10b06f          	j	80120f8 <fail>

000000000800663c <test_52>:
  TEST_RR_OP( 52, sll, 0x0909080000000000, 0x0000000021212121, 43 );
 800663c:	212120b7          	lui	ra,0x21212
 8006640:	1210809b          	addiw	ra,ra,289
 8006644:	02b00113          	li	sp,43
 8006648:	00209733          	sll	a4,ra,sp
 800664c:	00012eb7          	lui	t4,0x12
 8006650:	121e8e9b          	addiw	t4,t4,289
 8006654:	02be9e93          	slli	t4,t4,0x2b
 8006658:	03400193          	li	gp,52
 800665c:	01d70463          	beq	a4,t4,8006664 <test_22>
 8006660:	2990b06f          	j	80120f8 <fail>

0000000008006664 <test_22>:

  #-------------------------------------------------------------
  # Source/Destination tests
  #-------------------------------------------------------------

  TEST_RR_SRC1_EQ_DEST( 22, sll, 0x00000080, 0x00000001, 7  );
 8006664:	00100093          	li	ra,1
 8006668:	00700113          	li	sp,7
 800666c:	002090b3          	sll	ra,ra,sp
 8006670:	08000e93          	li	t4,128
 8006674:	01600193          	li	gp,22
 8006678:	01d08463          	beq	ra,t4,8006680 <test_23>
 800667c:	27d0b06f          	j	80120f8 <fail>

0000000008006680 <test_23>:
  TEST_RR_SRC2_EQ_DEST( 23, sll, 0x00004000, 0x00000001, 14 );
 8006680:	00100093          	li	ra,1
 8006684:	00e00113          	li	sp,14
 8006688:	00209133          	sll	sp,ra,sp
 800668c:	00004eb7          	lui	t4,0x4
 8006690:	01700193          	li	gp,23
 8006694:	01d10463          	beq	sp,t4,800669c <test_24>
 8006698:	2610b06f          	j	80120f8 <fail>

000000000800669c <test_24>:
  TEST_RR_SRC12_EQ_DEST( 24, sll, 24, 3 );
 800669c:	00300093          	li	ra,3
 80066a0:	001090b3          	sll	ra,ra,ra
 80066a4:	01800e93          	li	t4,24
 80066a8:	01800193          	li	gp,24
 80066ac:	01d08463          	beq	ra,t4,80066b4 <test_25>
 80066b0:	2490b06f          	j	80120f8 <fail>

00000000080066b4 <test_25>:

  #-------------------------------------------------------------
  # Bypassing tests
  #-------------------------------------------------------------

  TEST_RR_DEST_BYPASS( 25, 0, sll, 0x0000000000000080, 0x0000000000000001, 7  );
 80066b4:	00000213          	li	tp,0
 80066b8:	00100093          	li	ra,1
 80066bc:	00700113          	li	sp,7
 80066c0:	00209733          	sll	a4,ra,sp
 80066c4:	00070313          	mv	t1,a4
 80066c8:	00120213          	addi	tp,tp,1 # 1 <u_mode_trap_table-0x8000003>
 80066cc:	00200293          	li	t0,2
 80066d0:	fe5214e3          	bne	tp,t0,80066b8 <test_25+0x4>
 80066d4:	08000e93          	li	t4,128
 80066d8:	01900193          	li	gp,25
 80066dc:	01d30463          	beq	t1,t4,80066e4 <test_26>
 80066e0:	2190b06f          	j	80120f8 <fail>

00000000080066e4 <test_26>:
  TEST_RR_DEST_BYPASS( 26, 1, sll, 0x0000000000004000, 0x0000000000000001, 14 );
 80066e4:	00000213          	li	tp,0
 80066e8:	00100093          	li	ra,1
 80066ec:	00e00113          	li	sp,14
 80066f0:	00209733          	sll	a4,ra,sp
 80066f4:	00000013          	nop
 80066f8:	00070313          	mv	t1,a4
 80066fc:	00120213          	addi	tp,tp,1 # 1 <u_mode_trap_table-0x8000003>
 8006700:	00200293          	li	t0,2
 8006704:	fe5212e3          	bne	tp,t0,80066e8 <test_26+0x4>
 8006708:	00004eb7          	lui	t4,0x4
 800670c:	01a00193          	li	gp,26
 8006710:	01d30463          	beq	t1,t4,8006718 <test_27>
 8006714:	1e50b06f          	j	80120f8 <fail>

0000000008006718 <test_27>:
  TEST_RR_DEST_BYPASS( 27, 2, sll, 0x0000000080000000, 0x0000000000000001, 31 );
 8006718:	00000213          	li	tp,0
 800671c:	00100093          	li	ra,1
 8006720:	01f00113          	li	sp,31
 8006724:	00209733          	sll	a4,ra,sp
 8006728:	00000013          	nop
 800672c:	00000013          	nop
 8006730:	00070313          	mv	t1,a4
 8006734:	00120213          	addi	tp,tp,1 # 1 <u_mode_trap_table-0x8000003>
 8006738:	00200293          	li	t0,2
 800673c:	fe5210e3          	bne	tp,t0,800671c <test_27+0x4>
 8006740:	00100e9b          	addiw	t4,zero,1
 8006744:	01fe9e93          	slli	t4,t4,0x1f
 8006748:	01b00193          	li	gp,27
 800674c:	01d30463          	beq	t1,t4,8006754 <test_28>
 8006750:	1a90b06f          	j	80120f8 <fail>

0000000008006754 <test_28>:

  TEST_RR_SRC12_BYPASS( 28, 0, 0, sll, 0x0000000000000080, 0x0000000000000001, 7  );
 8006754:	00000213          	li	tp,0
 8006758:	00100093          	li	ra,1
 800675c:	00700113          	li	sp,7
 8006760:	00209733          	sll	a4,ra,sp
 8006764:	00120213          	addi	tp,tp,1 # 1 <u_mode_trap_table-0x8000003>
 8006768:	00200293          	li	t0,2
 800676c:	fe5216e3          	bne	tp,t0,8006758 <test_28+0x4>
 8006770:	08000e93          	li	t4,128
 8006774:	01c00193          	li	gp,28
 8006778:	01d70463          	beq	a4,t4,8006780 <test_29>
 800677c:	17d0b06f          	j	80120f8 <fail>

0000000008006780 <test_29>:
  TEST_RR_SRC12_BYPASS( 29, 0, 1, sll, 0x0000000000004000, 0x0000000000000001, 14 );
 8006780:	00000213          	li	tp,0
 8006784:	00100093          	li	ra,1
 8006788:	00e00113          	li	sp,14
 800678c:	00000013          	nop
 8006790:	00209733          	sll	a4,ra,sp
 8006794:	00120213          	addi	tp,tp,1 # 1 <u_mode_trap_table-0x8000003>
 8006798:	00200293          	li	t0,2
 800679c:	fe5214e3          	bne	tp,t0,8006784 <test_29+0x4>
 80067a0:	00004eb7          	lui	t4,0x4
 80067a4:	01d00193          	li	gp,29
 80067a8:	01d70463          	beq	a4,t4,80067b0 <test_30>
 80067ac:	14d0b06f          	j	80120f8 <fail>

00000000080067b0 <test_30>:
  TEST_RR_SRC12_BYPASS( 30, 0, 2, sll, 0x0000000080000000, 0x0000000000000001, 31 );
 80067b0:	00000213          	li	tp,0
 80067b4:	00100093          	li	ra,1
 80067b8:	01f00113          	li	sp,31
 80067bc:	00000013          	nop
 80067c0:	00000013          	nop
 80067c4:	00209733          	sll	a4,ra,sp
 80067c8:	00120213          	addi	tp,tp,1 # 1 <u_mode_trap_table-0x8000003>
 80067cc:	00200293          	li	t0,2
 80067d0:	fe5212e3          	bne	tp,t0,80067b4 <test_30+0x4>
 80067d4:	00100e9b          	addiw	t4,zero,1
 80067d8:	01fe9e93          	slli	t4,t4,0x1f
 80067dc:	01e00193          	li	gp,30
 80067e0:	01d70463          	beq	a4,t4,80067e8 <test_31>
 80067e4:	1150b06f          	j	80120f8 <fail>

00000000080067e8 <test_31>:
  TEST_RR_SRC12_BYPASS( 31, 1, 0, sll, 0x0000000000000080, 0x0000000000000001, 7  );
 80067e8:	00000213          	li	tp,0
 80067ec:	00100093          	li	ra,1
 80067f0:	00000013          	nop
 80067f4:	00700113          	li	sp,7
 80067f8:	00209733          	sll	a4,ra,sp
 80067fc:	00120213          	addi	tp,tp,1 # 1 <u_mode_trap_table-0x8000003>
 8006800:	00200293          	li	t0,2
 8006804:	fe5214e3          	bne	tp,t0,80067ec <test_31+0x4>
 8006808:	08000e93          	li	t4,128
 800680c:	01f00193          	li	gp,31
 8006810:	01d70463          	beq	a4,t4,8006818 <test_32>
 8006814:	0e50b06f          	j	80120f8 <fail>

0000000008006818 <test_32>:
  TEST_RR_SRC12_BYPASS( 32, 1, 1, sll, 0x0000000000004000, 0x0000000000000001, 14 );
 8006818:	00000213          	li	tp,0
 800681c:	00100093          	li	ra,1
 8006820:	00000013          	nop
 8006824:	00e00113          	li	sp,14
 8006828:	00000013          	nop
 800682c:	00209733          	sll	a4,ra,sp
 8006830:	00120213          	addi	tp,tp,1 # 1 <u_mode_trap_table-0x8000003>
 8006834:	00200293          	li	t0,2
 8006838:	fe5212e3          	bne	tp,t0,800681c <test_32+0x4>
 800683c:	00004eb7          	lui	t4,0x4
 8006840:	02000193          	li	gp,32
 8006844:	01d70463          	beq	a4,t4,800684c <test_33>
 8006848:	0b10b06f          	j	80120f8 <fail>

000000000800684c <test_33>:
  TEST_RR_SRC12_BYPASS( 33, 2, 0, sll, 0x0000000080000000, 0x0000000000000001, 31 );
 800684c:	00000213          	li	tp,0
 8006850:	00100093          	li	ra,1
 8006854:	00000013          	nop
 8006858:	00000013          	nop
 800685c:	01f00113          	li	sp,31
 8006860:	00209733          	sll	a4,ra,sp
 8006864:	00120213          	addi	tp,tp,1 # 1 <u_mode_trap_table-0x8000003>
 8006868:	00200293          	li	t0,2
 800686c:	fe5212e3          	bne	tp,t0,8006850 <test_33+0x4>
 8006870:	00100e9b          	addiw	t4,zero,1
 8006874:	01fe9e93          	slli	t4,t4,0x1f
 8006878:	02100193          	li	gp,33
 800687c:	01d70463          	beq	a4,t4,8006884 <test_34>
 8006880:	0790b06f          	j	80120f8 <fail>

0000000008006884 <test_34>:

  TEST_RR_SRC21_BYPASS( 34, 0, 0, sll, 0x0000000000000080, 0x0000000000000001, 7  );
 8006884:	00000213          	li	tp,0
 8006888:	00700113          	li	sp,7
 800688c:	00100093          	li	ra,1
 8006890:	00209733          	sll	a4,ra,sp
 8006894:	00120213          	addi	tp,tp,1 # 1 <u_mode_trap_table-0x8000003>
 8006898:	00200293          	li	t0,2
 800689c:	fe5216e3          	bne	tp,t0,8006888 <test_34+0x4>
 80068a0:	08000e93          	li	t4,128
 80068a4:	02200193          	li	gp,34
 80068a8:	01d70463          	beq	a4,t4,80068b0 <test_35>
 80068ac:	04d0b06f          	j	80120f8 <fail>

00000000080068b0 <test_35>:
  TEST_RR_SRC21_BYPASS( 35, 0, 1, sll, 0x0000000000004000, 0x0000000000000001, 14 );
 80068b0:	00000213          	li	tp,0
 80068b4:	00e00113          	li	sp,14
 80068b8:	00100093          	li	ra,1
 80068bc:	00000013          	nop
 80068c0:	00209733          	sll	a4,ra,sp
 80068c4:	00120213          	addi	tp,tp,1 # 1 <u_mode_trap_table-0x8000003>
 80068c8:	00200293          	li	t0,2
 80068cc:	fe5214e3          	bne	tp,t0,80068b4 <test_35+0x4>
 80068d0:	00004eb7          	lui	t4,0x4
 80068d4:	02300193          	li	gp,35
 80068d8:	01d70463          	beq	a4,t4,80068e0 <test_36>
 80068dc:	01d0b06f          	j	80120f8 <fail>

00000000080068e0 <test_36>:
  TEST_RR_SRC21_BYPASS( 36, 0, 2, sll, 0x0000000080000000, 0x0000000000000001, 31 );
 80068e0:	00000213          	li	tp,0
 80068e4:	01f00113          	li	sp,31
 80068e8:	00100093          	li	ra,1
 80068ec:	00000013          	nop
 80068f0:	00000013          	nop
 80068f4:	00209733          	sll	a4,ra,sp
 80068f8:	00120213          	addi	tp,tp,1 # 1 <u_mode_trap_table-0x8000003>
 80068fc:	00200293          	li	t0,2
 8006900:	fe5212e3          	bne	tp,t0,80068e4 <test_36+0x4>
 8006904:	00100e9b          	addiw	t4,zero,1
 8006908:	01fe9e93          	slli	t4,t4,0x1f
 800690c:	02400193          	li	gp,36
 8006910:	01d70463          	beq	a4,t4,8006918 <test_37>
 8006914:	7e40b06f          	j	80120f8 <fail>

0000000008006918 <test_37>:
  TEST_RR_SRC21_BYPASS( 37, 1, 0, sll, 0x0000000000000080, 0x0000000000000001, 7  );
 8006918:	00000213          	li	tp,0
 800691c:	00700113          	li	sp,7
 8006920:	00000013          	nop
 8006924:	00100093          	li	ra,1
 8006928:	00209733          	sll	a4,ra,sp
 800692c:	00120213          	addi	tp,tp,1 # 1 <u_mode_trap_table-0x8000003>
 8006930:	00200293          	li	t0,2
 8006934:	fe5214e3          	bne	tp,t0,800691c <test_37+0x4>
 8006938:	08000e93          	li	t4,128
 800693c:	02500193          	li	gp,37
 8006940:	01d70463          	beq	a4,t4,8006948 <test_38>
 8006944:	7b40b06f          	j	80120f8 <fail>

0000000008006948 <test_38>:
  TEST_RR_SRC21_BYPASS( 38, 1, 1, sll, 0x0000000000004000, 0x0000000000000001, 14 );
 8006948:	00000213          	li	tp,0
 800694c:	00e00113          	li	sp,14
 8006950:	00000013          	nop
 8006954:	00100093          	li	ra,1
 8006958:	00000013          	nop
 800695c:	00209733          	sll	a4,ra,sp
 8006960:	00120213          	addi	tp,tp,1 # 1 <u_mode_trap_table-0x8000003>
 8006964:	00200293          	li	t0,2
 8006968:	fe5212e3          	bne	tp,t0,800694c <test_38+0x4>
 800696c:	00004eb7          	lui	t4,0x4
 8006970:	02600193          	li	gp,38
 8006974:	01d70463          	beq	a4,t4,800697c <test_39>
 8006978:	7800b06f          	j	80120f8 <fail>

000000000800697c <test_39>:
  TEST_RR_SRC21_BYPASS( 39, 2, 0, sll, 0x0000000080000000, 0x0000000000000001, 31 );
 800697c:	00000213          	li	tp,0
 8006980:	01f00113          	li	sp,31
 8006984:	00000013          	nop
 8006988:	00000013          	nop
 800698c:	00100093          	li	ra,1
 8006990:	00209733          	sll	a4,ra,sp
 8006994:	00120213          	addi	tp,tp,1 # 1 <u_mode_trap_table-0x8000003>
 8006998:	00200293          	li	t0,2
 800699c:	fe5212e3          	bne	tp,t0,8006980 <test_39+0x4>
 80069a0:	00100e9b          	addiw	t4,zero,1
 80069a4:	01fe9e93          	slli	t4,t4,0x1f
 80069a8:	02700193          	li	gp,39
 80069ac:	01d70463          	beq	a4,t4,80069b4 <test_40>
 80069b0:	7480b06f          	j	80120f8 <fail>

00000000080069b4 <test_40>:

  TEST_RR_ZEROSRC1( 40, sll, 0, 15 );
 80069b4:	00f00093          	li	ra,15
 80069b8:	00101133          	sll	sp,zero,ra
 80069bc:	00000e93          	li	t4,0
 80069c0:	02800193          	li	gp,40
 80069c4:	01d10463          	beq	sp,t4,80069cc <test_41>
 80069c8:	7300b06f          	j	80120f8 <fail>

00000000080069cc <test_41>:
  TEST_RR_ZEROSRC2( 41, sll, 32, 32 );
 80069cc:	02000093          	li	ra,32
 80069d0:	00009133          	sll	sp,ra,zero
 80069d4:	02000e93          	li	t4,32
 80069d8:	02900193          	li	gp,41
 80069dc:	01d10463          	beq	sp,t4,80069e4 <test_42>
 80069e0:	7180b06f          	j	80120f8 <fail>

00000000080069e4 <test_42>:
  TEST_RR_ZEROSRC12( 42, sll, 0 );
 80069e4:	000010b3          	sll	ra,zero,zero
 80069e8:	00000e93          	li	t4,0
 80069ec:	02a00193          	li	gp,42
 80069f0:	01d08463          	beq	ra,t4,80069f8 <test_43>
 80069f4:	7040b06f          	j	80120f8 <fail>

00000000080069f8 <test_43>:
  TEST_RR_ZERODEST( 43, sll, 1024, 2048 );
 80069f8:	40000093          	li	ra,1024
 80069fc:	00001137          	lui	sp,0x1
 8006a00:	8001011b          	addiw	sp,sp,-2048
 8006a04:	00209033          	sll	zero,ra,sp
 8006a08:	00000e93          	li	t4,0
 8006a0c:	02b00193          	li	gp,43
 8006a10:	01d00463          	beq	zero,t4,8006a18 <test_43+0x20>
 8006a14:	6e40b06f          	j	80120f8 <fail>

  TEST_PASSFAIL

RVTEST_CODE_END
 8006a18:	c0001073          	unimp

0000000008006a1c <test_2>:

  #-------------------------------------------------------------
  # Arithmetic tests
  #-------------------------------------------------------------

  TEST_IMM_OP( 2,  slli, 0x0000000000000001, 0x0000000000000001, 0  );
 8006a1c:	00100093          	li	ra,1
 8006a20:	00009713          	slli	a4,ra,0x0
 8006a24:	00100e93          	li	t4,1
 8006a28:	00200193          	li	gp,2
 8006a2c:	01d70463          	beq	a4,t4,8006a34 <test_3>
 8006a30:	6c80b06f          	j	80120f8 <fail>

0000000008006a34 <test_3>:
  TEST_IMM_OP( 3,  slli, 0x0000000000000002, 0x0000000000000001, 1  );
 8006a34:	00100093          	li	ra,1
 8006a38:	00109713          	slli	a4,ra,0x1
 8006a3c:	00200e93          	li	t4,2
 8006a40:	00300193          	li	gp,3
 8006a44:	01d70463          	beq	a4,t4,8006a4c <test_4>
 8006a48:	6b00b06f          	j	80120f8 <fail>

0000000008006a4c <test_4>:
  TEST_IMM_OP( 4,  slli, 0x0000000000000080, 0x0000000000000001, 7  );
 8006a4c:	00100093          	li	ra,1
 8006a50:	00709713          	slli	a4,ra,0x7
 8006a54:	08000e93          	li	t4,128
 8006a58:	00400193          	li	gp,4
 8006a5c:	01d70463          	beq	a4,t4,8006a64 <test_5>
 8006a60:	6980b06f          	j	80120f8 <fail>

0000000008006a64 <test_5>:
  TEST_IMM_OP( 5,  slli, 0x0000000000004000, 0x0000000000000001, 14 );
 8006a64:	00100093          	li	ra,1
 8006a68:	00e09713          	slli	a4,ra,0xe
 8006a6c:	00004eb7          	lui	t4,0x4
 8006a70:	00500193          	li	gp,5
 8006a74:	01d70463          	beq	a4,t4,8006a7c <test_6>
 8006a78:	6800b06f          	j	80120f8 <fail>

0000000008006a7c <test_6>:
  TEST_IMM_OP( 6,  slli, 0x0000000080000000, 0x0000000000000001, 31 );
 8006a7c:	00100093          	li	ra,1
 8006a80:	01f09713          	slli	a4,ra,0x1f
 8006a84:	00100e9b          	addiw	t4,zero,1
 8006a88:	01fe9e93          	slli	t4,t4,0x1f
 8006a8c:	00600193          	li	gp,6
 8006a90:	01d70463          	beq	a4,t4,8006a98 <test_7>
 8006a94:	6640b06f          	j	80120f8 <fail>

0000000008006a98 <test_7>:

  TEST_IMM_OP( 7,  slli, 0xffffffffffffffff, 0xffffffffffffffff, 0  );
 8006a98:	fff00093          	li	ra,-1
 8006a9c:	00009713          	slli	a4,ra,0x0
 8006aa0:	fff00e93          	li	t4,-1
 8006aa4:	00700193          	li	gp,7
 8006aa8:	01d70463          	beq	a4,t4,8006ab0 <test_8>
 8006aac:	64c0b06f          	j	80120f8 <fail>

0000000008006ab0 <test_8>:
  TEST_IMM_OP( 8,  slli, 0xfffffffffffffffe, 0xffffffffffffffff, 1  );
 8006ab0:	fff00093          	li	ra,-1
 8006ab4:	00109713          	slli	a4,ra,0x1
 8006ab8:	ffe00e93          	li	t4,-2
 8006abc:	00800193          	li	gp,8
 8006ac0:	01d70463          	beq	a4,t4,8006ac8 <test_9>
 8006ac4:	6340b06f          	j	80120f8 <fail>

0000000008006ac8 <test_9>:
  TEST_IMM_OP( 9,  slli, 0xffffffffffffff80, 0xffffffffffffffff, 7  );
 8006ac8:	fff00093          	li	ra,-1
 8006acc:	00709713          	slli	a4,ra,0x7
 8006ad0:	f8000e93          	li	t4,-128
 8006ad4:	00900193          	li	gp,9
 8006ad8:	01d70463          	beq	a4,t4,8006ae0 <test_10>
 8006adc:	61c0b06f          	j	80120f8 <fail>

0000000008006ae0 <test_10>:
  TEST_IMM_OP( 10, slli, 0xffffffffffffc000, 0xffffffffffffffff, 14 );
 8006ae0:	fff00093          	li	ra,-1
 8006ae4:	00e09713          	slli	a4,ra,0xe
 8006ae8:	ffffceb7          	lui	t4,0xffffc
 8006aec:	00a00193          	li	gp,10
 8006af0:	01d70463          	beq	a4,t4,8006af8 <test_11>
 8006af4:	6040b06f          	j	80120f8 <fail>

0000000008006af8 <test_11>:
  TEST_IMM_OP( 11, slli, 0xffffffff80000000, 0xffffffffffffffff, 31 );
 8006af8:	fff00093          	li	ra,-1
 8006afc:	01f09713          	slli	a4,ra,0x1f
 8006b00:	80000eb7          	lui	t4,0x80000
 8006b04:	00b00193          	li	gp,11
 8006b08:	01d70463          	beq	a4,t4,8006b10 <test_12>
 8006b0c:	5ec0b06f          	j	80120f8 <fail>

0000000008006b10 <test_12>:

  TEST_IMM_OP( 12, slli, 0x0000000021212121, 0x0000000021212121, 0  );
 8006b10:	212120b7          	lui	ra,0x21212
 8006b14:	1210809b          	addiw	ra,ra,289
 8006b18:	00009713          	slli	a4,ra,0x0
 8006b1c:	21212eb7          	lui	t4,0x21212
 8006b20:	121e8e9b          	addiw	t4,t4,289
 8006b24:	00c00193          	li	gp,12
 8006b28:	01d70463          	beq	a4,t4,8006b30 <test_13>
 8006b2c:	5cc0b06f          	j	80120f8 <fail>

0000000008006b30 <test_13>:
  TEST_IMM_OP( 13, slli, 0x0000000042424242, 0x0000000021212121, 1  );
 8006b30:	212120b7          	lui	ra,0x21212
 8006b34:	1210809b          	addiw	ra,ra,289
 8006b38:	00109713          	slli	a4,ra,0x1
 8006b3c:	42424eb7          	lui	t4,0x42424
 8006b40:	242e8e9b          	addiw	t4,t4,578
 8006b44:	00d00193          	li	gp,13
 8006b48:	01d70463          	beq	a4,t4,8006b50 <test_14>
 8006b4c:	5ac0b06f          	j	80120f8 <fail>

0000000008006b50 <test_14>:
  TEST_IMM_OP( 14, slli, 0x0000001090909080, 0x0000000021212121, 7  );
 8006b50:	212120b7          	lui	ra,0x21212
 8006b54:	1210809b          	addiw	ra,ra,289
 8006b58:	00709713          	slli	a4,ra,0x7
 8006b5c:	01091eb7          	lui	t4,0x1091
 8006b60:	909e8e9b          	addiw	t4,t4,-1783
 8006b64:	00ce9e93          	slli	t4,t4,0xc
 8006b68:	080e8e93          	addi	t4,t4,128 # 1091080 <u_mode_trap_table-0x6f6ef84>
 8006b6c:	00e00193          	li	gp,14
 8006b70:	01d70463          	beq	a4,t4,8006b78 <test_15>
 8006b74:	5840b06f          	j	80120f8 <fail>

0000000008006b78 <test_15>:
  TEST_IMM_OP( 15, slli, 0x0000084848484000, 0x0000000021212121, 14 );
 8006b78:	212120b7          	lui	ra,0x21212
 8006b7c:	1210809b          	addiw	ra,ra,289
 8006b80:	00e09713          	slli	a4,ra,0xe
 8006b84:	21212eb7          	lui	t4,0x21212
 8006b88:	121e8e9b          	addiw	t4,t4,289
 8006b8c:	00ee9e93          	slli	t4,t4,0xe
 8006b90:	00f00193          	li	gp,15
 8006b94:	01d70463          	beq	a4,t4,8006b9c <test_16>
 8006b98:	5600b06f          	j	80120f8 <fail>

0000000008006b9c <test_16>:
  TEST_IMM_OP( 16, slli, 0x1090909080000000, 0x0000000021212121, 31 );
 8006b9c:	212120b7          	lui	ra,0x21212
 8006ba0:	1210809b          	addiw	ra,ra,289
 8006ba4:	01f09713          	slli	a4,ra,0x1f
 8006ba8:	21212eb7          	lui	t4,0x21212
 8006bac:	121e8e9b          	addiw	t4,t4,289
 8006bb0:	01fe9e93          	slli	t4,t4,0x1f
 8006bb4:	01000193          	li	gp,16
 8006bb8:	01d70463          	beq	a4,t4,8006bc0 <test_50>
 8006bbc:	53c0b06f          	j	80120f8 <fail>

0000000008006bc0 <test_50>:

#if __riscv_xlen == 64
  TEST_IMM_OP( 50, slli, 0x8000000000000000, 0x0000000000000001, 63 );
 8006bc0:	00100093          	li	ra,1
 8006bc4:	03f09713          	slli	a4,ra,0x3f
 8006bc8:	fff00e9b          	addiw	t4,zero,-1
 8006bcc:	03fe9e93          	slli	t4,t4,0x3f
 8006bd0:	03200193          	li	gp,50
 8006bd4:	01d70463          	beq	a4,t4,8006bdc <test_51>
 8006bd8:	5200b06f          	j	80120f8 <fail>

0000000008006bdc <test_51>:
  TEST_IMM_OP( 51, slli, 0xffffff8000000000, 0xffffffffffffffff, 39 );
 8006bdc:	fff00093          	li	ra,-1
 8006be0:	02709713          	slli	a4,ra,0x27
 8006be4:	fff00e9b          	addiw	t4,zero,-1
 8006be8:	027e9e93          	slli	t4,t4,0x27
 8006bec:	03300193          	li	gp,51
 8006bf0:	01d70463          	beq	a4,t4,8006bf8 <test_52>
 8006bf4:	5040b06f          	j	80120f8 <fail>

0000000008006bf8 <test_52>:
  TEST_IMM_OP( 52, slli, 0x0909080000000000, 0x0000000021212121, 43 );
 8006bf8:	212120b7          	lui	ra,0x21212
 8006bfc:	1210809b          	addiw	ra,ra,289
 8006c00:	02b09713          	slli	a4,ra,0x2b
 8006c04:	00012eb7          	lui	t4,0x12
 8006c08:	121e8e9b          	addiw	t4,t4,289
 8006c0c:	02be9e93          	slli	t4,t4,0x2b
 8006c10:	03400193          	li	gp,52
 8006c14:	01d70463          	beq	a4,t4,8006c1c <test_17>
 8006c18:	4e00b06f          	j	80120f8 <fail>

0000000008006c1c <test_17>:

  #-------------------------------------------------------------
  # Source/Destination tests
  #-------------------------------------------------------------

  TEST_IMM_SRC1_EQ_DEST( 17, slli, 0x00000080, 0x00000001, 7 );
 8006c1c:	00100093          	li	ra,1
 8006c20:	00709093          	slli	ra,ra,0x7
 8006c24:	08000e93          	li	t4,128
 8006c28:	01100193          	li	gp,17
 8006c2c:	01d08463          	beq	ra,t4,8006c34 <test_18>
 8006c30:	4c80b06f          	j	80120f8 <fail>

0000000008006c34 <test_18>:

  #-------------------------------------------------------------
  # Bypassing tests
  #-------------------------------------------------------------

  TEST_IMM_DEST_BYPASS( 18, 0, slli, 0x0000000000000080, 0x0000000000000001, 7  );
 8006c34:	00000213          	li	tp,0
 8006c38:	00100093          	li	ra,1
 8006c3c:	00709713          	slli	a4,ra,0x7
 8006c40:	00070313          	mv	t1,a4
 8006c44:	00120213          	addi	tp,tp,1 # 1 <u_mode_trap_table-0x8000003>
 8006c48:	00200293          	li	t0,2
 8006c4c:	fe5216e3          	bne	tp,t0,8006c38 <test_18+0x4>
 8006c50:	08000e93          	li	t4,128
 8006c54:	01200193          	li	gp,18
 8006c58:	01d30463          	beq	t1,t4,8006c60 <test_19>
 8006c5c:	49c0b06f          	j	80120f8 <fail>

0000000008006c60 <test_19>:
  TEST_IMM_DEST_BYPASS( 19, 1, slli, 0x0000000000004000, 0x0000000000000001, 14 );
 8006c60:	00000213          	li	tp,0
 8006c64:	00100093          	li	ra,1
 8006c68:	00e09713          	slli	a4,ra,0xe
 8006c6c:	00000013          	nop
 8006c70:	00070313          	mv	t1,a4
 8006c74:	00120213          	addi	tp,tp,1 # 1 <u_mode_trap_table-0x8000003>
 8006c78:	00200293          	li	t0,2
 8006c7c:	fe5214e3          	bne	tp,t0,8006c64 <test_19+0x4>
 8006c80:	00004eb7          	lui	t4,0x4
 8006c84:	01300193          	li	gp,19
 8006c88:	01d30463          	beq	t1,t4,8006c90 <test_20>
 8006c8c:	46c0b06f          	j	80120f8 <fail>

0000000008006c90 <test_20>:
  TEST_IMM_DEST_BYPASS( 20, 2, slli, 0x0000000080000000, 0x0000000000000001, 31 );
 8006c90:	00000213          	li	tp,0
 8006c94:	00100093          	li	ra,1
 8006c98:	01f09713          	slli	a4,ra,0x1f
 8006c9c:	00000013          	nop
 8006ca0:	00000013          	nop
 8006ca4:	00070313          	mv	t1,a4
 8006ca8:	00120213          	addi	tp,tp,1 # 1 <u_mode_trap_table-0x8000003>
 8006cac:	00200293          	li	t0,2
 8006cb0:	fe5212e3          	bne	tp,t0,8006c94 <test_20+0x4>
 8006cb4:	00100e9b          	addiw	t4,zero,1
 8006cb8:	01fe9e93          	slli	t4,t4,0x1f
 8006cbc:	01400193          	li	gp,20
 8006cc0:	01d30463          	beq	t1,t4,8006cc8 <test_21>
 8006cc4:	4340b06f          	j	80120f8 <fail>

0000000008006cc8 <test_21>:

  TEST_IMM_SRC1_BYPASS( 21, 0, slli, 0x0000000000000080, 0x0000000000000001, 7  );
 8006cc8:	00000213          	li	tp,0
 8006ccc:	00100093          	li	ra,1
 8006cd0:	00709713          	slli	a4,ra,0x7
 8006cd4:	00120213          	addi	tp,tp,1 # 1 <u_mode_trap_table-0x8000003>
 8006cd8:	00200293          	li	t0,2
 8006cdc:	fe5218e3          	bne	tp,t0,8006ccc <test_21+0x4>
 8006ce0:	08000e93          	li	t4,128
 8006ce4:	01500193          	li	gp,21
 8006ce8:	01d70463          	beq	a4,t4,8006cf0 <test_22>
 8006cec:	40c0b06f          	j	80120f8 <fail>

0000000008006cf0 <test_22>:
  TEST_IMM_SRC1_BYPASS( 22, 1, slli, 0x0000000000004000, 0x0000000000000001, 14 );
 8006cf0:	00000213          	li	tp,0
 8006cf4:	00100093          	li	ra,1
 8006cf8:	00000013          	nop
 8006cfc:	00e09713          	slli	a4,ra,0xe
 8006d00:	00120213          	addi	tp,tp,1 # 1 <u_mode_trap_table-0x8000003>
 8006d04:	00200293          	li	t0,2
 8006d08:	fe5216e3          	bne	tp,t0,8006cf4 <test_22+0x4>
 8006d0c:	00004eb7          	lui	t4,0x4
 8006d10:	01600193          	li	gp,22
 8006d14:	01d70463          	beq	a4,t4,8006d1c <test_23>
 8006d18:	3e00b06f          	j	80120f8 <fail>

0000000008006d1c <test_23>:
  TEST_IMM_SRC1_BYPASS( 23, 2, slli, 0x0000000080000000, 0x0000000000000001, 31 );
 8006d1c:	00000213          	li	tp,0
 8006d20:	00100093          	li	ra,1
 8006d24:	00000013          	nop
 8006d28:	00000013          	nop
 8006d2c:	01f09713          	slli	a4,ra,0x1f
 8006d30:	00120213          	addi	tp,tp,1 # 1 <u_mode_trap_table-0x8000003>
 8006d34:	00200293          	li	t0,2
 8006d38:	fe5214e3          	bne	tp,t0,8006d20 <test_23+0x4>
 8006d3c:	00100e9b          	addiw	t4,zero,1
 8006d40:	01fe9e93          	slli	t4,t4,0x1f
 8006d44:	01700193          	li	gp,23
 8006d48:	01d70463          	beq	a4,t4,8006d50 <test_24>
 8006d4c:	3ac0b06f          	j	80120f8 <fail>

0000000008006d50 <test_24>:

  TEST_IMM_ZEROSRC1( 24, slli, 0, 31 );
 8006d50:	01f01093          	slli	ra,zero,0x1f
 8006d54:	00000e93          	li	t4,0
 8006d58:	01800193          	li	gp,24
 8006d5c:	01d08463          	beq	ra,t4,8006d64 <test_25>
 8006d60:	3980b06f          	j	80120f8 <fail>

0000000008006d64 <test_25>:
  TEST_IMM_ZERODEST( 25, slli, 33, 20 );
 8006d64:	02100093          	li	ra,33
 8006d68:	01409013          	slli	zero,ra,0x14
 8006d6c:	00000e93          	li	t4,0
 8006d70:	01900193          	li	gp,25
 8006d74:	01d00463          	beq	zero,t4,8006d7c <test_25+0x18>
 8006d78:	3800b06f          	j	80120f8 <fail>

  TEST_PASSFAIL

RVTEST_CODE_END
 8006d7c:	c0001073          	unimp

0000000008006d80 <test_2>:

  #-------------------------------------------------------------
  # Arithmetic tests
  #-------------------------------------------------------------

  TEST_IMM_OP( 2,  slliw, 0x0000000000000001, 0x0000000000000001, 0  );
 8006d80:	00100093          	li	ra,1
 8006d84:	0000971b          	slliw	a4,ra,0x0
 8006d88:	00100e93          	li	t4,1
 8006d8c:	00200193          	li	gp,2
 8006d90:	01d70463          	beq	a4,t4,8006d98 <test_3>
 8006d94:	3640b06f          	j	80120f8 <fail>

0000000008006d98 <test_3>:
  TEST_IMM_OP( 3,  slliw, 0x0000000000000002, 0x0000000000000001, 1  );
 8006d98:	00100093          	li	ra,1
 8006d9c:	0010971b          	slliw	a4,ra,0x1
 8006da0:	00200e93          	li	t4,2
 8006da4:	00300193          	li	gp,3
 8006da8:	01d70463          	beq	a4,t4,8006db0 <test_4>
 8006dac:	34c0b06f          	j	80120f8 <fail>

0000000008006db0 <test_4>:
  TEST_IMM_OP( 4,  slliw, 0x0000000000000080, 0x0000000000000001, 7  );
 8006db0:	00100093          	li	ra,1
 8006db4:	0070971b          	slliw	a4,ra,0x7
 8006db8:	08000e93          	li	t4,128
 8006dbc:	00400193          	li	gp,4
 8006dc0:	01d70463          	beq	a4,t4,8006dc8 <test_5>
 8006dc4:	3340b06f          	j	80120f8 <fail>

0000000008006dc8 <test_5>:
  TEST_IMM_OP( 5,  slliw, 0x0000000000004000, 0x0000000000000001, 14 );
 8006dc8:	00100093          	li	ra,1
 8006dcc:	00e0971b          	slliw	a4,ra,0xe
 8006dd0:	00004eb7          	lui	t4,0x4
 8006dd4:	00500193          	li	gp,5
 8006dd8:	01d70463          	beq	a4,t4,8006de0 <test_6>
 8006ddc:	31c0b06f          	j	80120f8 <fail>

0000000008006de0 <test_6>:
  TEST_IMM_OP( 6,  slliw, 0xffffffff80000000, 0x0000000000000001, 31 );
 8006de0:	00100093          	li	ra,1
 8006de4:	01f0971b          	slliw	a4,ra,0x1f
 8006de8:	80000eb7          	lui	t4,0x80000
 8006dec:	00600193          	li	gp,6
 8006df0:	01d70463          	beq	a4,t4,8006df8 <test_7>
 8006df4:	3040b06f          	j	80120f8 <fail>

0000000008006df8 <test_7>:

  TEST_IMM_OP( 7,  slliw, 0xffffffffffffffff, 0xffffffffffffffff, 0  );
 8006df8:	fff00093          	li	ra,-1
 8006dfc:	0000971b          	slliw	a4,ra,0x0
 8006e00:	fff00e93          	li	t4,-1
 8006e04:	00700193          	li	gp,7
 8006e08:	01d70463          	beq	a4,t4,8006e10 <test_8>
 8006e0c:	2ec0b06f          	j	80120f8 <fail>

0000000008006e10 <test_8>:
  TEST_IMM_OP( 8,  slliw, 0xfffffffffffffffe, 0xffffffffffffffff, 1  );
 8006e10:	fff00093          	li	ra,-1
 8006e14:	0010971b          	slliw	a4,ra,0x1
 8006e18:	ffe00e93          	li	t4,-2
 8006e1c:	00800193          	li	gp,8
 8006e20:	01d70463          	beq	a4,t4,8006e28 <test_9>
 8006e24:	2d40b06f          	j	80120f8 <fail>

0000000008006e28 <test_9>:
  TEST_IMM_OP( 9,  slliw, 0xffffffffffffff80, 0xffffffffffffffff, 7  );
 8006e28:	fff00093          	li	ra,-1
 8006e2c:	0070971b          	slliw	a4,ra,0x7
 8006e30:	f8000e93          	li	t4,-128
 8006e34:	00900193          	li	gp,9
 8006e38:	01d70463          	beq	a4,t4,8006e40 <test_10>
 8006e3c:	2bc0b06f          	j	80120f8 <fail>

0000000008006e40 <test_10>:
  TEST_IMM_OP( 10, slliw, 0xffffffffffffc000, 0xffffffffffffffff, 14 );
 8006e40:	fff00093          	li	ra,-1
 8006e44:	00e0971b          	slliw	a4,ra,0xe
 8006e48:	ffffceb7          	lui	t4,0xffffc
 8006e4c:	00a00193          	li	gp,10
 8006e50:	01d70463          	beq	a4,t4,8006e58 <test_11>
 8006e54:	2a40b06f          	j	80120f8 <fail>

0000000008006e58 <test_11>:
  TEST_IMM_OP( 11, slliw, 0xffffffff80000000, 0xffffffffffffffff, 31 );
 8006e58:	fff00093          	li	ra,-1
 8006e5c:	01f0971b          	slliw	a4,ra,0x1f
 8006e60:	80000eb7          	lui	t4,0x80000
 8006e64:	00b00193          	li	gp,11
 8006e68:	01d70463          	beq	a4,t4,8006e70 <test_12>
 8006e6c:	28c0b06f          	j	80120f8 <fail>

0000000008006e70 <test_12>:

  TEST_IMM_OP( 12, slliw, 0x0000000021212121, 0x0000000021212121, 0  );
 8006e70:	212120b7          	lui	ra,0x21212
 8006e74:	1210809b          	addiw	ra,ra,289
 8006e78:	0000971b          	slliw	a4,ra,0x0
 8006e7c:	21212eb7          	lui	t4,0x21212
 8006e80:	121e8e9b          	addiw	t4,t4,289
 8006e84:	00c00193          	li	gp,12
 8006e88:	01d70463          	beq	a4,t4,8006e90 <test_13>
 8006e8c:	26c0b06f          	j	80120f8 <fail>

0000000008006e90 <test_13>:
  TEST_IMM_OP( 13, slliw, 0x0000000042424242, 0x0000000021212121, 1  );
 8006e90:	212120b7          	lui	ra,0x21212
 8006e94:	1210809b          	addiw	ra,ra,289
 8006e98:	0010971b          	slliw	a4,ra,0x1
 8006e9c:	42424eb7          	lui	t4,0x42424
 8006ea0:	242e8e9b          	addiw	t4,t4,578
 8006ea4:	00d00193          	li	gp,13
 8006ea8:	01d70463          	beq	a4,t4,8006eb0 <test_14>
 8006eac:	24c0b06f          	j	80120f8 <fail>

0000000008006eb0 <test_14>:
  TEST_IMM_OP( 14, slliw, 0xffffffff90909080, 0x0000000021212121, 7  );
 8006eb0:	212120b7          	lui	ra,0x21212
 8006eb4:	1210809b          	addiw	ra,ra,289
 8006eb8:	0070971b          	slliw	a4,ra,0x7
 8006ebc:	90909eb7          	lui	t4,0x90909
 8006ec0:	080e8e9b          	addiw	t4,t4,128
 8006ec4:	00e00193          	li	gp,14
 8006ec8:	01d70463          	beq	a4,t4,8006ed0 <test_15>
 8006ecc:	22c0b06f          	j	80120f8 <fail>

0000000008006ed0 <test_15>:
  TEST_IMM_OP( 15, slliw, 0x0000000048484000, 0x0000000021212121, 14 );
 8006ed0:	212120b7          	lui	ra,0x21212
 8006ed4:	1210809b          	addiw	ra,ra,289
 8006ed8:	00e0971b          	slliw	a4,ra,0xe
 8006edc:	48484eb7          	lui	t4,0x48484
 8006ee0:	00f00193          	li	gp,15
 8006ee4:	01d70463          	beq	a4,t4,8006eec <test_16>
 8006ee8:	2100b06f          	j	80120f8 <fail>

0000000008006eec <test_16>:
  TEST_IMM_OP( 16, slliw, 0xffffffff80000000, 0x0000000021212121, 31 );
 8006eec:	212120b7          	lui	ra,0x21212
 8006ef0:	1210809b          	addiw	ra,ra,289
 8006ef4:	01f0971b          	slliw	a4,ra,0x1f
 8006ef8:	80000eb7          	lui	t4,0x80000
 8006efc:	01000193          	li	gp,16
 8006f00:	01d70463          	beq	a4,t4,8006f08 <test_44>
 8006f04:	1f40b06f          	j	80120f8 <fail>

0000000008006f08 <test_44>:

  # Verify that shifts ignore top 32 (using true 64-bit values)

  TEST_IMM_OP( 44, slliw, 0x0000000012345678, 0xffffffff12345678, 0 );
 8006f08:	fff120b7          	lui	ra,0xfff12
 8006f0c:	3450809b          	addiw	ra,ra,837
 8006f10:	00c09093          	slli	ra,ra,0xc
 8006f14:	67808093          	addi	ra,ra,1656 # fffffffffff12678 <_end+0xfffffffff7eff018>
 8006f18:	0000971b          	slliw	a4,ra,0x0
 8006f1c:	12345eb7          	lui	t4,0x12345
 8006f20:	678e8e9b          	addiw	t4,t4,1656
 8006f24:	02c00193          	li	gp,44
 8006f28:	01d70463          	beq	a4,t4,8006f30 <test_45>
 8006f2c:	1cc0b06f          	j	80120f8 <fail>

0000000008006f30 <test_45>:
  TEST_IMM_OP( 45, slliw, 0x0000000023456780, 0xffffffff12345678, 4 );
 8006f30:	fff120b7          	lui	ra,0xfff12
 8006f34:	3450809b          	addiw	ra,ra,837
 8006f38:	00c09093          	slli	ra,ra,0xc
 8006f3c:	67808093          	addi	ra,ra,1656 # fffffffffff12678 <_end+0xfffffffff7eff018>
 8006f40:	0040971b          	slliw	a4,ra,0x4
 8006f44:	23456eb7          	lui	t4,0x23456
 8006f48:	780e8e9b          	addiw	t4,t4,1920
 8006f4c:	02d00193          	li	gp,45
 8006f50:	01d70463          	beq	a4,t4,8006f58 <test_46>
 8006f54:	1a40b06f          	j	80120f8 <fail>

0000000008006f58 <test_46>:
  TEST_IMM_OP( 46, slliw, 0xffffffff92345678, 0x0000000092345678, 0 );
 8006f58:	000920b7          	lui	ra,0x92
 8006f5c:	3450809b          	addiw	ra,ra,837
 8006f60:	00c09093          	slli	ra,ra,0xc
 8006f64:	67808093          	addi	ra,ra,1656 # 92678 <u_mode_trap_table-0x7f6d98c>
 8006f68:	0000971b          	slliw	a4,ra,0x0
 8006f6c:	92345eb7          	lui	t4,0x92345
 8006f70:	678e8e9b          	addiw	t4,t4,1656
 8006f74:	02e00193          	li	gp,46
 8006f78:	01d70463          	beq	a4,t4,8006f80 <test_47>
 8006f7c:	17c0b06f          	j	80120f8 <fail>

0000000008006f80 <test_47>:
  TEST_IMM_OP( 47, slliw, 0xffffffff93456780, 0x0000000099345678, 4 );
 8006f80:	000990b7          	lui	ra,0x99
 8006f84:	3450809b          	addiw	ra,ra,837
 8006f88:	00c09093          	slli	ra,ra,0xc
 8006f8c:	67808093          	addi	ra,ra,1656 # 99678 <u_mode_trap_table-0x7f6698c>
 8006f90:	0040971b          	slliw	a4,ra,0x4
 8006f94:	93456eb7          	lui	t4,0x93456
 8006f98:	780e8e9b          	addiw	t4,t4,1920
 8006f9c:	02f00193          	li	gp,47
 8006fa0:	01d70463          	beq	a4,t4,8006fa8 <test_17>
 8006fa4:	1540b06f          	j	80120f8 <fail>

0000000008006fa8 <test_17>:

  #-------------------------------------------------------------
  # Source/Destination tests
  #-------------------------------------------------------------

  TEST_IMM_SRC1_EQ_DEST( 17, slliw, 0x00000080, 0x00000001, 7 );
 8006fa8:	00100093          	li	ra,1
 8006fac:	0070909b          	slliw	ra,ra,0x7
 8006fb0:	08000e93          	li	t4,128
 8006fb4:	01100193          	li	gp,17
 8006fb8:	01d08463          	beq	ra,t4,8006fc0 <test_18>
 8006fbc:	13c0b06f          	j	80120f8 <fail>

0000000008006fc0 <test_18>:

  #-------------------------------------------------------------
  # Bypassing tests
  #-------------------------------------------------------------

  TEST_IMM_DEST_BYPASS( 18, 0, slliw, 0x0000000000000080, 0x0000000000000001, 7  );
 8006fc0:	00000213          	li	tp,0
 8006fc4:	00100093          	li	ra,1
 8006fc8:	0070971b          	slliw	a4,ra,0x7
 8006fcc:	00070313          	mv	t1,a4
 8006fd0:	00120213          	addi	tp,tp,1 # 1 <u_mode_trap_table-0x8000003>
 8006fd4:	00200293          	li	t0,2
 8006fd8:	fe5216e3          	bne	tp,t0,8006fc4 <test_18+0x4>
 8006fdc:	08000e93          	li	t4,128
 8006fe0:	01200193          	li	gp,18
 8006fe4:	01d30463          	beq	t1,t4,8006fec <test_19>
 8006fe8:	1100b06f          	j	80120f8 <fail>

0000000008006fec <test_19>:
  TEST_IMM_DEST_BYPASS( 19, 1, slliw, 0x0000000000004000, 0x0000000000000001, 14 );
 8006fec:	00000213          	li	tp,0
 8006ff0:	00100093          	li	ra,1
 8006ff4:	00e0971b          	slliw	a4,ra,0xe
 8006ff8:	00000013          	nop
 8006ffc:	00070313          	mv	t1,a4
 8007000:	00120213          	addi	tp,tp,1 # 1 <u_mode_trap_table-0x8000003>
 8007004:	00200293          	li	t0,2
 8007008:	fe5214e3          	bne	tp,t0,8006ff0 <test_19+0x4>
 800700c:	00004eb7          	lui	t4,0x4
 8007010:	01300193          	li	gp,19
 8007014:	01d30463          	beq	t1,t4,800701c <test_20>
 8007018:	0e00b06f          	j	80120f8 <fail>

000000000800701c <test_20>:
  TEST_IMM_DEST_BYPASS( 20, 2, slliw, 0xffffffff80000000, 0x0000000000000001, 31 );
 800701c:	00000213          	li	tp,0
 8007020:	00100093          	li	ra,1
 8007024:	01f0971b          	slliw	a4,ra,0x1f
 8007028:	00000013          	nop
 800702c:	00000013          	nop
 8007030:	00070313          	mv	t1,a4
 8007034:	00120213          	addi	tp,tp,1 # 1 <u_mode_trap_table-0x8000003>
 8007038:	00200293          	li	t0,2
 800703c:	fe5212e3          	bne	tp,t0,8007020 <test_20+0x4>
 8007040:	80000eb7          	lui	t4,0x80000
 8007044:	01400193          	li	gp,20
 8007048:	01d30463          	beq	t1,t4,8007050 <test_21>
 800704c:	0ac0b06f          	j	80120f8 <fail>

0000000008007050 <test_21>:

  TEST_IMM_SRC1_BYPASS( 21, 0, slliw, 0x0000000000000080, 0x0000000000000001, 7  );
 8007050:	00000213          	li	tp,0
 8007054:	00100093          	li	ra,1
 8007058:	0070971b          	slliw	a4,ra,0x7
 800705c:	00120213          	addi	tp,tp,1 # 1 <u_mode_trap_table-0x8000003>
 8007060:	00200293          	li	t0,2
 8007064:	fe5218e3          	bne	tp,t0,8007054 <test_21+0x4>
 8007068:	08000e93          	li	t4,128
 800706c:	01500193          	li	gp,21
 8007070:	01d70463          	beq	a4,t4,8007078 <test_22>
 8007074:	0840b06f          	j	80120f8 <fail>

0000000008007078 <test_22>:
  TEST_IMM_SRC1_BYPASS( 22, 1, slliw, 0x0000000000004000, 0x0000000000000001, 14 );
 8007078:	00000213          	li	tp,0
 800707c:	00100093          	li	ra,1
 8007080:	00000013          	nop
 8007084:	00e0971b          	slliw	a4,ra,0xe
 8007088:	00120213          	addi	tp,tp,1 # 1 <u_mode_trap_table-0x8000003>
 800708c:	00200293          	li	t0,2
 8007090:	fe5216e3          	bne	tp,t0,800707c <test_22+0x4>
 8007094:	00004eb7          	lui	t4,0x4
 8007098:	01600193          	li	gp,22
 800709c:	01d70463          	beq	a4,t4,80070a4 <test_23>
 80070a0:	0580b06f          	j	80120f8 <fail>

00000000080070a4 <test_23>:
  TEST_IMM_SRC1_BYPASS( 23, 2, slliw, 0xffffffff80000000, 0x0000000000000001, 31 );
 80070a4:	00000213          	li	tp,0
 80070a8:	00100093          	li	ra,1
 80070ac:	00000013          	nop
 80070b0:	00000013          	nop
 80070b4:	01f0971b          	slliw	a4,ra,0x1f
 80070b8:	00120213          	addi	tp,tp,1 # 1 <u_mode_trap_table-0x8000003>
 80070bc:	00200293          	li	t0,2
 80070c0:	fe5214e3          	bne	tp,t0,80070a8 <test_23+0x4>
 80070c4:	80000eb7          	lui	t4,0x80000
 80070c8:	01700193          	li	gp,23
 80070cc:	01d70463          	beq	a4,t4,80070d4 <test_24>
 80070d0:	0280b06f          	j	80120f8 <fail>

00000000080070d4 <test_24>:

  TEST_IMM_ZEROSRC1( 24, slliw, 0, 31 );
 80070d4:	01f0109b          	slliw	ra,zero,0x1f
 80070d8:	00000e93          	li	t4,0
 80070dc:	01800193          	li	gp,24
 80070e0:	01d08463          	beq	ra,t4,80070e8 <test_25>
 80070e4:	0140b06f          	j	80120f8 <fail>

00000000080070e8 <test_25>:
  TEST_IMM_ZERODEST( 25, slliw, 31, 28 );
 80070e8:	01f00093          	li	ra,31
 80070ec:	01c0901b          	slliw	zero,ra,0x1c
 80070f0:	00000e93          	li	t4,0
 80070f4:	01900193          	li	gp,25
 80070f8:	01d00463          	beq	zero,t4,8007100 <test_25+0x18>
 80070fc:	7fd0a06f          	j	80120f8 <fail>

  TEST_PASSFAIL

RVTEST_CODE_END
 8007100:	c0001073          	unimp

0000000008007104 <test_2>:

  #-------------------------------------------------------------
  # Arithmetic tests
  #-------------------------------------------------------------

  TEST_RR_OP( 2,  sllw, 0x0000000000000001, 0x0000000000000001, 0  );
 8007104:	00100093          	li	ra,1
 8007108:	00000113          	li	sp,0
 800710c:	0020973b          	sllw	a4,ra,sp
 8007110:	00100e93          	li	t4,1
 8007114:	00200193          	li	gp,2
 8007118:	01d70463          	beq	a4,t4,8007120 <test_3>
 800711c:	7dd0a06f          	j	80120f8 <fail>

0000000008007120 <test_3>:
  TEST_RR_OP( 3,  sllw, 0x0000000000000002, 0x0000000000000001, 1  );
 8007120:	00100093          	li	ra,1
 8007124:	00100113          	li	sp,1
 8007128:	0020973b          	sllw	a4,ra,sp
 800712c:	00200e93          	li	t4,2
 8007130:	00300193          	li	gp,3
 8007134:	01d70463          	beq	a4,t4,800713c <test_4>
 8007138:	7c10a06f          	j	80120f8 <fail>

000000000800713c <test_4>:
  TEST_RR_OP( 4,  sllw, 0x0000000000000080, 0x0000000000000001, 7  );
 800713c:	00100093          	li	ra,1
 8007140:	00700113          	li	sp,7
 8007144:	0020973b          	sllw	a4,ra,sp
 8007148:	08000e93          	li	t4,128
 800714c:	00400193          	li	gp,4
 8007150:	01d70463          	beq	a4,t4,8007158 <test_5>
 8007154:	7a50a06f          	j	80120f8 <fail>

0000000008007158 <test_5>:
  TEST_RR_OP( 5,  sllw, 0x0000000000004000, 0x0000000000000001, 14 );
 8007158:	00100093          	li	ra,1
 800715c:	00e00113          	li	sp,14
 8007160:	0020973b          	sllw	a4,ra,sp
 8007164:	00004eb7          	lui	t4,0x4
 8007168:	00500193          	li	gp,5
 800716c:	01d70463          	beq	a4,t4,8007174 <test_6>
 8007170:	7890a06f          	j	80120f8 <fail>

0000000008007174 <test_6>:
  TEST_RR_OP( 6,  sllw, 0xffffffff80000000, 0x0000000000000001, 31 );
 8007174:	00100093          	li	ra,1
 8007178:	01f00113          	li	sp,31
 800717c:	0020973b          	sllw	a4,ra,sp
 8007180:	80000eb7          	lui	t4,0x80000
 8007184:	00600193          	li	gp,6
 8007188:	01d70463          	beq	a4,t4,8007190 <test_7>
 800718c:	76d0a06f          	j	80120f8 <fail>

0000000008007190 <test_7>:

  TEST_RR_OP( 7,  sllw, 0xffffffffffffffff, 0xffffffffffffffff, 0  );
 8007190:	fff00093          	li	ra,-1
 8007194:	00000113          	li	sp,0
 8007198:	0020973b          	sllw	a4,ra,sp
 800719c:	fff00e93          	li	t4,-1
 80071a0:	00700193          	li	gp,7
 80071a4:	01d70463          	beq	a4,t4,80071ac <test_8>
 80071a8:	7510a06f          	j	80120f8 <fail>

00000000080071ac <test_8>:
  TEST_RR_OP( 8,  sllw, 0xfffffffffffffffe, 0xffffffffffffffff, 1  );
 80071ac:	fff00093          	li	ra,-1
 80071b0:	00100113          	li	sp,1
 80071b4:	0020973b          	sllw	a4,ra,sp
 80071b8:	ffe00e93          	li	t4,-2
 80071bc:	00800193          	li	gp,8
 80071c0:	01d70463          	beq	a4,t4,80071c8 <test_9>
 80071c4:	7350a06f          	j	80120f8 <fail>

00000000080071c8 <test_9>:
  TEST_RR_OP( 9,  sllw, 0xffffffffffffff80, 0xffffffffffffffff, 7  );
 80071c8:	fff00093          	li	ra,-1
 80071cc:	00700113          	li	sp,7
 80071d0:	0020973b          	sllw	a4,ra,sp
 80071d4:	f8000e93          	li	t4,-128
 80071d8:	00900193          	li	gp,9
 80071dc:	01d70463          	beq	a4,t4,80071e4 <test_10>
 80071e0:	7190a06f          	j	80120f8 <fail>

00000000080071e4 <test_10>:
  TEST_RR_OP( 10, sllw, 0xffffffffffffc000, 0xffffffffffffffff, 14 );
 80071e4:	fff00093          	li	ra,-1
 80071e8:	00e00113          	li	sp,14
 80071ec:	0020973b          	sllw	a4,ra,sp
 80071f0:	ffffceb7          	lui	t4,0xffffc
 80071f4:	00a00193          	li	gp,10
 80071f8:	01d70463          	beq	a4,t4,8007200 <test_11>
 80071fc:	6fd0a06f          	j	80120f8 <fail>

0000000008007200 <test_11>:
  TEST_RR_OP( 11, sllw, 0xffffffff80000000, 0xffffffffffffffff, 31 );
 8007200:	fff00093          	li	ra,-1
 8007204:	01f00113          	li	sp,31
 8007208:	0020973b          	sllw	a4,ra,sp
 800720c:	80000eb7          	lui	t4,0x80000
 8007210:	00b00193          	li	gp,11
 8007214:	01d70463          	beq	a4,t4,800721c <test_12>
 8007218:	6e10a06f          	j	80120f8 <fail>

000000000800721c <test_12>:

  TEST_RR_OP( 12, sllw, 0x0000000021212121, 0x0000000021212121, 0  );
 800721c:	212120b7          	lui	ra,0x21212
 8007220:	1210809b          	addiw	ra,ra,289
 8007224:	00000113          	li	sp,0
 8007228:	0020973b          	sllw	a4,ra,sp
 800722c:	21212eb7          	lui	t4,0x21212
 8007230:	121e8e9b          	addiw	t4,t4,289
 8007234:	00c00193          	li	gp,12
 8007238:	01d70463          	beq	a4,t4,8007240 <test_13>
 800723c:	6bd0a06f          	j	80120f8 <fail>

0000000008007240 <test_13>:
  TEST_RR_OP( 13, sllw, 0x0000000042424242, 0x0000000021212121, 1  );
 8007240:	212120b7          	lui	ra,0x21212
 8007244:	1210809b          	addiw	ra,ra,289
 8007248:	00100113          	li	sp,1
 800724c:	0020973b          	sllw	a4,ra,sp
 8007250:	42424eb7          	lui	t4,0x42424
 8007254:	242e8e9b          	addiw	t4,t4,578
 8007258:	00d00193          	li	gp,13
 800725c:	01d70463          	beq	a4,t4,8007264 <test_14>
 8007260:	6990a06f          	j	80120f8 <fail>

0000000008007264 <test_14>:
  TEST_RR_OP( 14, sllw, 0xffffffff90909080, 0x0000000021212121, 7  );
 8007264:	212120b7          	lui	ra,0x21212
 8007268:	1210809b          	addiw	ra,ra,289
 800726c:	00700113          	li	sp,7
 8007270:	0020973b          	sllw	a4,ra,sp
 8007274:	90909eb7          	lui	t4,0x90909
 8007278:	080e8e9b          	addiw	t4,t4,128
 800727c:	00e00193          	li	gp,14
 8007280:	01d70463          	beq	a4,t4,8007288 <test_15>
 8007284:	6750a06f          	j	80120f8 <fail>

0000000008007288 <test_15>:
  TEST_RR_OP( 15, sllw, 0x0000000048484000, 0x0000000021212121, 14 );
 8007288:	212120b7          	lui	ra,0x21212
 800728c:	1210809b          	addiw	ra,ra,289
 8007290:	00e00113          	li	sp,14
 8007294:	0020973b          	sllw	a4,ra,sp
 8007298:	48484eb7          	lui	t4,0x48484
 800729c:	00f00193          	li	gp,15
 80072a0:	01d70463          	beq	a4,t4,80072a8 <test_16>
 80072a4:	6550a06f          	j	80120f8 <fail>

00000000080072a8 <test_16>:
  TEST_RR_OP( 16, sllw, 0xffffffff80000000, 0x0000000021212121, 31 );
 80072a8:	212120b7          	lui	ra,0x21212
 80072ac:	1210809b          	addiw	ra,ra,289
 80072b0:	01f00113          	li	sp,31
 80072b4:	0020973b          	sllw	a4,ra,sp
 80072b8:	80000eb7          	lui	t4,0x80000
 80072bc:	01000193          	li	gp,16
 80072c0:	01d70463          	beq	a4,t4,80072c8 <test_17>
 80072c4:	6350a06f          	j	80120f8 <fail>

00000000080072c8 <test_17>:

  # Verify that shifts only use bottom five bits

  TEST_RR_OP( 17, sllw, 0x0000000021212121, 0x0000000021212121, 0xffffffffffffffe0 );
 80072c8:	212120b7          	lui	ra,0x21212
 80072cc:	1210809b          	addiw	ra,ra,289
 80072d0:	fe000113          	li	sp,-32
 80072d4:	0020973b          	sllw	a4,ra,sp
 80072d8:	21212eb7          	lui	t4,0x21212
 80072dc:	121e8e9b          	addiw	t4,t4,289
 80072e0:	01100193          	li	gp,17
 80072e4:	01d70463          	beq	a4,t4,80072ec <test_18>
 80072e8:	6110a06f          	j	80120f8 <fail>

00000000080072ec <test_18>:
  TEST_RR_OP( 18, sllw, 0x0000000042424242, 0x0000000021212121, 0xffffffffffffffe1 );
 80072ec:	212120b7          	lui	ra,0x21212
 80072f0:	1210809b          	addiw	ra,ra,289
 80072f4:	fe100113          	li	sp,-31
 80072f8:	0020973b          	sllw	a4,ra,sp
 80072fc:	42424eb7          	lui	t4,0x42424
 8007300:	242e8e9b          	addiw	t4,t4,578
 8007304:	01200193          	li	gp,18
 8007308:	01d70463          	beq	a4,t4,8007310 <test_19>
 800730c:	5ed0a06f          	j	80120f8 <fail>

0000000008007310 <test_19>:
  TEST_RR_OP( 19, sllw, 0xffffffff90909080, 0x0000000021212121, 0xffffffffffffffe7 );
 8007310:	212120b7          	lui	ra,0x21212
 8007314:	1210809b          	addiw	ra,ra,289
 8007318:	fe700113          	li	sp,-25
 800731c:	0020973b          	sllw	a4,ra,sp
 8007320:	90909eb7          	lui	t4,0x90909
 8007324:	080e8e9b          	addiw	t4,t4,128
 8007328:	01300193          	li	gp,19
 800732c:	01d70463          	beq	a4,t4,8007334 <test_20>
 8007330:	5c90a06f          	j	80120f8 <fail>

0000000008007334 <test_20>:
  TEST_RR_OP( 20, sllw, 0x0000000048484000, 0x0000000021212121, 0xffffffffffffffee );
 8007334:	212120b7          	lui	ra,0x21212
 8007338:	1210809b          	addiw	ra,ra,289
 800733c:	fee00113          	li	sp,-18
 8007340:	0020973b          	sllw	a4,ra,sp
 8007344:	48484eb7          	lui	t4,0x48484
 8007348:	01400193          	li	gp,20
 800734c:	01d70463          	beq	a4,t4,8007354 <test_21>
 8007350:	5a90a06f          	j	80120f8 <fail>

0000000008007354 <test_21>:
  TEST_RR_OP( 21, sllw, 0xffffffff80000000, 0x0000000021212121, 0xffffffffffffffff );
 8007354:	212120b7          	lui	ra,0x21212
 8007358:	1210809b          	addiw	ra,ra,289
 800735c:	fff00113          	li	sp,-1
 8007360:	0020973b          	sllw	a4,ra,sp
 8007364:	80000eb7          	lui	t4,0x80000
 8007368:	01500193          	li	gp,21
 800736c:	01d70463          	beq	a4,t4,8007374 <test_44>
 8007370:	5890a06f          	j	80120f8 <fail>

0000000008007374 <test_44>:

  # Verify that shifts ignore top 32 (using true 64-bit values)

  TEST_RR_OP( 44, sllw, 0x0000000012345678, 0xffffffff12345678, 0 );
 8007374:	fff120b7          	lui	ra,0xfff12
 8007378:	3450809b          	addiw	ra,ra,837
 800737c:	00c09093          	slli	ra,ra,0xc
 8007380:	67808093          	addi	ra,ra,1656 # fffffffffff12678 <_end+0xfffffffff7eff018>
 8007384:	00000113          	li	sp,0
 8007388:	0020973b          	sllw	a4,ra,sp
 800738c:	12345eb7          	lui	t4,0x12345
 8007390:	678e8e9b          	addiw	t4,t4,1656
 8007394:	02c00193          	li	gp,44
 8007398:	01d70463          	beq	a4,t4,80073a0 <test_45>
 800739c:	55d0a06f          	j	80120f8 <fail>

00000000080073a0 <test_45>:
  TEST_RR_OP( 45, sllw, 0x0000000023456780, 0xffffffff12345678, 4 );
 80073a0:	fff120b7          	lui	ra,0xfff12
 80073a4:	3450809b          	addiw	ra,ra,837
 80073a8:	00c09093          	slli	ra,ra,0xc
 80073ac:	67808093          	addi	ra,ra,1656 # fffffffffff12678 <_end+0xfffffffff7eff018>
 80073b0:	00400113          	li	sp,4
 80073b4:	0020973b          	sllw	a4,ra,sp
 80073b8:	23456eb7          	lui	t4,0x23456
 80073bc:	780e8e9b          	addiw	t4,t4,1920
 80073c0:	02d00193          	li	gp,45
 80073c4:	01d70463          	beq	a4,t4,80073cc <test_46>
 80073c8:	5310a06f          	j	80120f8 <fail>

00000000080073cc <test_46>:
  TEST_RR_OP( 46, sllw, 0xffffffff92345678, 0x0000000092345678, 0 );
 80073cc:	000920b7          	lui	ra,0x92
 80073d0:	3450809b          	addiw	ra,ra,837
 80073d4:	00c09093          	slli	ra,ra,0xc
 80073d8:	67808093          	addi	ra,ra,1656 # 92678 <u_mode_trap_table-0x7f6d98c>
 80073dc:	00000113          	li	sp,0
 80073e0:	0020973b          	sllw	a4,ra,sp
 80073e4:	92345eb7          	lui	t4,0x92345
 80073e8:	678e8e9b          	addiw	t4,t4,1656
 80073ec:	02e00193          	li	gp,46
 80073f0:	01d70463          	beq	a4,t4,80073f8 <test_47>
 80073f4:	5050a06f          	j	80120f8 <fail>

00000000080073f8 <test_47>:
  TEST_RR_OP( 47, sllw, 0xffffffff93456780, 0x0000000099345678, 4 );
 80073f8:	000990b7          	lui	ra,0x99
 80073fc:	3450809b          	addiw	ra,ra,837
 8007400:	00c09093          	slli	ra,ra,0xc
 8007404:	67808093          	addi	ra,ra,1656 # 99678 <u_mode_trap_table-0x7f6698c>
 8007408:	00400113          	li	sp,4
 800740c:	0020973b          	sllw	a4,ra,sp
 8007410:	93456eb7          	lui	t4,0x93456
 8007414:	780e8e9b          	addiw	t4,t4,1920
 8007418:	02f00193          	li	gp,47
 800741c:	01d70463          	beq	a4,t4,8007424 <test_22>
 8007420:	4d90a06f          	j	80120f8 <fail>

0000000008007424 <test_22>:

  #-------------------------------------------------------------
  # Source/Destination tests
  #-------------------------------------------------------------

  TEST_RR_SRC1_EQ_DEST( 22, sllw, 0x00000080, 0x00000001, 7  );
 8007424:	00100093          	li	ra,1
 8007428:	00700113          	li	sp,7
 800742c:	002090bb          	sllw	ra,ra,sp
 8007430:	08000e93          	li	t4,128
 8007434:	01600193          	li	gp,22
 8007438:	01d08463          	beq	ra,t4,8007440 <test_23>
 800743c:	4bd0a06f          	j	80120f8 <fail>

0000000008007440 <test_23>:
  TEST_RR_SRC2_EQ_DEST( 23, sllw, 0x00004000, 0x00000001, 14 );
 8007440:	00100093          	li	ra,1
 8007444:	00e00113          	li	sp,14
 8007448:	0020913b          	sllw	sp,ra,sp
 800744c:	00004eb7          	lui	t4,0x4
 8007450:	01700193          	li	gp,23
 8007454:	01d10463          	beq	sp,t4,800745c <test_24>
 8007458:	4a10a06f          	j	80120f8 <fail>

000000000800745c <test_24>:
  TEST_RR_SRC12_EQ_DEST( 24, sllw, 24, 3 );
 800745c:	00300093          	li	ra,3
 8007460:	001090bb          	sllw	ra,ra,ra
 8007464:	01800e93          	li	t4,24
 8007468:	01800193          	li	gp,24
 800746c:	01d08463          	beq	ra,t4,8007474 <test_25>
 8007470:	4890a06f          	j	80120f8 <fail>

0000000008007474 <test_25>:

  #-------------------------------------------------------------
  # Bypassing tests
  #-------------------------------------------------------------

  TEST_RR_DEST_BYPASS( 25, 0, sllw, 0x0000000000000080, 0x0000000000000001, 7  );
 8007474:	00000213          	li	tp,0
 8007478:	00100093          	li	ra,1
 800747c:	00700113          	li	sp,7
 8007480:	0020973b          	sllw	a4,ra,sp
 8007484:	00070313          	mv	t1,a4
 8007488:	00120213          	addi	tp,tp,1 # 1 <u_mode_trap_table-0x8000003>
 800748c:	00200293          	li	t0,2
 8007490:	fe5214e3          	bne	tp,t0,8007478 <test_25+0x4>
 8007494:	08000e93          	li	t4,128
 8007498:	01900193          	li	gp,25
 800749c:	01d30463          	beq	t1,t4,80074a4 <test_26>
 80074a0:	4590a06f          	j	80120f8 <fail>

00000000080074a4 <test_26>:
  TEST_RR_DEST_BYPASS( 26, 1, sllw, 0x0000000000004000, 0x0000000000000001, 14 );
 80074a4:	00000213          	li	tp,0
 80074a8:	00100093          	li	ra,1
 80074ac:	00e00113          	li	sp,14
 80074b0:	0020973b          	sllw	a4,ra,sp
 80074b4:	00000013          	nop
 80074b8:	00070313          	mv	t1,a4
 80074bc:	00120213          	addi	tp,tp,1 # 1 <u_mode_trap_table-0x8000003>
 80074c0:	00200293          	li	t0,2
 80074c4:	fe5212e3          	bne	tp,t0,80074a8 <test_26+0x4>
 80074c8:	00004eb7          	lui	t4,0x4
 80074cc:	01a00193          	li	gp,26
 80074d0:	01d30463          	beq	t1,t4,80074d8 <test_27>
 80074d4:	4250a06f          	j	80120f8 <fail>

00000000080074d8 <test_27>:
  TEST_RR_DEST_BYPASS( 27, 2, sllw, 0xffffffff80000000, 0x0000000000000001, 31 );
 80074d8:	00000213          	li	tp,0
 80074dc:	00100093          	li	ra,1
 80074e0:	01f00113          	li	sp,31
 80074e4:	0020973b          	sllw	a4,ra,sp
 80074e8:	00000013          	nop
 80074ec:	00000013          	nop
 80074f0:	00070313          	mv	t1,a4
 80074f4:	00120213          	addi	tp,tp,1 # 1 <u_mode_trap_table-0x8000003>
 80074f8:	00200293          	li	t0,2
 80074fc:	fe5210e3          	bne	tp,t0,80074dc <test_27+0x4>
 8007500:	80000eb7          	lui	t4,0x80000
 8007504:	01b00193          	li	gp,27
 8007508:	01d30463          	beq	t1,t4,8007510 <test_28>
 800750c:	3ed0a06f          	j	80120f8 <fail>

0000000008007510 <test_28>:

  TEST_RR_SRC12_BYPASS( 28, 0, 0, sllw, 0x0000000000000080, 0x0000000000000001, 7  );
 8007510:	00000213          	li	tp,0
 8007514:	00100093          	li	ra,1
 8007518:	00700113          	li	sp,7
 800751c:	0020973b          	sllw	a4,ra,sp
 8007520:	00120213          	addi	tp,tp,1 # 1 <u_mode_trap_table-0x8000003>
 8007524:	00200293          	li	t0,2
 8007528:	fe5216e3          	bne	tp,t0,8007514 <test_28+0x4>
 800752c:	08000e93          	li	t4,128
 8007530:	01c00193          	li	gp,28
 8007534:	01d70463          	beq	a4,t4,800753c <test_29>
 8007538:	3c10a06f          	j	80120f8 <fail>

000000000800753c <test_29>:
  TEST_RR_SRC12_BYPASS( 29, 0, 1, sllw, 0x0000000000004000, 0x0000000000000001, 14 );
 800753c:	00000213          	li	tp,0
 8007540:	00100093          	li	ra,1
 8007544:	00e00113          	li	sp,14
 8007548:	00000013          	nop
 800754c:	0020973b          	sllw	a4,ra,sp
 8007550:	00120213          	addi	tp,tp,1 # 1 <u_mode_trap_table-0x8000003>
 8007554:	00200293          	li	t0,2
 8007558:	fe5214e3          	bne	tp,t0,8007540 <test_29+0x4>
 800755c:	00004eb7          	lui	t4,0x4
 8007560:	01d00193          	li	gp,29
 8007564:	01d70463          	beq	a4,t4,800756c <test_30>
 8007568:	3910a06f          	j	80120f8 <fail>

000000000800756c <test_30>:
  TEST_RR_SRC12_BYPASS( 30, 0, 2, sllw, 0xffffffff80000000, 0x0000000000000001, 31 );
 800756c:	00000213          	li	tp,0
 8007570:	00100093          	li	ra,1
 8007574:	01f00113          	li	sp,31
 8007578:	00000013          	nop
 800757c:	00000013          	nop
 8007580:	0020973b          	sllw	a4,ra,sp
 8007584:	00120213          	addi	tp,tp,1 # 1 <u_mode_trap_table-0x8000003>
 8007588:	00200293          	li	t0,2
 800758c:	fe5212e3          	bne	tp,t0,8007570 <test_30+0x4>
 8007590:	80000eb7          	lui	t4,0x80000
 8007594:	01e00193          	li	gp,30
 8007598:	01d70463          	beq	a4,t4,80075a0 <test_31>
 800759c:	35d0a06f          	j	80120f8 <fail>

00000000080075a0 <test_31>:
  TEST_RR_SRC12_BYPASS( 31, 1, 0, sllw, 0x0000000000000080, 0x0000000000000001, 7  );
 80075a0:	00000213          	li	tp,0
 80075a4:	00100093          	li	ra,1
 80075a8:	00000013          	nop
 80075ac:	00700113          	li	sp,7
 80075b0:	0020973b          	sllw	a4,ra,sp
 80075b4:	00120213          	addi	tp,tp,1 # 1 <u_mode_trap_table-0x8000003>
 80075b8:	00200293          	li	t0,2
 80075bc:	fe5214e3          	bne	tp,t0,80075a4 <test_31+0x4>
 80075c0:	08000e93          	li	t4,128
 80075c4:	01f00193          	li	gp,31
 80075c8:	01d70463          	beq	a4,t4,80075d0 <test_32>
 80075cc:	32d0a06f          	j	80120f8 <fail>

00000000080075d0 <test_32>:
  TEST_RR_SRC12_BYPASS( 32, 1, 1, sllw, 0x0000000000004000, 0x0000000000000001, 14 );
 80075d0:	00000213          	li	tp,0
 80075d4:	00100093          	li	ra,1
 80075d8:	00000013          	nop
 80075dc:	00e00113          	li	sp,14
 80075e0:	00000013          	nop
 80075e4:	0020973b          	sllw	a4,ra,sp
 80075e8:	00120213          	addi	tp,tp,1 # 1 <u_mode_trap_table-0x8000003>
 80075ec:	00200293          	li	t0,2
 80075f0:	fe5212e3          	bne	tp,t0,80075d4 <test_32+0x4>
 80075f4:	00004eb7          	lui	t4,0x4
 80075f8:	02000193          	li	gp,32
 80075fc:	01d70463          	beq	a4,t4,8007604 <test_33>
 8007600:	2f90a06f          	j	80120f8 <fail>

0000000008007604 <test_33>:
  TEST_RR_SRC12_BYPASS( 33, 2, 0, sllw, 0xffffffff80000000, 0x0000000000000001, 31 );
 8007604:	00000213          	li	tp,0
 8007608:	00100093          	li	ra,1
 800760c:	00000013          	nop
 8007610:	00000013          	nop
 8007614:	01f00113          	li	sp,31
 8007618:	0020973b          	sllw	a4,ra,sp
 800761c:	00120213          	addi	tp,tp,1 # 1 <u_mode_trap_table-0x8000003>
 8007620:	00200293          	li	t0,2
 8007624:	fe5212e3          	bne	tp,t0,8007608 <test_33+0x4>
 8007628:	80000eb7          	lui	t4,0x80000
 800762c:	02100193          	li	gp,33
 8007630:	01d70463          	beq	a4,t4,8007638 <test_34>
 8007634:	2c50a06f          	j	80120f8 <fail>

0000000008007638 <test_34>:

  TEST_RR_SRC21_BYPASS( 34, 0, 0, sllw, 0x0000000000000080, 0x0000000000000001, 7  );
 8007638:	00000213          	li	tp,0
 800763c:	00700113          	li	sp,7
 8007640:	00100093          	li	ra,1
 8007644:	0020973b          	sllw	a4,ra,sp
 8007648:	00120213          	addi	tp,tp,1 # 1 <u_mode_trap_table-0x8000003>
 800764c:	00200293          	li	t0,2
 8007650:	fe5216e3          	bne	tp,t0,800763c <test_34+0x4>
 8007654:	08000e93          	li	t4,128
 8007658:	02200193          	li	gp,34
 800765c:	01d70463          	beq	a4,t4,8007664 <test_35>
 8007660:	2990a06f          	j	80120f8 <fail>

0000000008007664 <test_35>:
  TEST_RR_SRC21_BYPASS( 35, 0, 1, sllw, 0x0000000000004000, 0x0000000000000001, 14 );
 8007664:	00000213          	li	tp,0
 8007668:	00e00113          	li	sp,14
 800766c:	00100093          	li	ra,1
 8007670:	00000013          	nop
 8007674:	0020973b          	sllw	a4,ra,sp
 8007678:	00120213          	addi	tp,tp,1 # 1 <u_mode_trap_table-0x8000003>
 800767c:	00200293          	li	t0,2
 8007680:	fe5214e3          	bne	tp,t0,8007668 <test_35+0x4>
 8007684:	00004eb7          	lui	t4,0x4
 8007688:	02300193          	li	gp,35
 800768c:	01d70463          	beq	a4,t4,8007694 <test_36>
 8007690:	2690a06f          	j	80120f8 <fail>

0000000008007694 <test_36>:
  TEST_RR_SRC21_BYPASS( 36, 0, 2, sllw, 0xffffffff80000000, 0x0000000000000001, 31 );
 8007694:	00000213          	li	tp,0
 8007698:	01f00113          	li	sp,31
 800769c:	00100093          	li	ra,1
 80076a0:	00000013          	nop
 80076a4:	00000013          	nop
 80076a8:	0020973b          	sllw	a4,ra,sp
 80076ac:	00120213          	addi	tp,tp,1 # 1 <u_mode_trap_table-0x8000003>
 80076b0:	00200293          	li	t0,2
 80076b4:	fe5212e3          	bne	tp,t0,8007698 <test_36+0x4>
 80076b8:	80000eb7          	lui	t4,0x80000
 80076bc:	02400193          	li	gp,36
 80076c0:	01d70463          	beq	a4,t4,80076c8 <test_37>
 80076c4:	2350a06f          	j	80120f8 <fail>

00000000080076c8 <test_37>:
  TEST_RR_SRC21_BYPASS( 37, 1, 0, sllw, 0x0000000000000080, 0x0000000000000001, 7  );
 80076c8:	00000213          	li	tp,0
 80076cc:	00700113          	li	sp,7
 80076d0:	00000013          	nop
 80076d4:	00100093          	li	ra,1
 80076d8:	0020973b          	sllw	a4,ra,sp
 80076dc:	00120213          	addi	tp,tp,1 # 1 <u_mode_trap_table-0x8000003>
 80076e0:	00200293          	li	t0,2
 80076e4:	fe5214e3          	bne	tp,t0,80076cc <test_37+0x4>
 80076e8:	08000e93          	li	t4,128
 80076ec:	02500193          	li	gp,37
 80076f0:	01d70463          	beq	a4,t4,80076f8 <test_38>
 80076f4:	2050a06f          	j	80120f8 <fail>

00000000080076f8 <test_38>:
  TEST_RR_SRC21_BYPASS( 38, 1, 1, sllw, 0x0000000000004000, 0x0000000000000001, 14 );
 80076f8:	00000213          	li	tp,0
 80076fc:	00e00113          	li	sp,14
 8007700:	00000013          	nop
 8007704:	00100093          	li	ra,1
 8007708:	00000013          	nop
 800770c:	0020973b          	sllw	a4,ra,sp
 8007710:	00120213          	addi	tp,tp,1 # 1 <u_mode_trap_table-0x8000003>
 8007714:	00200293          	li	t0,2
 8007718:	fe5212e3          	bne	tp,t0,80076fc <test_38+0x4>
 800771c:	00004eb7          	lui	t4,0x4
 8007720:	02600193          	li	gp,38
 8007724:	01d70463          	beq	a4,t4,800772c <test_39>
 8007728:	1d10a06f          	j	80120f8 <fail>

000000000800772c <test_39>:
  TEST_RR_SRC21_BYPASS( 39, 2, 0, sllw, 0xffffffff80000000, 0x0000000000000001, 31 );
 800772c:	00000213          	li	tp,0
 8007730:	01f00113          	li	sp,31
 8007734:	00000013          	nop
 8007738:	00000013          	nop
 800773c:	00100093          	li	ra,1
 8007740:	0020973b          	sllw	a4,ra,sp
 8007744:	00120213          	addi	tp,tp,1 # 1 <u_mode_trap_table-0x8000003>
 8007748:	00200293          	li	t0,2
 800774c:	fe5212e3          	bne	tp,t0,8007730 <test_39+0x4>
 8007750:	80000eb7          	lui	t4,0x80000
 8007754:	02700193          	li	gp,39
 8007758:	01d70463          	beq	a4,t4,8007760 <test_40>
 800775c:	19d0a06f          	j	80120f8 <fail>

0000000008007760 <test_40>:

  TEST_RR_ZEROSRC1( 40, sllw, 0, 15 );
 8007760:	00f00093          	li	ra,15
 8007764:	0010113b          	sllw	sp,zero,ra
 8007768:	00000e93          	li	t4,0
 800776c:	02800193          	li	gp,40
 8007770:	01d10463          	beq	sp,t4,8007778 <test_41>
 8007774:	1850a06f          	j	80120f8 <fail>

0000000008007778 <test_41>:
  TEST_RR_ZEROSRC2( 41, sllw, 32, 32 );
 8007778:	02000093          	li	ra,32
 800777c:	0000913b          	sllw	sp,ra,zero
 8007780:	02000e93          	li	t4,32
 8007784:	02900193          	li	gp,41
 8007788:	01d10463          	beq	sp,t4,8007790 <test_42>
 800778c:	16d0a06f          	j	80120f8 <fail>

0000000008007790 <test_42>:
  TEST_RR_ZEROSRC12( 42, sllw, 0 );
 8007790:	000010bb          	sllw	ra,zero,zero
 8007794:	00000e93          	li	t4,0
 8007798:	02a00193          	li	gp,42
 800779c:	01d08463          	beq	ra,t4,80077a4 <test_43>
 80077a0:	1590a06f          	j	80120f8 <fail>

00000000080077a4 <test_43>:
  TEST_RR_ZERODEST( 43, sllw, 1024, 2048 );
 80077a4:	40000093          	li	ra,1024
 80077a8:	00001137          	lui	sp,0x1
 80077ac:	8001011b          	addiw	sp,sp,-2048
 80077b0:	0020903b          	sllw	zero,ra,sp
 80077b4:	00000e93          	li	t4,0
 80077b8:	02b00193          	li	gp,43
 80077bc:	01d00463          	beq	zero,t4,80077c4 <test_43+0x20>
 80077c0:	1390a06f          	j	80120f8 <fail>

  TEST_PASSFAIL

RVTEST_CODE_END
 80077c4:	c0001073          	unimp

00000000080077c8 <test_2>:

  #-------------------------------------------------------------
  # Arithmetic tests
  #-------------------------------------------------------------

  TEST_RR_OP( 2,  slt, 0, 0x0000000000000000, 0x0000000000000000 );
 80077c8:	00000093          	li	ra,0
 80077cc:	00000113          	li	sp,0
 80077d0:	0020a733          	slt	a4,ra,sp
 80077d4:	00000e93          	li	t4,0
 80077d8:	00200193          	li	gp,2
 80077dc:	01d70463          	beq	a4,t4,80077e4 <test_3>
 80077e0:	1190a06f          	j	80120f8 <fail>

00000000080077e4 <test_3>:
  TEST_RR_OP( 3,  slt, 0, 0x0000000000000001, 0x0000000000000001 );
 80077e4:	00100093          	li	ra,1
 80077e8:	00100113          	li	sp,1
 80077ec:	0020a733          	slt	a4,ra,sp
 80077f0:	00000e93          	li	t4,0
 80077f4:	00300193          	li	gp,3
 80077f8:	01d70463          	beq	a4,t4,8007800 <test_4>
 80077fc:	0fd0a06f          	j	80120f8 <fail>

0000000008007800 <test_4>:
  TEST_RR_OP( 4,  slt, 1, 0x0000000000000003, 0x0000000000000007 );
 8007800:	00300093          	li	ra,3
 8007804:	00700113          	li	sp,7
 8007808:	0020a733          	slt	a4,ra,sp
 800780c:	00100e93          	li	t4,1
 8007810:	00400193          	li	gp,4
 8007814:	01d70463          	beq	a4,t4,800781c <test_5>
 8007818:	0e10a06f          	j	80120f8 <fail>

000000000800781c <test_5>:
  TEST_RR_OP( 5,  slt, 0, 0x0000000000000007, 0x0000000000000003 );
 800781c:	00700093          	li	ra,7
 8007820:	00300113          	li	sp,3
 8007824:	0020a733          	slt	a4,ra,sp
 8007828:	00000e93          	li	t4,0
 800782c:	00500193          	li	gp,5
 8007830:	01d70463          	beq	a4,t4,8007838 <test_6>
 8007834:	0c50a06f          	j	80120f8 <fail>

0000000008007838 <test_6>:

  TEST_RR_OP( 6,  slt, 0, 0x0000000000000000, 0xffffffffffff8000 );
 8007838:	00000093          	li	ra,0
 800783c:	ffff8137          	lui	sp,0xffff8
 8007840:	0020a733          	slt	a4,ra,sp
 8007844:	00000e93          	li	t4,0
 8007848:	00600193          	li	gp,6
 800784c:	01d70463          	beq	a4,t4,8007854 <test_7>
 8007850:	0a90a06f          	j	80120f8 <fail>

0000000008007854 <test_7>:
  TEST_RR_OP( 7,  slt, 1, 0xffffffff80000000, 0x0000000000000000 );
 8007854:	800000b7          	lui	ra,0x80000
 8007858:	00000113          	li	sp,0
 800785c:	0020a733          	slt	a4,ra,sp
 8007860:	00100e93          	li	t4,1
 8007864:	00700193          	li	gp,7
 8007868:	01d70463          	beq	a4,t4,8007870 <test_8>
 800786c:	08d0a06f          	j	80120f8 <fail>

0000000008007870 <test_8>:
  TEST_RR_OP( 8,  slt, 1, 0xffffffff80000000, 0xffffffffffff8000 );
 8007870:	800000b7          	lui	ra,0x80000
 8007874:	ffff8137          	lui	sp,0xffff8
 8007878:	0020a733          	slt	a4,ra,sp
 800787c:	00100e93          	li	t4,1
 8007880:	00800193          	li	gp,8
 8007884:	01d70463          	beq	a4,t4,800788c <test_9>
 8007888:	0710a06f          	j	80120f8 <fail>

000000000800788c <test_9>:

  TEST_RR_OP( 9,  slt, 1, 0x0000000000000000, 0x0000000000007fff );
 800788c:	00000093          	li	ra,0
 8007890:	00008137          	lui	sp,0x8
 8007894:	fff1011b          	addiw	sp,sp,-1
 8007898:	0020a733          	slt	a4,ra,sp
 800789c:	00100e93          	li	t4,1
 80078a0:	00900193          	li	gp,9
 80078a4:	01d70463          	beq	a4,t4,80078ac <test_10>
 80078a8:	0510a06f          	j	80120f8 <fail>

00000000080078ac <test_10>:
  TEST_RR_OP( 10, slt, 0, 0x000000007fffffff, 0x0000000000000000 );
 80078ac:	800000b7          	lui	ra,0x80000
 80078b0:	fff0809b          	addiw	ra,ra,-1
 80078b4:	00000113          	li	sp,0
 80078b8:	0020a733          	slt	a4,ra,sp
 80078bc:	00000e93          	li	t4,0
 80078c0:	00a00193          	li	gp,10
 80078c4:	01d70463          	beq	a4,t4,80078cc <test_11>
 80078c8:	0310a06f          	j	80120f8 <fail>

00000000080078cc <test_11>:
  TEST_RR_OP( 11, slt, 0, 0x000000007fffffff, 0x0000000000007fff );
 80078cc:	800000b7          	lui	ra,0x80000
 80078d0:	fff0809b          	addiw	ra,ra,-1
 80078d4:	00008137          	lui	sp,0x8
 80078d8:	fff1011b          	addiw	sp,sp,-1
 80078dc:	0020a733          	slt	a4,ra,sp
 80078e0:	00000e93          	li	t4,0
 80078e4:	00b00193          	li	gp,11
 80078e8:	01d70463          	beq	a4,t4,80078f0 <test_12>
 80078ec:	00d0a06f          	j	80120f8 <fail>

00000000080078f0 <test_12>:

  TEST_RR_OP( 12, slt, 1, 0xffffffff80000000, 0x0000000000007fff );
 80078f0:	800000b7          	lui	ra,0x80000
 80078f4:	00008137          	lui	sp,0x8
 80078f8:	fff1011b          	addiw	sp,sp,-1
 80078fc:	0020a733          	slt	a4,ra,sp
 8007900:	00100e93          	li	t4,1
 8007904:	00c00193          	li	gp,12
 8007908:	01d70463          	beq	a4,t4,8007910 <test_13>
 800790c:	7ec0a06f          	j	80120f8 <fail>

0000000008007910 <test_13>:
  TEST_RR_OP( 13, slt, 0, 0x000000007fffffff, 0xffffffffffff8000 );
 8007910:	800000b7          	lui	ra,0x80000
 8007914:	fff0809b          	addiw	ra,ra,-1
 8007918:	ffff8137          	lui	sp,0xffff8
 800791c:	0020a733          	slt	a4,ra,sp
 8007920:	00000e93          	li	t4,0
 8007924:	00d00193          	li	gp,13
 8007928:	01d70463          	beq	a4,t4,8007930 <test_14>
 800792c:	7cc0a06f          	j	80120f8 <fail>

0000000008007930 <test_14>:

  TEST_RR_OP( 14, slt, 0, 0x0000000000000000, 0xffffffffffffffff );
 8007930:	00000093          	li	ra,0
 8007934:	fff00113          	li	sp,-1
 8007938:	0020a733          	slt	a4,ra,sp
 800793c:	00000e93          	li	t4,0
 8007940:	00e00193          	li	gp,14
 8007944:	01d70463          	beq	a4,t4,800794c <test_15>
 8007948:	7b00a06f          	j	80120f8 <fail>

000000000800794c <test_15>:
  TEST_RR_OP( 15, slt, 1, 0xffffffffffffffff, 0x0000000000000001 );
 800794c:	fff00093          	li	ra,-1
 8007950:	00100113          	li	sp,1
 8007954:	0020a733          	slt	a4,ra,sp
 8007958:	00100e93          	li	t4,1
 800795c:	00f00193          	li	gp,15
 8007960:	01d70463          	beq	a4,t4,8007968 <test_16>
 8007964:	7940a06f          	j	80120f8 <fail>

0000000008007968 <test_16>:
  TEST_RR_OP( 16, slt, 0, 0xffffffffffffffff, 0xffffffffffffffff );
 8007968:	fff00093          	li	ra,-1
 800796c:	fff00113          	li	sp,-1
 8007970:	0020a733          	slt	a4,ra,sp
 8007974:	00000e93          	li	t4,0
 8007978:	01000193          	li	gp,16
 800797c:	01d70463          	beq	a4,t4,8007984 <test_17>
 8007980:	7780a06f          	j	80120f8 <fail>

0000000008007984 <test_17>:

  #-------------------------------------------------------------
  # Source/Destination tests
  #-------------------------------------------------------------

  TEST_RR_SRC1_EQ_DEST( 17, slt, 0, 14, 13 );
 8007984:	00e00093          	li	ra,14
 8007988:	00d00113          	li	sp,13
 800798c:	0020a0b3          	slt	ra,ra,sp
 8007990:	00000e93          	li	t4,0
 8007994:	01100193          	li	gp,17
 8007998:	01d08463          	beq	ra,t4,80079a0 <test_18>
 800799c:	75c0a06f          	j	80120f8 <fail>

00000000080079a0 <test_18>:
  TEST_RR_SRC2_EQ_DEST( 18, slt, 1, 11, 13 );
 80079a0:	00b00093          	li	ra,11
 80079a4:	00d00113          	li	sp,13
 80079a8:	0020a133          	slt	sp,ra,sp
 80079ac:	00100e93          	li	t4,1
 80079b0:	01200193          	li	gp,18
 80079b4:	01d10463          	beq	sp,t4,80079bc <test_19>
 80079b8:	7400a06f          	j	80120f8 <fail>

00000000080079bc <test_19>:
  TEST_RR_SRC12_EQ_DEST( 19, slt, 0, 13 );
 80079bc:	00d00093          	li	ra,13
 80079c0:	0010a0b3          	slt	ra,ra,ra
 80079c4:	00000e93          	li	t4,0
 80079c8:	01300193          	li	gp,19
 80079cc:	01d08463          	beq	ra,t4,80079d4 <test_20>
 80079d0:	7280a06f          	j	80120f8 <fail>

00000000080079d4 <test_20>:

  #-------------------------------------------------------------
  # Bypassing tests
  #-------------------------------------------------------------

  TEST_RR_DEST_BYPASS( 20, 0, slt, 1, 11, 13 );
 80079d4:	00000213          	li	tp,0
 80079d8:	00b00093          	li	ra,11
 80079dc:	00d00113          	li	sp,13
 80079e0:	0020a733          	slt	a4,ra,sp
 80079e4:	00070313          	mv	t1,a4
 80079e8:	00120213          	addi	tp,tp,1 # 1 <u_mode_trap_table-0x8000003>
 80079ec:	00200293          	li	t0,2
 80079f0:	fe5214e3          	bne	tp,t0,80079d8 <test_20+0x4>
 80079f4:	00100e93          	li	t4,1
 80079f8:	01400193          	li	gp,20
 80079fc:	01d30463          	beq	t1,t4,8007a04 <test_21>
 8007a00:	6f80a06f          	j	80120f8 <fail>

0000000008007a04 <test_21>:
  TEST_RR_DEST_BYPASS( 21, 1, slt, 0, 14, 13 );
 8007a04:	00000213          	li	tp,0
 8007a08:	00e00093          	li	ra,14
 8007a0c:	00d00113          	li	sp,13
 8007a10:	0020a733          	slt	a4,ra,sp
 8007a14:	00000013          	nop
 8007a18:	00070313          	mv	t1,a4
 8007a1c:	00120213          	addi	tp,tp,1 # 1 <u_mode_trap_table-0x8000003>
 8007a20:	00200293          	li	t0,2
 8007a24:	fe5212e3          	bne	tp,t0,8007a08 <test_21+0x4>
 8007a28:	00000e93          	li	t4,0
 8007a2c:	01500193          	li	gp,21
 8007a30:	01d30463          	beq	t1,t4,8007a38 <test_22>
 8007a34:	6c40a06f          	j	80120f8 <fail>

0000000008007a38 <test_22>:
  TEST_RR_DEST_BYPASS( 22, 2, slt, 1, 12, 13 );
 8007a38:	00000213          	li	tp,0
 8007a3c:	00c00093          	li	ra,12
 8007a40:	00d00113          	li	sp,13
 8007a44:	0020a733          	slt	a4,ra,sp
 8007a48:	00000013          	nop
 8007a4c:	00000013          	nop
 8007a50:	00070313          	mv	t1,a4
 8007a54:	00120213          	addi	tp,tp,1 # 1 <u_mode_trap_table-0x8000003>
 8007a58:	00200293          	li	t0,2
 8007a5c:	fe5210e3          	bne	tp,t0,8007a3c <test_22+0x4>
 8007a60:	00100e93          	li	t4,1
 8007a64:	01600193          	li	gp,22
 8007a68:	01d30463          	beq	t1,t4,8007a70 <test_23>
 8007a6c:	68c0a06f          	j	80120f8 <fail>

0000000008007a70 <test_23>:

  TEST_RR_SRC12_BYPASS( 23, 0, 0, slt, 0, 14, 13 );
 8007a70:	00000213          	li	tp,0
 8007a74:	00e00093          	li	ra,14
 8007a78:	00d00113          	li	sp,13
 8007a7c:	0020a733          	slt	a4,ra,sp
 8007a80:	00120213          	addi	tp,tp,1 # 1 <u_mode_trap_table-0x8000003>
 8007a84:	00200293          	li	t0,2
 8007a88:	fe5216e3          	bne	tp,t0,8007a74 <test_23+0x4>
 8007a8c:	00000e93          	li	t4,0
 8007a90:	01700193          	li	gp,23
 8007a94:	01d70463          	beq	a4,t4,8007a9c <test_24>
 8007a98:	6600a06f          	j	80120f8 <fail>

0000000008007a9c <test_24>:
  TEST_RR_SRC12_BYPASS( 24, 0, 1, slt, 1, 11, 13 );
 8007a9c:	00000213          	li	tp,0
 8007aa0:	00b00093          	li	ra,11
 8007aa4:	00d00113          	li	sp,13
 8007aa8:	00000013          	nop
 8007aac:	0020a733          	slt	a4,ra,sp
 8007ab0:	00120213          	addi	tp,tp,1 # 1 <u_mode_trap_table-0x8000003>
 8007ab4:	00200293          	li	t0,2
 8007ab8:	fe5214e3          	bne	tp,t0,8007aa0 <test_24+0x4>
 8007abc:	00100e93          	li	t4,1
 8007ac0:	01800193          	li	gp,24
 8007ac4:	01d70463          	beq	a4,t4,8007acc <test_25>
 8007ac8:	6300a06f          	j	80120f8 <fail>

0000000008007acc <test_25>:
  TEST_RR_SRC12_BYPASS( 25, 0, 2, slt, 0, 15, 13 );
 8007acc:	00000213          	li	tp,0
 8007ad0:	00f00093          	li	ra,15
 8007ad4:	00d00113          	li	sp,13
 8007ad8:	00000013          	nop
 8007adc:	00000013          	nop
 8007ae0:	0020a733          	slt	a4,ra,sp
 8007ae4:	00120213          	addi	tp,tp,1 # 1 <u_mode_trap_table-0x8000003>
 8007ae8:	00200293          	li	t0,2
 8007aec:	fe5212e3          	bne	tp,t0,8007ad0 <test_25+0x4>
 8007af0:	00000e93          	li	t4,0
 8007af4:	01900193          	li	gp,25
 8007af8:	01d70463          	beq	a4,t4,8007b00 <test_26>
 8007afc:	5fc0a06f          	j	80120f8 <fail>

0000000008007b00 <test_26>:
  TEST_RR_SRC12_BYPASS( 26, 1, 0, slt, 1, 10, 13 );
 8007b00:	00000213          	li	tp,0
 8007b04:	00a00093          	li	ra,10
 8007b08:	00000013          	nop
 8007b0c:	00d00113          	li	sp,13
 8007b10:	0020a733          	slt	a4,ra,sp
 8007b14:	00120213          	addi	tp,tp,1 # 1 <u_mode_trap_table-0x8000003>
 8007b18:	00200293          	li	t0,2
 8007b1c:	fe5214e3          	bne	tp,t0,8007b04 <test_26+0x4>
 8007b20:	00100e93          	li	t4,1
 8007b24:	01a00193          	li	gp,26
 8007b28:	01d70463          	beq	a4,t4,8007b30 <test_27>
 8007b2c:	5cc0a06f          	j	80120f8 <fail>

0000000008007b30 <test_27>:
  TEST_RR_SRC12_BYPASS( 27, 1, 1, slt, 0, 16, 13 );
 8007b30:	00000213          	li	tp,0
 8007b34:	01000093          	li	ra,16
 8007b38:	00000013          	nop
 8007b3c:	00d00113          	li	sp,13
 8007b40:	00000013          	nop
 8007b44:	0020a733          	slt	a4,ra,sp
 8007b48:	00120213          	addi	tp,tp,1 # 1 <u_mode_trap_table-0x8000003>
 8007b4c:	00200293          	li	t0,2
 8007b50:	fe5212e3          	bne	tp,t0,8007b34 <test_27+0x4>
 8007b54:	00000e93          	li	t4,0
 8007b58:	01b00193          	li	gp,27
 8007b5c:	01d70463          	beq	a4,t4,8007b64 <test_28>
 8007b60:	5980a06f          	j	80120f8 <fail>

0000000008007b64 <test_28>:
  TEST_RR_SRC12_BYPASS( 28, 2, 0, slt, 1,  9, 13 );
 8007b64:	00000213          	li	tp,0
 8007b68:	00900093          	li	ra,9
 8007b6c:	00000013          	nop
 8007b70:	00000013          	nop
 8007b74:	00d00113          	li	sp,13
 8007b78:	0020a733          	slt	a4,ra,sp
 8007b7c:	00120213          	addi	tp,tp,1 # 1 <u_mode_trap_table-0x8000003>
 8007b80:	00200293          	li	t0,2
 8007b84:	fe5212e3          	bne	tp,t0,8007b68 <test_28+0x4>
 8007b88:	00100e93          	li	t4,1
 8007b8c:	01c00193          	li	gp,28
 8007b90:	01d70463          	beq	a4,t4,8007b98 <test_29>
 8007b94:	5640a06f          	j	80120f8 <fail>

0000000008007b98 <test_29>:

  TEST_RR_SRC21_BYPASS( 29, 0, 0, slt, 0, 17, 13 );
 8007b98:	00000213          	li	tp,0
 8007b9c:	00d00113          	li	sp,13
 8007ba0:	01100093          	li	ra,17
 8007ba4:	0020a733          	slt	a4,ra,sp
 8007ba8:	00120213          	addi	tp,tp,1 # 1 <u_mode_trap_table-0x8000003>
 8007bac:	00200293          	li	t0,2
 8007bb0:	fe5216e3          	bne	tp,t0,8007b9c <test_29+0x4>
 8007bb4:	00000e93          	li	t4,0
 8007bb8:	01d00193          	li	gp,29
 8007bbc:	01d70463          	beq	a4,t4,8007bc4 <test_30>
 8007bc0:	5380a06f          	j	80120f8 <fail>

0000000008007bc4 <test_30>:
  TEST_RR_SRC21_BYPASS( 30, 0, 1, slt, 1,  8, 13 );
 8007bc4:	00000213          	li	tp,0
 8007bc8:	00d00113          	li	sp,13
 8007bcc:	00800093          	li	ra,8
 8007bd0:	00000013          	nop
 8007bd4:	0020a733          	slt	a4,ra,sp
 8007bd8:	00120213          	addi	tp,tp,1 # 1 <u_mode_trap_table-0x8000003>
 8007bdc:	00200293          	li	t0,2
 8007be0:	fe5214e3          	bne	tp,t0,8007bc8 <test_30+0x4>
 8007be4:	00100e93          	li	t4,1
 8007be8:	01e00193          	li	gp,30
 8007bec:	01d70463          	beq	a4,t4,8007bf4 <test_31>
 8007bf0:	5080a06f          	j	80120f8 <fail>

0000000008007bf4 <test_31>:
  TEST_RR_SRC21_BYPASS( 31, 0, 2, slt, 0, 18, 13 );
 8007bf4:	00000213          	li	tp,0
 8007bf8:	00d00113          	li	sp,13
 8007bfc:	01200093          	li	ra,18
 8007c00:	00000013          	nop
 8007c04:	00000013          	nop
 8007c08:	0020a733          	slt	a4,ra,sp
 8007c0c:	00120213          	addi	tp,tp,1 # 1 <u_mode_trap_table-0x8000003>
 8007c10:	00200293          	li	t0,2
 8007c14:	fe5212e3          	bne	tp,t0,8007bf8 <test_31+0x4>
 8007c18:	00000e93          	li	t4,0
 8007c1c:	01f00193          	li	gp,31
 8007c20:	01d70463          	beq	a4,t4,8007c28 <test_32>
 8007c24:	4d40a06f          	j	80120f8 <fail>

0000000008007c28 <test_32>:
  TEST_RR_SRC21_BYPASS( 32, 1, 0, slt, 1,  7, 13 );
 8007c28:	00000213          	li	tp,0
 8007c2c:	00d00113          	li	sp,13
 8007c30:	00000013          	nop
 8007c34:	00700093          	li	ra,7
 8007c38:	0020a733          	slt	a4,ra,sp
 8007c3c:	00120213          	addi	tp,tp,1 # 1 <u_mode_trap_table-0x8000003>
 8007c40:	00200293          	li	t0,2
 8007c44:	fe5214e3          	bne	tp,t0,8007c2c <test_32+0x4>
 8007c48:	00100e93          	li	t4,1
 8007c4c:	02000193          	li	gp,32
 8007c50:	01d70463          	beq	a4,t4,8007c58 <test_33>
 8007c54:	4a40a06f          	j	80120f8 <fail>

0000000008007c58 <test_33>:
  TEST_RR_SRC21_BYPASS( 33, 1, 1, slt, 0, 19, 13 );
 8007c58:	00000213          	li	tp,0
 8007c5c:	00d00113          	li	sp,13
 8007c60:	00000013          	nop
 8007c64:	01300093          	li	ra,19
 8007c68:	00000013          	nop
 8007c6c:	0020a733          	slt	a4,ra,sp
 8007c70:	00120213          	addi	tp,tp,1 # 1 <u_mode_trap_table-0x8000003>
 8007c74:	00200293          	li	t0,2
 8007c78:	fe5212e3          	bne	tp,t0,8007c5c <test_33+0x4>
 8007c7c:	00000e93          	li	t4,0
 8007c80:	02100193          	li	gp,33
 8007c84:	01d70463          	beq	a4,t4,8007c8c <test_34>
 8007c88:	4700a06f          	j	80120f8 <fail>

0000000008007c8c <test_34>:
  TEST_RR_SRC21_BYPASS( 34, 2, 0, slt, 1,  6, 13 );
 8007c8c:	00000213          	li	tp,0
 8007c90:	00d00113          	li	sp,13
 8007c94:	00000013          	nop
 8007c98:	00000013          	nop
 8007c9c:	00600093          	li	ra,6
 8007ca0:	0020a733          	slt	a4,ra,sp
 8007ca4:	00120213          	addi	tp,tp,1 # 1 <u_mode_trap_table-0x8000003>
 8007ca8:	00200293          	li	t0,2
 8007cac:	fe5212e3          	bne	tp,t0,8007c90 <test_34+0x4>
 8007cb0:	00100e93          	li	t4,1
 8007cb4:	02200193          	li	gp,34
 8007cb8:	01d70463          	beq	a4,t4,8007cc0 <test_35>
 8007cbc:	43c0a06f          	j	80120f8 <fail>

0000000008007cc0 <test_35>:

  TEST_RR_ZEROSRC1( 35, slt, 0, -1 );
 8007cc0:	fff00093          	li	ra,-1
 8007cc4:	00102133          	sgtz	sp,ra
 8007cc8:	00000e93          	li	t4,0
 8007ccc:	02300193          	li	gp,35
 8007cd0:	01d10463          	beq	sp,t4,8007cd8 <test_36>
 8007cd4:	4240a06f          	j	80120f8 <fail>

0000000008007cd8 <test_36>:
  TEST_RR_ZEROSRC2( 36, slt, 1, -1 );
 8007cd8:	fff00093          	li	ra,-1
 8007cdc:	0000a133          	sltz	sp,ra
 8007ce0:	00100e93          	li	t4,1
 8007ce4:	02400193          	li	gp,36
 8007ce8:	01d10463          	beq	sp,t4,8007cf0 <test_37>
 8007cec:	40c0a06f          	j	80120f8 <fail>

0000000008007cf0 <test_37>:
  TEST_RR_ZEROSRC12( 37, slt, 0 );
 8007cf0:	000020b3          	sltz	ra,zero
 8007cf4:	00000e93          	li	t4,0
 8007cf8:	02500193          	li	gp,37
 8007cfc:	01d08463          	beq	ra,t4,8007d04 <test_38>
 8007d00:	3f80a06f          	j	80120f8 <fail>

0000000008007d04 <test_38>:
  TEST_RR_ZERODEST( 38, slt, 16, 30 );
 8007d04:	01000093          	li	ra,16
 8007d08:	01e00113          	li	sp,30
 8007d0c:	0020a033          	slt	zero,ra,sp
 8007d10:	00000e93          	li	t4,0
 8007d14:	02600193          	li	gp,38
 8007d18:	01d00463          	beq	zero,t4,8007d20 <test_38+0x1c>
 8007d1c:	3dc0a06f          	j	80120f8 <fail>

  TEST_PASSFAIL

RVTEST_CODE_END
 8007d20:	c0001073          	unimp

0000000008007d24 <test_2>:

  #-------------------------------------------------------------
  # Arithmetic tests
  #-------------------------------------------------------------

  TEST_IMM_OP( 2,  slti, 0, 0x0000000000000000, 0x000 );
 8007d24:	00000093          	li	ra,0
 8007d28:	0000a713          	slti	a4,ra,0
 8007d2c:	00000e93          	li	t4,0
 8007d30:	00200193          	li	gp,2
 8007d34:	01d70463          	beq	a4,t4,8007d3c <test_3>
 8007d38:	3c00a06f          	j	80120f8 <fail>

0000000008007d3c <test_3>:
  TEST_IMM_OP( 3,  slti, 0, 0x0000000000000001, 0x001 );
 8007d3c:	00100093          	li	ra,1
 8007d40:	0010a713          	slti	a4,ra,1
 8007d44:	00000e93          	li	t4,0
 8007d48:	00300193          	li	gp,3
 8007d4c:	01d70463          	beq	a4,t4,8007d54 <test_4>
 8007d50:	3a80a06f          	j	80120f8 <fail>

0000000008007d54 <test_4>:
  TEST_IMM_OP( 4,  slti, 1, 0x0000000000000003, 0x007 );
 8007d54:	00300093          	li	ra,3
 8007d58:	0070a713          	slti	a4,ra,7
 8007d5c:	00100e93          	li	t4,1
 8007d60:	00400193          	li	gp,4
 8007d64:	01d70463          	beq	a4,t4,8007d6c <test_5>
 8007d68:	3900a06f          	j	80120f8 <fail>

0000000008007d6c <test_5>:
  TEST_IMM_OP( 5,  slti, 0, 0x0000000000000007, 0x003 );
 8007d6c:	00700093          	li	ra,7
 8007d70:	0030a713          	slti	a4,ra,3
 8007d74:	00000e93          	li	t4,0
 8007d78:	00500193          	li	gp,5
 8007d7c:	01d70463          	beq	a4,t4,8007d84 <test_6>
 8007d80:	3780a06f          	j	80120f8 <fail>

0000000008007d84 <test_6>:

  TEST_IMM_OP( 6,  slti, 0, 0x0000000000000000, 0x800 );
 8007d84:	00000093          	li	ra,0
 8007d88:	8000a713          	slti	a4,ra,-2048
 8007d8c:	00000e93          	li	t4,0
 8007d90:	00600193          	li	gp,6
 8007d94:	01d70463          	beq	a4,t4,8007d9c <test_7>
 8007d98:	3600a06f          	j	80120f8 <fail>

0000000008007d9c <test_7>:
  TEST_IMM_OP( 7,  slti, 1, 0xffffffff80000000, 0x000 );
 8007d9c:	800000b7          	lui	ra,0x80000
 8007da0:	0000a713          	slti	a4,ra,0
 8007da4:	00100e93          	li	t4,1
 8007da8:	00700193          	li	gp,7
 8007dac:	01d70463          	beq	a4,t4,8007db4 <test_8>
 8007db0:	3480a06f          	j	80120f8 <fail>

0000000008007db4 <test_8>:
  TEST_IMM_OP( 8,  slti, 1, 0xffffffff80000000, 0x800 );
 8007db4:	800000b7          	lui	ra,0x80000
 8007db8:	8000a713          	slti	a4,ra,-2048
 8007dbc:	00100e93          	li	t4,1
 8007dc0:	00800193          	li	gp,8
 8007dc4:	01d70463          	beq	a4,t4,8007dcc <test_9>
 8007dc8:	3300a06f          	j	80120f8 <fail>

0000000008007dcc <test_9>:

  TEST_IMM_OP( 9,  slti, 1, 0x0000000000000000, 0x7ff );
 8007dcc:	00000093          	li	ra,0
 8007dd0:	7ff0a713          	slti	a4,ra,2047
 8007dd4:	00100e93          	li	t4,1
 8007dd8:	00900193          	li	gp,9
 8007ddc:	01d70463          	beq	a4,t4,8007de4 <test_10>
 8007de0:	3180a06f          	j	80120f8 <fail>

0000000008007de4 <test_10>:
  TEST_IMM_OP( 10, slti, 0, 0x000000007fffffff, 0x000 );
 8007de4:	800000b7          	lui	ra,0x80000
 8007de8:	fff0809b          	addiw	ra,ra,-1
 8007dec:	0000a713          	slti	a4,ra,0
 8007df0:	00000e93          	li	t4,0
 8007df4:	00a00193          	li	gp,10
 8007df8:	01d70463          	beq	a4,t4,8007e00 <test_11>
 8007dfc:	2fc0a06f          	j	80120f8 <fail>

0000000008007e00 <test_11>:
  TEST_IMM_OP( 11, slti, 0, 0x000000007fffffff, 0x7ff );
 8007e00:	800000b7          	lui	ra,0x80000
 8007e04:	fff0809b          	addiw	ra,ra,-1
 8007e08:	7ff0a713          	slti	a4,ra,2047
 8007e0c:	00000e93          	li	t4,0
 8007e10:	00b00193          	li	gp,11
 8007e14:	01d70463          	beq	a4,t4,8007e1c <test_12>
 8007e18:	2e00a06f          	j	80120f8 <fail>

0000000008007e1c <test_12>:

  TEST_IMM_OP( 12, slti, 1, 0xffffffff80000000, 0x7ff );
 8007e1c:	800000b7          	lui	ra,0x80000
 8007e20:	7ff0a713          	slti	a4,ra,2047
 8007e24:	00100e93          	li	t4,1
 8007e28:	00c00193          	li	gp,12
 8007e2c:	01d70463          	beq	a4,t4,8007e34 <test_13>
 8007e30:	2c80a06f          	j	80120f8 <fail>

0000000008007e34 <test_13>:
  TEST_IMM_OP( 13, slti, 0, 0x000000007fffffff, 0x800 );
 8007e34:	800000b7          	lui	ra,0x80000
 8007e38:	fff0809b          	addiw	ra,ra,-1
 8007e3c:	8000a713          	slti	a4,ra,-2048
 8007e40:	00000e93          	li	t4,0
 8007e44:	00d00193          	li	gp,13
 8007e48:	01d70463          	beq	a4,t4,8007e50 <test_14>
 8007e4c:	2ac0a06f          	j	80120f8 <fail>

0000000008007e50 <test_14>:

  TEST_IMM_OP( 14, slti, 0, 0x0000000000000000, 0xfff );
 8007e50:	00000093          	li	ra,0
 8007e54:	fff0a713          	slti	a4,ra,-1
 8007e58:	00000e93          	li	t4,0
 8007e5c:	00e00193          	li	gp,14
 8007e60:	01d70463          	beq	a4,t4,8007e68 <test_15>
 8007e64:	2940a06f          	j	80120f8 <fail>

0000000008007e68 <test_15>:
  TEST_IMM_OP( 15, slti, 1, 0xffffffffffffffff, 0x001 );
 8007e68:	fff00093          	li	ra,-1
 8007e6c:	0010a713          	slti	a4,ra,1
 8007e70:	00100e93          	li	t4,1
 8007e74:	00f00193          	li	gp,15
 8007e78:	01d70463          	beq	a4,t4,8007e80 <test_16>
 8007e7c:	27c0a06f          	j	80120f8 <fail>

0000000008007e80 <test_16>:
  TEST_IMM_OP( 16, slti, 0, 0xffffffffffffffff, 0xfff );
 8007e80:	fff00093          	li	ra,-1
 8007e84:	fff0a713          	slti	a4,ra,-1
 8007e88:	00000e93          	li	t4,0
 8007e8c:	01000193          	li	gp,16
 8007e90:	01d70463          	beq	a4,t4,8007e98 <test_17>
 8007e94:	2640a06f          	j	80120f8 <fail>

0000000008007e98 <test_17>:

  #-------------------------------------------------------------
  # Source/Destination tests
  #-------------------------------------------------------------

  TEST_IMM_SRC1_EQ_DEST( 17, slti, 1, 11, 13 );
 8007e98:	00b00093          	li	ra,11
 8007e9c:	00d0a093          	slti	ra,ra,13
 8007ea0:	00100e93          	li	t4,1
 8007ea4:	01100193          	li	gp,17
 8007ea8:	01d08463          	beq	ra,t4,8007eb0 <test_18>
 8007eac:	24c0a06f          	j	80120f8 <fail>

0000000008007eb0 <test_18>:

  #-------------------------------------------------------------
  # Bypassing tests
  #-------------------------------------------------------------

  TEST_IMM_DEST_BYPASS( 18, 0, slti, 0, 15, 10 );
 8007eb0:	00000213          	li	tp,0
 8007eb4:	00f00093          	li	ra,15
 8007eb8:	00a0a713          	slti	a4,ra,10
 8007ebc:	00070313          	mv	t1,a4
 8007ec0:	00120213          	addi	tp,tp,1 # 1 <u_mode_trap_table-0x8000003>
 8007ec4:	00200293          	li	t0,2
 8007ec8:	fe5216e3          	bne	tp,t0,8007eb4 <test_18+0x4>
 8007ecc:	00000e93          	li	t4,0
 8007ed0:	01200193          	li	gp,18
 8007ed4:	01d30463          	beq	t1,t4,8007edc <test_19>
 8007ed8:	2200a06f          	j	80120f8 <fail>

0000000008007edc <test_19>:
  TEST_IMM_DEST_BYPASS( 19, 1, slti, 1, 10, 16 );
 8007edc:	00000213          	li	tp,0
 8007ee0:	00a00093          	li	ra,10
 8007ee4:	0100a713          	slti	a4,ra,16
 8007ee8:	00000013          	nop
 8007eec:	00070313          	mv	t1,a4
 8007ef0:	00120213          	addi	tp,tp,1 # 1 <u_mode_trap_table-0x8000003>
 8007ef4:	00200293          	li	t0,2
 8007ef8:	fe5214e3          	bne	tp,t0,8007ee0 <test_19+0x4>
 8007efc:	00100e93          	li	t4,1
 8007f00:	01300193          	li	gp,19
 8007f04:	01d30463          	beq	t1,t4,8007f0c <test_20>
 8007f08:	1f00a06f          	j	80120f8 <fail>

0000000008007f0c <test_20>:
  TEST_IMM_DEST_BYPASS( 20, 2, slti, 0, 16,  9 );
 8007f0c:	00000213          	li	tp,0
 8007f10:	01000093          	li	ra,16
 8007f14:	0090a713          	slti	a4,ra,9
 8007f18:	00000013          	nop
 8007f1c:	00000013          	nop
 8007f20:	00070313          	mv	t1,a4
 8007f24:	00120213          	addi	tp,tp,1 # 1 <u_mode_trap_table-0x8000003>
 8007f28:	00200293          	li	t0,2
 8007f2c:	fe5212e3          	bne	tp,t0,8007f10 <test_20+0x4>
 8007f30:	00000e93          	li	t4,0
 8007f34:	01400193          	li	gp,20
 8007f38:	01d30463          	beq	t1,t4,8007f40 <test_21>
 8007f3c:	1bc0a06f          	j	80120f8 <fail>

0000000008007f40 <test_21>:

  TEST_IMM_SRC1_BYPASS( 21, 0, slti, 1, 11, 15 );
 8007f40:	00000213          	li	tp,0
 8007f44:	00b00093          	li	ra,11
 8007f48:	00f0a713          	slti	a4,ra,15
 8007f4c:	00120213          	addi	tp,tp,1 # 1 <u_mode_trap_table-0x8000003>
 8007f50:	00200293          	li	t0,2
 8007f54:	fe5218e3          	bne	tp,t0,8007f44 <test_21+0x4>
 8007f58:	00100e93          	li	t4,1
 8007f5c:	01500193          	li	gp,21
 8007f60:	01d70463          	beq	a4,t4,8007f68 <test_22>
 8007f64:	1940a06f          	j	80120f8 <fail>

0000000008007f68 <test_22>:
  TEST_IMM_SRC1_BYPASS( 22, 1, slti, 0, 17,  8 );
 8007f68:	00000213          	li	tp,0
 8007f6c:	01100093          	li	ra,17
 8007f70:	00000013          	nop
 8007f74:	0080a713          	slti	a4,ra,8
 8007f78:	00120213          	addi	tp,tp,1 # 1 <u_mode_trap_table-0x8000003>
 8007f7c:	00200293          	li	t0,2
 8007f80:	fe5216e3          	bne	tp,t0,8007f6c <test_22+0x4>
 8007f84:	00000e93          	li	t4,0
 8007f88:	01600193          	li	gp,22
 8007f8c:	01d70463          	beq	a4,t4,8007f94 <test_23>
 8007f90:	1680a06f          	j	80120f8 <fail>

0000000008007f94 <test_23>:
  TEST_IMM_SRC1_BYPASS( 23, 2, slti, 1, 12, 14 );
 8007f94:	00000213          	li	tp,0
 8007f98:	00c00093          	li	ra,12
 8007f9c:	00000013          	nop
 8007fa0:	00000013          	nop
 8007fa4:	00e0a713          	slti	a4,ra,14
 8007fa8:	00120213          	addi	tp,tp,1 # 1 <u_mode_trap_table-0x8000003>
 8007fac:	00200293          	li	t0,2
 8007fb0:	fe5214e3          	bne	tp,t0,8007f98 <test_23+0x4>
 8007fb4:	00100e93          	li	t4,1
 8007fb8:	01700193          	li	gp,23
 8007fbc:	01d70463          	beq	a4,t4,8007fc4 <test_24>
 8007fc0:	1380a06f          	j	80120f8 <fail>

0000000008007fc4 <test_24>:

  TEST_IMM_ZEROSRC1( 24, slti, 0, 0xfff );
 8007fc4:	fff02093          	slti	ra,zero,-1
 8007fc8:	00000e93          	li	t4,0
 8007fcc:	01800193          	li	gp,24
 8007fd0:	01d08463          	beq	ra,t4,8007fd8 <test_25>
 8007fd4:	1240a06f          	j	80120f8 <fail>

0000000008007fd8 <test_25>:
  TEST_IMM_ZERODEST( 25, slti, 0x00ff00ff, 0xfff );
 8007fd8:	00ff00b7          	lui	ra,0xff0
 8007fdc:	0ff0809b          	addiw	ra,ra,255
 8007fe0:	fff0a013          	slti	zero,ra,-1
 8007fe4:	00000e93          	li	t4,0
 8007fe8:	01900193          	li	gp,25
 8007fec:	01d00463          	beq	zero,t4,8007ff4 <test_25+0x1c>
 8007ff0:	1080a06f          	j	80120f8 <fail>

  TEST_PASSFAIL

RVTEST_CODE_END
 8007ff4:	c0001073          	unimp

0000000008007ff8 <test_2>:

  #-------------------------------------------------------------
  # Arithmetic tests
  #-------------------------------------------------------------

  TEST_IMM_OP( 2,  sltiu, 0, 0x0000000000000000, 0x000 );
 8007ff8:	00000093          	li	ra,0
 8007ffc:	0000b713          	sltiu	a4,ra,0
 8008000:	00000e93          	li	t4,0
 8008004:	00200193          	li	gp,2
 8008008:	01d70463          	beq	a4,t4,8008010 <test_3>
 800800c:	0ec0a06f          	j	80120f8 <fail>

0000000008008010 <test_3>:
  TEST_IMM_OP( 3,  sltiu, 0, 0x0000000000000001, 0x001 );
 8008010:	00100093          	li	ra,1
 8008014:	0010b713          	seqz	a4,ra
 8008018:	00000e93          	li	t4,0
 800801c:	00300193          	li	gp,3
 8008020:	01d70463          	beq	a4,t4,8008028 <test_4>
 8008024:	0d40a06f          	j	80120f8 <fail>

0000000008008028 <test_4>:
  TEST_IMM_OP( 4,  sltiu, 1, 0x0000000000000003, 0x007 );
 8008028:	00300093          	li	ra,3
 800802c:	0070b713          	sltiu	a4,ra,7
 8008030:	00100e93          	li	t4,1
 8008034:	00400193          	li	gp,4
 8008038:	01d70463          	beq	a4,t4,8008040 <test_5>
 800803c:	0bc0a06f          	j	80120f8 <fail>

0000000008008040 <test_5>:
  TEST_IMM_OP( 5,  sltiu, 0, 0x0000000000000007, 0x003 );
 8008040:	00700093          	li	ra,7
 8008044:	0030b713          	sltiu	a4,ra,3
 8008048:	00000e93          	li	t4,0
 800804c:	00500193          	li	gp,5
 8008050:	01d70463          	beq	a4,t4,8008058 <test_6>
 8008054:	0a40a06f          	j	80120f8 <fail>

0000000008008058 <test_6>:

  TEST_IMM_OP( 6,  sltiu, 1, 0x0000000000000000, 0x800 );
 8008058:	00000093          	li	ra,0
 800805c:	8000b713          	sltiu	a4,ra,-2048
 8008060:	00100e93          	li	t4,1
 8008064:	00600193          	li	gp,6
 8008068:	01d70463          	beq	a4,t4,8008070 <test_7>
 800806c:	08c0a06f          	j	80120f8 <fail>

0000000008008070 <test_7>:
  TEST_IMM_OP( 7,  sltiu, 0, 0xffffffff80000000, 0x000 );
 8008070:	800000b7          	lui	ra,0x80000
 8008074:	0000b713          	sltiu	a4,ra,0
 8008078:	00000e93          	li	t4,0
 800807c:	00700193          	li	gp,7
 8008080:	01d70463          	beq	a4,t4,8008088 <test_8>
 8008084:	0740a06f          	j	80120f8 <fail>

0000000008008088 <test_8>:
  TEST_IMM_OP( 8,  sltiu, 1, 0xffffffff80000000, 0x800 );
 8008088:	800000b7          	lui	ra,0x80000
 800808c:	8000b713          	sltiu	a4,ra,-2048
 8008090:	00100e93          	li	t4,1
 8008094:	00800193          	li	gp,8
 8008098:	01d70463          	beq	a4,t4,80080a0 <test_9>
 800809c:	05c0a06f          	j	80120f8 <fail>

00000000080080a0 <test_9>:

  TEST_IMM_OP( 9,  sltiu, 1, 0x0000000000000000, 0x7ff );
 80080a0:	00000093          	li	ra,0
 80080a4:	7ff0b713          	sltiu	a4,ra,2047
 80080a8:	00100e93          	li	t4,1
 80080ac:	00900193          	li	gp,9
 80080b0:	01d70463          	beq	a4,t4,80080b8 <test_10>
 80080b4:	0440a06f          	j	80120f8 <fail>

00000000080080b8 <test_10>:
  TEST_IMM_OP( 10, sltiu, 0, 0x000000007fffffff, 0x000 );
 80080b8:	800000b7          	lui	ra,0x80000
 80080bc:	fff0809b          	addiw	ra,ra,-1
 80080c0:	0000b713          	sltiu	a4,ra,0
 80080c4:	00000e93          	li	t4,0
 80080c8:	00a00193          	li	gp,10
 80080cc:	01d70463          	beq	a4,t4,80080d4 <test_11>
 80080d0:	0280a06f          	j	80120f8 <fail>

00000000080080d4 <test_11>:
  TEST_IMM_OP( 11, sltiu, 0, 0x000000007fffffff, 0x7ff );
 80080d4:	800000b7          	lui	ra,0x80000
 80080d8:	fff0809b          	addiw	ra,ra,-1
 80080dc:	7ff0b713          	sltiu	a4,ra,2047
 80080e0:	00000e93          	li	t4,0
 80080e4:	00b00193          	li	gp,11
 80080e8:	01d70463          	beq	a4,t4,80080f0 <test_12>
 80080ec:	00c0a06f          	j	80120f8 <fail>

00000000080080f0 <test_12>:

  TEST_IMM_OP( 12, sltiu, 0, 0xffffffff80000000, 0x7ff );
 80080f0:	800000b7          	lui	ra,0x80000
 80080f4:	7ff0b713          	sltiu	a4,ra,2047
 80080f8:	00000e93          	li	t4,0
 80080fc:	00c00193          	li	gp,12
 8008100:	01d70463          	beq	a4,t4,8008108 <test_13>
 8008104:	7f50906f          	j	80120f8 <fail>

0000000008008108 <test_13>:
  TEST_IMM_OP( 13, sltiu, 1, 0x000000007fffffff, 0x800 );
 8008108:	800000b7          	lui	ra,0x80000
 800810c:	fff0809b          	addiw	ra,ra,-1
 8008110:	8000b713          	sltiu	a4,ra,-2048
 8008114:	00100e93          	li	t4,1
 8008118:	00d00193          	li	gp,13
 800811c:	01d70463          	beq	a4,t4,8008124 <test_14>
 8008120:	7d90906f          	j	80120f8 <fail>

0000000008008124 <test_14>:

  TEST_IMM_OP( 14, sltiu, 1, 0x0000000000000000, 0xfff );
 8008124:	00000093          	li	ra,0
 8008128:	fff0b713          	sltiu	a4,ra,-1
 800812c:	00100e93          	li	t4,1
 8008130:	00e00193          	li	gp,14
 8008134:	01d70463          	beq	a4,t4,800813c <test_15>
 8008138:	7c10906f          	j	80120f8 <fail>

000000000800813c <test_15>:
  TEST_IMM_OP( 15, sltiu, 0, 0xffffffffffffffff, 0x001 );
 800813c:	fff00093          	li	ra,-1
 8008140:	0010b713          	seqz	a4,ra
 8008144:	00000e93          	li	t4,0
 8008148:	00f00193          	li	gp,15
 800814c:	01d70463          	beq	a4,t4,8008154 <test_16>
 8008150:	7a90906f          	j	80120f8 <fail>

0000000008008154 <test_16>:
  TEST_IMM_OP( 16, sltiu, 0, 0xffffffffffffffff, 0xfff );
 8008154:	fff00093          	li	ra,-1
 8008158:	fff0b713          	sltiu	a4,ra,-1
 800815c:	00000e93          	li	t4,0
 8008160:	01000193          	li	gp,16
 8008164:	01d70463          	beq	a4,t4,800816c <test_17>
 8008168:	7910906f          	j	80120f8 <fail>

000000000800816c <test_17>:

  #-------------------------------------------------------------
  # Source/Destination tests
  #-------------------------------------------------------------

  TEST_IMM_SRC1_EQ_DEST( 17, sltiu, 1, 11, 13 );
 800816c:	00b00093          	li	ra,11
 8008170:	00d0b093          	sltiu	ra,ra,13
 8008174:	00100e93          	li	t4,1
 8008178:	01100193          	li	gp,17
 800817c:	01d08463          	beq	ra,t4,8008184 <test_18>
 8008180:	7790906f          	j	80120f8 <fail>

0000000008008184 <test_18>:

  #-------------------------------------------------------------
  # Bypassing tests
  #-------------------------------------------------------------

  TEST_IMM_DEST_BYPASS( 18, 0, sltiu, 0, 15, 10 );
 8008184:	00000213          	li	tp,0
 8008188:	00f00093          	li	ra,15
 800818c:	00a0b713          	sltiu	a4,ra,10
 8008190:	00070313          	mv	t1,a4
 8008194:	00120213          	addi	tp,tp,1 # 1 <u_mode_trap_table-0x8000003>
 8008198:	00200293          	li	t0,2
 800819c:	fe5216e3          	bne	tp,t0,8008188 <test_18+0x4>
 80081a0:	00000e93          	li	t4,0
 80081a4:	01200193          	li	gp,18
 80081a8:	01d30463          	beq	t1,t4,80081b0 <test_19>
 80081ac:	74d0906f          	j	80120f8 <fail>

00000000080081b0 <test_19>:
  TEST_IMM_DEST_BYPASS( 19, 1, sltiu, 1, 10, 16 );
 80081b0:	00000213          	li	tp,0
 80081b4:	00a00093          	li	ra,10
 80081b8:	0100b713          	sltiu	a4,ra,16
 80081bc:	00000013          	nop
 80081c0:	00070313          	mv	t1,a4
 80081c4:	00120213          	addi	tp,tp,1 # 1 <u_mode_trap_table-0x8000003>
 80081c8:	00200293          	li	t0,2
 80081cc:	fe5214e3          	bne	tp,t0,80081b4 <test_19+0x4>
 80081d0:	00100e93          	li	t4,1
 80081d4:	01300193          	li	gp,19
 80081d8:	01d30463          	beq	t1,t4,80081e0 <test_20>
 80081dc:	71d0906f          	j	80120f8 <fail>

00000000080081e0 <test_20>:
  TEST_IMM_DEST_BYPASS( 20, 2, sltiu, 0, 16,  9 );
 80081e0:	00000213          	li	tp,0
 80081e4:	01000093          	li	ra,16
 80081e8:	0090b713          	sltiu	a4,ra,9
 80081ec:	00000013          	nop
 80081f0:	00000013          	nop
 80081f4:	00070313          	mv	t1,a4
 80081f8:	00120213          	addi	tp,tp,1 # 1 <u_mode_trap_table-0x8000003>
 80081fc:	00200293          	li	t0,2
 8008200:	fe5212e3          	bne	tp,t0,80081e4 <test_20+0x4>
 8008204:	00000e93          	li	t4,0
 8008208:	01400193          	li	gp,20
 800820c:	01d30463          	beq	t1,t4,8008214 <test_21>
 8008210:	6e90906f          	j	80120f8 <fail>

0000000008008214 <test_21>:

  TEST_IMM_SRC1_BYPASS( 21, 0, sltiu, 1, 11, 15 );
 8008214:	00000213          	li	tp,0
 8008218:	00b00093          	li	ra,11
 800821c:	00f0b713          	sltiu	a4,ra,15
 8008220:	00120213          	addi	tp,tp,1 # 1 <u_mode_trap_table-0x8000003>
 8008224:	00200293          	li	t0,2
 8008228:	fe5218e3          	bne	tp,t0,8008218 <test_21+0x4>
 800822c:	00100e93          	li	t4,1
 8008230:	01500193          	li	gp,21
 8008234:	01d70463          	beq	a4,t4,800823c <test_22>
 8008238:	6c10906f          	j	80120f8 <fail>

000000000800823c <test_22>:
  TEST_IMM_SRC1_BYPASS( 22, 1, sltiu, 0, 17,  8 );
 800823c:	00000213          	li	tp,0
 8008240:	01100093          	li	ra,17
 8008244:	00000013          	nop
 8008248:	0080b713          	sltiu	a4,ra,8
 800824c:	00120213          	addi	tp,tp,1 # 1 <u_mode_trap_table-0x8000003>
 8008250:	00200293          	li	t0,2
 8008254:	fe5216e3          	bne	tp,t0,8008240 <test_22+0x4>
 8008258:	00000e93          	li	t4,0
 800825c:	01600193          	li	gp,22
 8008260:	01d70463          	beq	a4,t4,8008268 <test_23>
 8008264:	6950906f          	j	80120f8 <fail>

0000000008008268 <test_23>:
  TEST_IMM_SRC1_BYPASS( 23, 2, sltiu, 1, 12, 14 );
 8008268:	00000213          	li	tp,0
 800826c:	00c00093          	li	ra,12
 8008270:	00000013          	nop
 8008274:	00000013          	nop
 8008278:	00e0b713          	sltiu	a4,ra,14
 800827c:	00120213          	addi	tp,tp,1 # 1 <u_mode_trap_table-0x8000003>
 8008280:	00200293          	li	t0,2
 8008284:	fe5214e3          	bne	tp,t0,800826c <test_23+0x4>
 8008288:	00100e93          	li	t4,1
 800828c:	01700193          	li	gp,23
 8008290:	01d70463          	beq	a4,t4,8008298 <test_24>
 8008294:	6650906f          	j	80120f8 <fail>

0000000008008298 <test_24>:

  TEST_IMM_ZEROSRC1( 24, sltiu, 1, 0xfff );
 8008298:	fff03093          	sltiu	ra,zero,-1
 800829c:	00100e93          	li	t4,1
 80082a0:	01800193          	li	gp,24
 80082a4:	01d08463          	beq	ra,t4,80082ac <test_25>
 80082a8:	6510906f          	j	80120f8 <fail>

00000000080082ac <test_25>:
  TEST_IMM_ZERODEST( 25, sltiu, 0x00ff00ff, 0xfff );
 80082ac:	00ff00b7          	lui	ra,0xff0
 80082b0:	0ff0809b          	addiw	ra,ra,255
 80082b4:	fff0b013          	sltiu	zero,ra,-1
 80082b8:	00000e93          	li	t4,0
 80082bc:	01900193          	li	gp,25
 80082c0:	01d00463          	beq	zero,t4,80082c8 <test_25+0x1c>
 80082c4:	6350906f          	j	80120f8 <fail>

  TEST_PASSFAIL

RVTEST_CODE_END
 80082c8:	c0001073          	unimp

00000000080082cc <test_2>:

  #-------------------------------------------------------------
  # Arithmetic tests
  #-------------------------------------------------------------

  TEST_RR_OP( 2,  sltu, 0, 0x00000000, 0x00000000 );
 80082cc:	00000093          	li	ra,0
 80082d0:	00000113          	li	sp,0
 80082d4:	0020b733          	sltu	a4,ra,sp
 80082d8:	00000e93          	li	t4,0
 80082dc:	00200193          	li	gp,2
 80082e0:	01d70463          	beq	a4,t4,80082e8 <test_3>
 80082e4:	6150906f          	j	80120f8 <fail>

00000000080082e8 <test_3>:
  TEST_RR_OP( 3,  sltu, 0, 0x00000001, 0x00000001 );
 80082e8:	00100093          	li	ra,1
 80082ec:	00100113          	li	sp,1
 80082f0:	0020b733          	sltu	a4,ra,sp
 80082f4:	00000e93          	li	t4,0
 80082f8:	00300193          	li	gp,3
 80082fc:	01d70463          	beq	a4,t4,8008304 <test_4>
 8008300:	5f90906f          	j	80120f8 <fail>

0000000008008304 <test_4>:
  TEST_RR_OP( 4,  sltu, 1, 0x00000003, 0x00000007 );
 8008304:	00300093          	li	ra,3
 8008308:	00700113          	li	sp,7
 800830c:	0020b733          	sltu	a4,ra,sp
 8008310:	00100e93          	li	t4,1
 8008314:	00400193          	li	gp,4
 8008318:	01d70463          	beq	a4,t4,8008320 <test_5>
 800831c:	5dd0906f          	j	80120f8 <fail>

0000000008008320 <test_5>:
  TEST_RR_OP( 5,  sltu, 0, 0x00000007, 0x00000003 );
 8008320:	00700093          	li	ra,7
 8008324:	00300113          	li	sp,3
 8008328:	0020b733          	sltu	a4,ra,sp
 800832c:	00000e93          	li	t4,0
 8008330:	00500193          	li	gp,5
 8008334:	01d70463          	beq	a4,t4,800833c <test_6>
 8008338:	5c10906f          	j	80120f8 <fail>

000000000800833c <test_6>:

  TEST_RR_OP( 6,  sltu, 1, 0x00000000, 0xffff8000 );
 800833c:	00000093          	li	ra,0
 8008340:	00020137          	lui	sp,0x20
 8008344:	fff1011b          	addiw	sp,sp,-1
 8008348:	00f11113          	slli	sp,sp,0xf
 800834c:	0020b733          	sltu	a4,ra,sp
 8008350:	00100e93          	li	t4,1
 8008354:	00600193          	li	gp,6
 8008358:	01d70463          	beq	a4,t4,8008360 <test_7>
 800835c:	59d0906f          	j	80120f8 <fail>

0000000008008360 <test_7>:
  TEST_RR_OP( 7,  sltu, 0, 0x80000000, 0x00000000 );
 8008360:	0010009b          	addiw	ra,zero,1
 8008364:	01f09093          	slli	ra,ra,0x1f
 8008368:	00000113          	li	sp,0
 800836c:	0020b733          	sltu	a4,ra,sp
 8008370:	00000e93          	li	t4,0
 8008374:	00700193          	li	gp,7
 8008378:	01d70463          	beq	a4,t4,8008380 <test_8>
 800837c:	57d0906f          	j	80120f8 <fail>

0000000008008380 <test_8>:
  TEST_RR_OP( 8,  sltu, 1, 0x80000000, 0xffff8000 );
 8008380:	0010009b          	addiw	ra,zero,1
 8008384:	01f09093          	slli	ra,ra,0x1f
 8008388:	00020137          	lui	sp,0x20
 800838c:	fff1011b          	addiw	sp,sp,-1
 8008390:	00f11113          	slli	sp,sp,0xf
 8008394:	0020b733          	sltu	a4,ra,sp
 8008398:	00100e93          	li	t4,1
 800839c:	00800193          	li	gp,8
 80083a0:	01d70463          	beq	a4,t4,80083a8 <test_9>
 80083a4:	5550906f          	j	80120f8 <fail>

00000000080083a8 <test_9>:

  TEST_RR_OP( 9,  sltu, 1, 0x00000000, 0x00007fff );
 80083a8:	00000093          	li	ra,0
 80083ac:	00008137          	lui	sp,0x8
 80083b0:	fff1011b          	addiw	sp,sp,-1
 80083b4:	0020b733          	sltu	a4,ra,sp
 80083b8:	00100e93          	li	t4,1
 80083bc:	00900193          	li	gp,9
 80083c0:	01d70463          	beq	a4,t4,80083c8 <test_10>
 80083c4:	5350906f          	j	80120f8 <fail>

00000000080083c8 <test_10>:
  TEST_RR_OP( 10, sltu, 0, 0x7fffffff, 0x00000000 );
 80083c8:	800000b7          	lui	ra,0x80000
 80083cc:	fff0809b          	addiw	ra,ra,-1
 80083d0:	00000113          	li	sp,0
 80083d4:	0020b733          	sltu	a4,ra,sp
 80083d8:	00000e93          	li	t4,0
 80083dc:	00a00193          	li	gp,10
 80083e0:	01d70463          	beq	a4,t4,80083e8 <test_11>
 80083e4:	5150906f          	j	80120f8 <fail>

00000000080083e8 <test_11>:
  TEST_RR_OP( 11, sltu, 0, 0x7fffffff, 0x00007fff );
 80083e8:	800000b7          	lui	ra,0x80000
 80083ec:	fff0809b          	addiw	ra,ra,-1
 80083f0:	00008137          	lui	sp,0x8
 80083f4:	fff1011b          	addiw	sp,sp,-1
 80083f8:	0020b733          	sltu	a4,ra,sp
 80083fc:	00000e93          	li	t4,0
 8008400:	00b00193          	li	gp,11
 8008404:	01d70463          	beq	a4,t4,800840c <test_12>
 8008408:	4f10906f          	j	80120f8 <fail>

000000000800840c <test_12>:

  TEST_RR_OP( 12, sltu, 0, 0x80000000, 0x00007fff );
 800840c:	0010009b          	addiw	ra,zero,1
 8008410:	01f09093          	slli	ra,ra,0x1f
 8008414:	00008137          	lui	sp,0x8
 8008418:	fff1011b          	addiw	sp,sp,-1
 800841c:	0020b733          	sltu	a4,ra,sp
 8008420:	00000e93          	li	t4,0
 8008424:	00c00193          	li	gp,12
 8008428:	01d70463          	beq	a4,t4,8008430 <test_13>
 800842c:	4cd0906f          	j	80120f8 <fail>

0000000008008430 <test_13>:
  TEST_RR_OP( 13, sltu, 1, 0x7fffffff, 0xffff8000 );
 8008430:	800000b7          	lui	ra,0x80000
 8008434:	fff0809b          	addiw	ra,ra,-1
 8008438:	00020137          	lui	sp,0x20
 800843c:	fff1011b          	addiw	sp,sp,-1
 8008440:	00f11113          	slli	sp,sp,0xf
 8008444:	0020b733          	sltu	a4,ra,sp
 8008448:	00100e93          	li	t4,1
 800844c:	00d00193          	li	gp,13
 8008450:	01d70463          	beq	a4,t4,8008458 <test_14>
 8008454:	4a50906f          	j	80120f8 <fail>

0000000008008458 <test_14>:

  TEST_RR_OP( 14, sltu, 1, 0x00000000, 0xffffffff );
 8008458:	00000093          	li	ra,0
 800845c:	0010011b          	addiw	sp,zero,1
 8008460:	02011113          	slli	sp,sp,0x20
 8008464:	fff10113          	addi	sp,sp,-1 # 1ffff <u_mode_trap_table-0x7fe0005>
 8008468:	0020b733          	sltu	a4,ra,sp
 800846c:	00100e93          	li	t4,1
 8008470:	00e00193          	li	gp,14
 8008474:	01d70463          	beq	a4,t4,800847c <test_15>
 8008478:	4810906f          	j	80120f8 <fail>

000000000800847c <test_15>:
  TEST_RR_OP( 15, sltu, 0, 0xffffffff, 0x00000001 );
 800847c:	0010009b          	addiw	ra,zero,1
 8008480:	02009093          	slli	ra,ra,0x20
 8008484:	fff08093          	addi	ra,ra,-1 # ffffffff7fffffff <_end+0xffffffff77fec99f>
 8008488:	00100113          	li	sp,1
 800848c:	0020b733          	sltu	a4,ra,sp
 8008490:	00000e93          	li	t4,0
 8008494:	00f00193          	li	gp,15
 8008498:	01d70463          	beq	a4,t4,80084a0 <test_16>
 800849c:	45d0906f          	j	80120f8 <fail>

00000000080084a0 <test_16>:
  TEST_RR_OP( 16, sltu, 0, 0xffffffff, 0xffffffff );
 80084a0:	0010009b          	addiw	ra,zero,1
 80084a4:	02009093          	slli	ra,ra,0x20
 80084a8:	fff08093          	addi	ra,ra,-1
 80084ac:	0010011b          	addiw	sp,zero,1
 80084b0:	02011113          	slli	sp,sp,0x20
 80084b4:	fff10113          	addi	sp,sp,-1
 80084b8:	0020b733          	sltu	a4,ra,sp
 80084bc:	00000e93          	li	t4,0
 80084c0:	01000193          	li	gp,16
 80084c4:	01d70463          	beq	a4,t4,80084cc <test_17>
 80084c8:	4310906f          	j	80120f8 <fail>

00000000080084cc <test_17>:

  #-------------------------------------------------------------
  # Source/Destination tests
  #-------------------------------------------------------------

  TEST_RR_SRC1_EQ_DEST( 17, sltu, 0, 14, 13 );
 80084cc:	00e00093          	li	ra,14
 80084d0:	00d00113          	li	sp,13
 80084d4:	0020b0b3          	sltu	ra,ra,sp
 80084d8:	00000e93          	li	t4,0
 80084dc:	01100193          	li	gp,17
 80084e0:	01d08463          	beq	ra,t4,80084e8 <test_18>
 80084e4:	4150906f          	j	80120f8 <fail>

00000000080084e8 <test_18>:
  TEST_RR_SRC2_EQ_DEST( 18, sltu, 1, 11, 13 );
 80084e8:	00b00093          	li	ra,11
 80084ec:	00d00113          	li	sp,13
 80084f0:	0020b133          	sltu	sp,ra,sp
 80084f4:	00100e93          	li	t4,1
 80084f8:	01200193          	li	gp,18
 80084fc:	01d10463          	beq	sp,t4,8008504 <test_19>
 8008500:	3f90906f          	j	80120f8 <fail>

0000000008008504 <test_19>:
  TEST_RR_SRC12_EQ_DEST( 19, sltu, 0, 13 );
 8008504:	00d00093          	li	ra,13
 8008508:	0010b0b3          	sltu	ra,ra,ra
 800850c:	00000e93          	li	t4,0
 8008510:	01300193          	li	gp,19
 8008514:	01d08463          	beq	ra,t4,800851c <test_20>
 8008518:	3e10906f          	j	80120f8 <fail>

000000000800851c <test_20>:

  #-------------------------------------------------------------
  # Bypassing tests
  #-------------------------------------------------------------

  TEST_RR_DEST_BYPASS( 20, 0, sltu, 1, 11, 13 );
 800851c:	00000213          	li	tp,0
 8008520:	00b00093          	li	ra,11
 8008524:	00d00113          	li	sp,13
 8008528:	0020b733          	sltu	a4,ra,sp
 800852c:	00070313          	mv	t1,a4
 8008530:	00120213          	addi	tp,tp,1 # 1 <u_mode_trap_table-0x8000003>
 8008534:	00200293          	li	t0,2
 8008538:	fe5214e3          	bne	tp,t0,8008520 <test_20+0x4>
 800853c:	00100e93          	li	t4,1
 8008540:	01400193          	li	gp,20
 8008544:	01d30463          	beq	t1,t4,800854c <test_21>
 8008548:	3b10906f          	j	80120f8 <fail>

000000000800854c <test_21>:
  TEST_RR_DEST_BYPASS( 21, 1, sltu, 0, 14, 13 );
 800854c:	00000213          	li	tp,0
 8008550:	00e00093          	li	ra,14
 8008554:	00d00113          	li	sp,13
 8008558:	0020b733          	sltu	a4,ra,sp
 800855c:	00000013          	nop
 8008560:	00070313          	mv	t1,a4
 8008564:	00120213          	addi	tp,tp,1 # 1 <u_mode_trap_table-0x8000003>
 8008568:	00200293          	li	t0,2
 800856c:	fe5212e3          	bne	tp,t0,8008550 <test_21+0x4>
 8008570:	00000e93          	li	t4,0
 8008574:	01500193          	li	gp,21
 8008578:	01d30463          	beq	t1,t4,8008580 <test_22>
 800857c:	37d0906f          	j	80120f8 <fail>

0000000008008580 <test_22>:
  TEST_RR_DEST_BYPASS( 22, 2, sltu, 1, 12, 13 );
 8008580:	00000213          	li	tp,0
 8008584:	00c00093          	li	ra,12
 8008588:	00d00113          	li	sp,13
 800858c:	0020b733          	sltu	a4,ra,sp
 8008590:	00000013          	nop
 8008594:	00000013          	nop
 8008598:	00070313          	mv	t1,a4
 800859c:	00120213          	addi	tp,tp,1 # 1 <u_mode_trap_table-0x8000003>
 80085a0:	00200293          	li	t0,2
 80085a4:	fe5210e3          	bne	tp,t0,8008584 <test_22+0x4>
 80085a8:	00100e93          	li	t4,1
 80085ac:	01600193          	li	gp,22
 80085b0:	01d30463          	beq	t1,t4,80085b8 <test_23>
 80085b4:	3450906f          	j	80120f8 <fail>

00000000080085b8 <test_23>:

  TEST_RR_SRC12_BYPASS( 23, 0, 0, sltu, 0, 14, 13 );
 80085b8:	00000213          	li	tp,0
 80085bc:	00e00093          	li	ra,14
 80085c0:	00d00113          	li	sp,13
 80085c4:	0020b733          	sltu	a4,ra,sp
 80085c8:	00120213          	addi	tp,tp,1 # 1 <u_mode_trap_table-0x8000003>
 80085cc:	00200293          	li	t0,2
 80085d0:	fe5216e3          	bne	tp,t0,80085bc <test_23+0x4>
 80085d4:	00000e93          	li	t4,0
 80085d8:	01700193          	li	gp,23
 80085dc:	01d70463          	beq	a4,t4,80085e4 <test_24>
 80085e0:	3190906f          	j	80120f8 <fail>

00000000080085e4 <test_24>:
  TEST_RR_SRC12_BYPASS( 24, 0, 1, sltu, 1, 11, 13 );
 80085e4:	00000213          	li	tp,0
 80085e8:	00b00093          	li	ra,11
 80085ec:	00d00113          	li	sp,13
 80085f0:	00000013          	nop
 80085f4:	0020b733          	sltu	a4,ra,sp
 80085f8:	00120213          	addi	tp,tp,1 # 1 <u_mode_trap_table-0x8000003>
 80085fc:	00200293          	li	t0,2
 8008600:	fe5214e3          	bne	tp,t0,80085e8 <test_24+0x4>
 8008604:	00100e93          	li	t4,1
 8008608:	01800193          	li	gp,24
 800860c:	01d70463          	beq	a4,t4,8008614 <test_25>
 8008610:	2e90906f          	j	80120f8 <fail>

0000000008008614 <test_25>:
  TEST_RR_SRC12_BYPASS( 25, 0, 2, sltu, 0, 15, 13 );
 8008614:	00000213          	li	tp,0
 8008618:	00f00093          	li	ra,15
 800861c:	00d00113          	li	sp,13
 8008620:	00000013          	nop
 8008624:	00000013          	nop
 8008628:	0020b733          	sltu	a4,ra,sp
 800862c:	00120213          	addi	tp,tp,1 # 1 <u_mode_trap_table-0x8000003>
 8008630:	00200293          	li	t0,2
 8008634:	fe5212e3          	bne	tp,t0,8008618 <test_25+0x4>
 8008638:	00000e93          	li	t4,0
 800863c:	01900193          	li	gp,25
 8008640:	01d70463          	beq	a4,t4,8008648 <test_26>
 8008644:	2b50906f          	j	80120f8 <fail>

0000000008008648 <test_26>:
  TEST_RR_SRC12_BYPASS( 26, 1, 0, sltu, 1, 10, 13 );
 8008648:	00000213          	li	tp,0
 800864c:	00a00093          	li	ra,10
 8008650:	00000013          	nop
 8008654:	00d00113          	li	sp,13
 8008658:	0020b733          	sltu	a4,ra,sp
 800865c:	00120213          	addi	tp,tp,1 # 1 <u_mode_trap_table-0x8000003>
 8008660:	00200293          	li	t0,2
 8008664:	fe5214e3          	bne	tp,t0,800864c <test_26+0x4>
 8008668:	00100e93          	li	t4,1
 800866c:	01a00193          	li	gp,26
 8008670:	01d70463          	beq	a4,t4,8008678 <test_27>
 8008674:	2850906f          	j	80120f8 <fail>

0000000008008678 <test_27>:
  TEST_RR_SRC12_BYPASS( 27, 1, 1, sltu, 0, 16, 13 );
 8008678:	00000213          	li	tp,0
 800867c:	01000093          	li	ra,16
 8008680:	00000013          	nop
 8008684:	00d00113          	li	sp,13
 8008688:	00000013          	nop
 800868c:	0020b733          	sltu	a4,ra,sp
 8008690:	00120213          	addi	tp,tp,1 # 1 <u_mode_trap_table-0x8000003>
 8008694:	00200293          	li	t0,2
 8008698:	fe5212e3          	bne	tp,t0,800867c <test_27+0x4>
 800869c:	00000e93          	li	t4,0
 80086a0:	01b00193          	li	gp,27
 80086a4:	01d70463          	beq	a4,t4,80086ac <test_28>
 80086a8:	2510906f          	j	80120f8 <fail>

00000000080086ac <test_28>:
  TEST_RR_SRC12_BYPASS( 28, 2, 0, sltu, 1,  9, 13 );
 80086ac:	00000213          	li	tp,0
 80086b0:	00900093          	li	ra,9
 80086b4:	00000013          	nop
 80086b8:	00000013          	nop
 80086bc:	00d00113          	li	sp,13
 80086c0:	0020b733          	sltu	a4,ra,sp
 80086c4:	00120213          	addi	tp,tp,1 # 1 <u_mode_trap_table-0x8000003>
 80086c8:	00200293          	li	t0,2
 80086cc:	fe5212e3          	bne	tp,t0,80086b0 <test_28+0x4>
 80086d0:	00100e93          	li	t4,1
 80086d4:	01c00193          	li	gp,28
 80086d8:	01d70463          	beq	a4,t4,80086e0 <test_29>
 80086dc:	21d0906f          	j	80120f8 <fail>

00000000080086e0 <test_29>:

  TEST_RR_SRC21_BYPASS( 29, 0, 0, sltu, 0, 17, 13 );
 80086e0:	00000213          	li	tp,0
 80086e4:	00d00113          	li	sp,13
 80086e8:	01100093          	li	ra,17
 80086ec:	0020b733          	sltu	a4,ra,sp
 80086f0:	00120213          	addi	tp,tp,1 # 1 <u_mode_trap_table-0x8000003>
 80086f4:	00200293          	li	t0,2
 80086f8:	fe5216e3          	bne	tp,t0,80086e4 <test_29+0x4>
 80086fc:	00000e93          	li	t4,0
 8008700:	01d00193          	li	gp,29
 8008704:	01d70463          	beq	a4,t4,800870c <test_30>
 8008708:	1f10906f          	j	80120f8 <fail>

000000000800870c <test_30>:
  TEST_RR_SRC21_BYPASS( 30, 0, 1, sltu, 1,  8, 13 );
 800870c:	00000213          	li	tp,0
 8008710:	00d00113          	li	sp,13
 8008714:	00800093          	li	ra,8
 8008718:	00000013          	nop
 800871c:	0020b733          	sltu	a4,ra,sp
 8008720:	00120213          	addi	tp,tp,1 # 1 <u_mode_trap_table-0x8000003>
 8008724:	00200293          	li	t0,2
 8008728:	fe5214e3          	bne	tp,t0,8008710 <test_30+0x4>
 800872c:	00100e93          	li	t4,1
 8008730:	01e00193          	li	gp,30
 8008734:	01d70463          	beq	a4,t4,800873c <test_31>
 8008738:	1c10906f          	j	80120f8 <fail>

000000000800873c <test_31>:
  TEST_RR_SRC21_BYPASS( 31, 0, 2, sltu, 0, 18, 13 );
 800873c:	00000213          	li	tp,0
 8008740:	00d00113          	li	sp,13
 8008744:	01200093          	li	ra,18
 8008748:	00000013          	nop
 800874c:	00000013          	nop
 8008750:	0020b733          	sltu	a4,ra,sp
 8008754:	00120213          	addi	tp,tp,1 # 1 <u_mode_trap_table-0x8000003>
 8008758:	00200293          	li	t0,2
 800875c:	fe5212e3          	bne	tp,t0,8008740 <test_31+0x4>
 8008760:	00000e93          	li	t4,0
 8008764:	01f00193          	li	gp,31
 8008768:	01d70463          	beq	a4,t4,8008770 <test_32>
 800876c:	18d0906f          	j	80120f8 <fail>

0000000008008770 <test_32>:
  TEST_RR_SRC21_BYPASS( 32, 1, 0, sltu, 1,  7, 13 );
 8008770:	00000213          	li	tp,0
 8008774:	00d00113          	li	sp,13
 8008778:	00000013          	nop
 800877c:	00700093          	li	ra,7
 8008780:	0020b733          	sltu	a4,ra,sp
 8008784:	00120213          	addi	tp,tp,1 # 1 <u_mode_trap_table-0x8000003>
 8008788:	00200293          	li	t0,2
 800878c:	fe5214e3          	bne	tp,t0,8008774 <test_32+0x4>
 8008790:	00100e93          	li	t4,1
 8008794:	02000193          	li	gp,32
 8008798:	01d70463          	beq	a4,t4,80087a0 <test_33>
 800879c:	15d0906f          	j	80120f8 <fail>

00000000080087a0 <test_33>:
  TEST_RR_SRC21_BYPASS( 33, 1, 1, sltu, 0, 19, 13 );
 80087a0:	00000213          	li	tp,0
 80087a4:	00d00113          	li	sp,13
 80087a8:	00000013          	nop
 80087ac:	01300093          	li	ra,19
 80087b0:	00000013          	nop
 80087b4:	0020b733          	sltu	a4,ra,sp
 80087b8:	00120213          	addi	tp,tp,1 # 1 <u_mode_trap_table-0x8000003>
 80087bc:	00200293          	li	t0,2
 80087c0:	fe5212e3          	bne	tp,t0,80087a4 <test_33+0x4>
 80087c4:	00000e93          	li	t4,0
 80087c8:	02100193          	li	gp,33
 80087cc:	01d70463          	beq	a4,t4,80087d4 <test_34>
 80087d0:	1290906f          	j	80120f8 <fail>

00000000080087d4 <test_34>:
  TEST_RR_SRC21_BYPASS( 34, 2, 0, sltu, 1,  6, 13 );
 80087d4:	00000213          	li	tp,0
 80087d8:	00d00113          	li	sp,13
 80087dc:	00000013          	nop
 80087e0:	00000013          	nop
 80087e4:	00600093          	li	ra,6
 80087e8:	0020b733          	sltu	a4,ra,sp
 80087ec:	00120213          	addi	tp,tp,1 # 1 <u_mode_trap_table-0x8000003>
 80087f0:	00200293          	li	t0,2
 80087f4:	fe5212e3          	bne	tp,t0,80087d8 <test_34+0x4>
 80087f8:	00100e93          	li	t4,1
 80087fc:	02200193          	li	gp,34
 8008800:	01d70463          	beq	a4,t4,8008808 <test_35>
 8008804:	0f50906f          	j	80120f8 <fail>

0000000008008808 <test_35>:

  TEST_RR_ZEROSRC1( 35, sltu, 1, -1 );
 8008808:	fff00093          	li	ra,-1
 800880c:	00103133          	snez	sp,ra
 8008810:	00100e93          	li	t4,1
 8008814:	02300193          	li	gp,35
 8008818:	01d10463          	beq	sp,t4,8008820 <test_36>
 800881c:	0dd0906f          	j	80120f8 <fail>

0000000008008820 <test_36>:
  TEST_RR_ZEROSRC2( 36, sltu, 0, -1 );
 8008820:	fff00093          	li	ra,-1
 8008824:	0000b133          	sltu	sp,ra,zero
 8008828:	00000e93          	li	t4,0
 800882c:	02400193          	li	gp,36
 8008830:	01d10463          	beq	sp,t4,8008838 <test_37>
 8008834:	0c50906f          	j	80120f8 <fail>

0000000008008838 <test_37>:
  TEST_RR_ZEROSRC12( 37, sltu, 0 );
 8008838:	000030b3          	snez	ra,zero
 800883c:	00000e93          	li	t4,0
 8008840:	02500193          	li	gp,37
 8008844:	01d08463          	beq	ra,t4,800884c <test_38>
 8008848:	0b10906f          	j	80120f8 <fail>

000000000800884c <test_38>:
  TEST_RR_ZERODEST( 38, sltu, 16, 30 );
 800884c:	01000093          	li	ra,16
 8008850:	01e00113          	li	sp,30
 8008854:	0020b033          	sltu	zero,ra,sp
 8008858:	00000e93          	li	t4,0
 800885c:	02600193          	li	gp,38
 8008860:	01d00463          	beq	zero,t4,8008868 <test_38+0x1c>
 8008864:	0950906f          	j	80120f8 <fail>

  TEST_PASSFAIL

RVTEST_CODE_END
 8008868:	c0001073          	unimp

000000000800886c <test_2>:

  #-------------------------------------------------------------
  # Arithmetic tests
  #-------------------------------------------------------------

  TEST_RR_OP( 2,  sra, 0xffffffff80000000, 0xffffffff80000000, 0  );
 800886c:	800000b7          	lui	ra,0x80000
 8008870:	00000113          	li	sp,0
 8008874:	4020d733          	sra	a4,ra,sp
 8008878:	80000eb7          	lui	t4,0x80000
 800887c:	00200193          	li	gp,2
 8008880:	01d70463          	beq	a4,t4,8008888 <test_3>
 8008884:	0750906f          	j	80120f8 <fail>

0000000008008888 <test_3>:
  TEST_RR_OP( 3,  sra, 0xffffffffc0000000, 0xffffffff80000000, 1  );
 8008888:	800000b7          	lui	ra,0x80000
 800888c:	00100113          	li	sp,1
 8008890:	4020d733          	sra	a4,ra,sp
 8008894:	c0000eb7          	lui	t4,0xc0000
 8008898:	00300193          	li	gp,3
 800889c:	01d70463          	beq	a4,t4,80088a4 <test_4>
 80088a0:	0590906f          	j	80120f8 <fail>

00000000080088a4 <test_4>:
  TEST_RR_OP( 4,  sra, 0xffffffffff000000, 0xffffffff80000000, 7  );
 80088a4:	800000b7          	lui	ra,0x80000
 80088a8:	00700113          	li	sp,7
 80088ac:	4020d733          	sra	a4,ra,sp
 80088b0:	ff000eb7          	lui	t4,0xff000
 80088b4:	00400193          	li	gp,4
 80088b8:	01d70463          	beq	a4,t4,80088c0 <test_5>
 80088bc:	03d0906f          	j	80120f8 <fail>

00000000080088c0 <test_5>:
  TEST_RR_OP( 5,  sra, 0xfffffffffffe0000, 0xffffffff80000000, 14 );
 80088c0:	800000b7          	lui	ra,0x80000
 80088c4:	00e00113          	li	sp,14
 80088c8:	4020d733          	sra	a4,ra,sp
 80088cc:	fffe0eb7          	lui	t4,0xfffe0
 80088d0:	00500193          	li	gp,5
 80088d4:	01d70463          	beq	a4,t4,80088dc <test_6>
 80088d8:	0210906f          	j	80120f8 <fail>

00000000080088dc <test_6>:
  TEST_RR_OP( 6,  sra, 0xffffffffffffffff, 0xffffffff80000001, 31 );
 80088dc:	800000b7          	lui	ra,0x80000
 80088e0:	0010809b          	addiw	ra,ra,1
 80088e4:	01f00113          	li	sp,31
 80088e8:	4020d733          	sra	a4,ra,sp
 80088ec:	fff00e93          	li	t4,-1
 80088f0:	00600193          	li	gp,6
 80088f4:	01d70463          	beq	a4,t4,80088fc <test_7>
 80088f8:	0010906f          	j	80120f8 <fail>

00000000080088fc <test_7>:

  TEST_RR_OP( 7,  sra, 0x000000007fffffff, 0x000000007fffffff, 0  );
 80088fc:	800000b7          	lui	ra,0x80000
 8008900:	fff0809b          	addiw	ra,ra,-1
 8008904:	00000113          	li	sp,0
 8008908:	4020d733          	sra	a4,ra,sp
 800890c:	80000eb7          	lui	t4,0x80000
 8008910:	fffe8e9b          	addiw	t4,t4,-1
 8008914:	00700193          	li	gp,7
 8008918:	01d70463          	beq	a4,t4,8008920 <test_8>
 800891c:	7dc0906f          	j	80120f8 <fail>

0000000008008920 <test_8>:
  TEST_RR_OP( 8,  sra, 0x000000003fffffff, 0x000000007fffffff, 1  );
 8008920:	800000b7          	lui	ra,0x80000
 8008924:	fff0809b          	addiw	ra,ra,-1
 8008928:	00100113          	li	sp,1
 800892c:	4020d733          	sra	a4,ra,sp
 8008930:	40000eb7          	lui	t4,0x40000
 8008934:	fffe8e9b          	addiw	t4,t4,-1
 8008938:	00800193          	li	gp,8
 800893c:	01d70463          	beq	a4,t4,8008944 <test_9>
 8008940:	7b80906f          	j	80120f8 <fail>

0000000008008944 <test_9>:
  TEST_RR_OP( 9,  sra, 0x0000000000ffffff, 0x000000007fffffff, 7  );
 8008944:	800000b7          	lui	ra,0x80000
 8008948:	fff0809b          	addiw	ra,ra,-1
 800894c:	00700113          	li	sp,7
 8008950:	4020d733          	sra	a4,ra,sp
 8008954:	01000eb7          	lui	t4,0x1000
 8008958:	fffe8e9b          	addiw	t4,t4,-1
 800895c:	00900193          	li	gp,9
 8008960:	01d70463          	beq	a4,t4,8008968 <test_10>
 8008964:	7940906f          	j	80120f8 <fail>

0000000008008968 <test_10>:
  TEST_RR_OP( 10, sra, 0x000000000001ffff, 0x000000007fffffff, 14 );
 8008968:	800000b7          	lui	ra,0x80000
 800896c:	fff0809b          	addiw	ra,ra,-1
 8008970:	00e00113          	li	sp,14
 8008974:	4020d733          	sra	a4,ra,sp
 8008978:	00020eb7          	lui	t4,0x20
 800897c:	fffe8e9b          	addiw	t4,t4,-1
 8008980:	00a00193          	li	gp,10
 8008984:	01d70463          	beq	a4,t4,800898c <test_11>
 8008988:	7700906f          	j	80120f8 <fail>

000000000800898c <test_11>:
  TEST_RR_OP( 11, sra, 0x0000000000000000, 0x000000007fffffff, 31 );
 800898c:	800000b7          	lui	ra,0x80000
 8008990:	fff0809b          	addiw	ra,ra,-1
 8008994:	01f00113          	li	sp,31
 8008998:	4020d733          	sra	a4,ra,sp
 800899c:	00000e93          	li	t4,0
 80089a0:	00b00193          	li	gp,11
 80089a4:	01d70463          	beq	a4,t4,80089ac <test_12>
 80089a8:	7500906f          	j	80120f8 <fail>

00000000080089ac <test_12>:

  TEST_RR_OP( 12, sra, 0xffffffff81818181, 0xffffffff81818181, 0  );
 80089ac:	818180b7          	lui	ra,0x81818
 80089b0:	1810809b          	addiw	ra,ra,385
 80089b4:	00000113          	li	sp,0
 80089b8:	4020d733          	sra	a4,ra,sp
 80089bc:	81818eb7          	lui	t4,0x81818
 80089c0:	181e8e9b          	addiw	t4,t4,385
 80089c4:	00c00193          	li	gp,12
 80089c8:	01d70463          	beq	a4,t4,80089d0 <test_13>
 80089cc:	72c0906f          	j	80120f8 <fail>

00000000080089d0 <test_13>:
  TEST_RR_OP( 13, sra, 0xffffffffc0c0c0c0, 0xffffffff81818181, 1  );
 80089d0:	818180b7          	lui	ra,0x81818
 80089d4:	1810809b          	addiw	ra,ra,385
 80089d8:	00100113          	li	sp,1
 80089dc:	4020d733          	sra	a4,ra,sp
 80089e0:	c0c0ceb7          	lui	t4,0xc0c0c
 80089e4:	0c0e8e9b          	addiw	t4,t4,192
 80089e8:	00d00193          	li	gp,13
 80089ec:	01d70463          	beq	a4,t4,80089f4 <test_14>
 80089f0:	7080906f          	j	80120f8 <fail>

00000000080089f4 <test_14>:
  TEST_RR_OP( 14, sra, 0xffffffffff030303, 0xffffffff81818181, 7  );
 80089f4:	818180b7          	lui	ra,0x81818
 80089f8:	1810809b          	addiw	ra,ra,385
 80089fc:	00700113          	li	sp,7
 8008a00:	4020d733          	sra	a4,ra,sp
 8008a04:	ff030eb7          	lui	t4,0xff030
 8008a08:	303e8e9b          	addiw	t4,t4,771
 8008a0c:	00e00193          	li	gp,14
 8008a10:	01d70463          	beq	a4,t4,8008a18 <test_15>
 8008a14:	6e40906f          	j	80120f8 <fail>

0000000008008a18 <test_15>:
  TEST_RR_OP( 15, sra, 0xfffffffffffe0606, 0xffffffff81818181, 14 );
 8008a18:	818180b7          	lui	ra,0x81818
 8008a1c:	1810809b          	addiw	ra,ra,385
 8008a20:	00e00113          	li	sp,14
 8008a24:	4020d733          	sra	a4,ra,sp
 8008a28:	fffe0eb7          	lui	t4,0xfffe0
 8008a2c:	606e8e9b          	addiw	t4,t4,1542
 8008a30:	00f00193          	li	gp,15
 8008a34:	01d70463          	beq	a4,t4,8008a3c <test_16>
 8008a38:	6c00906f          	j	80120f8 <fail>

0000000008008a3c <test_16>:
  TEST_RR_OP( 16, sra, 0xffffffffffffffff, 0xffffffff81818181, 31 );
 8008a3c:	818180b7          	lui	ra,0x81818
 8008a40:	1810809b          	addiw	ra,ra,385
 8008a44:	01f00113          	li	sp,31
 8008a48:	4020d733          	sra	a4,ra,sp
 8008a4c:	fff00e93          	li	t4,-1
 8008a50:	01000193          	li	gp,16
 8008a54:	01d70463          	beq	a4,t4,8008a5c <test_17>
 8008a58:	6a00906f          	j	80120f8 <fail>

0000000008008a5c <test_17>:

  # Verify that shifts only use bottom six(rv64) or five(rv32) bits

  TEST_RR_OP( 17, sra, 0xffffffff81818181, 0xffffffff81818181, 0xffffffffffffffc0 );
 8008a5c:	818180b7          	lui	ra,0x81818
 8008a60:	1810809b          	addiw	ra,ra,385
 8008a64:	fc000113          	li	sp,-64
 8008a68:	4020d733          	sra	a4,ra,sp
 8008a6c:	81818eb7          	lui	t4,0x81818
 8008a70:	181e8e9b          	addiw	t4,t4,385
 8008a74:	01100193          	li	gp,17
 8008a78:	01d70463          	beq	a4,t4,8008a80 <test_18>
 8008a7c:	67c0906f          	j	80120f8 <fail>

0000000008008a80 <test_18>:
  TEST_RR_OP( 18, sra, 0xffffffffc0c0c0c0, 0xffffffff81818181, 0xffffffffffffffc1 );
 8008a80:	818180b7          	lui	ra,0x81818
 8008a84:	1810809b          	addiw	ra,ra,385
 8008a88:	fc100113          	li	sp,-63
 8008a8c:	4020d733          	sra	a4,ra,sp
 8008a90:	c0c0ceb7          	lui	t4,0xc0c0c
 8008a94:	0c0e8e9b          	addiw	t4,t4,192
 8008a98:	01200193          	li	gp,18
 8008a9c:	01d70463          	beq	a4,t4,8008aa4 <test_19>
 8008aa0:	6580906f          	j	80120f8 <fail>

0000000008008aa4 <test_19>:
  TEST_RR_OP( 19, sra, 0xffffffffff030303, 0xffffffff81818181, 0xffffffffffffffc7 );
 8008aa4:	818180b7          	lui	ra,0x81818
 8008aa8:	1810809b          	addiw	ra,ra,385
 8008aac:	fc700113          	li	sp,-57
 8008ab0:	4020d733          	sra	a4,ra,sp
 8008ab4:	ff030eb7          	lui	t4,0xff030
 8008ab8:	303e8e9b          	addiw	t4,t4,771
 8008abc:	01300193          	li	gp,19
 8008ac0:	01d70463          	beq	a4,t4,8008ac8 <test_20>
 8008ac4:	6340906f          	j	80120f8 <fail>

0000000008008ac8 <test_20>:
  TEST_RR_OP( 20, sra, 0xfffffffffffe0606, 0xffffffff81818181, 0xffffffffffffffce );
 8008ac8:	818180b7          	lui	ra,0x81818
 8008acc:	1810809b          	addiw	ra,ra,385
 8008ad0:	fce00113          	li	sp,-50
 8008ad4:	4020d733          	sra	a4,ra,sp
 8008ad8:	fffe0eb7          	lui	t4,0xfffe0
 8008adc:	606e8e9b          	addiw	t4,t4,1542
 8008ae0:	01400193          	li	gp,20
 8008ae4:	01d70463          	beq	a4,t4,8008aec <test_21>
 8008ae8:	6100906f          	j	80120f8 <fail>

0000000008008aec <test_21>:
  TEST_RR_OP( 21, sra, 0xffffffffffffffff, 0xffffffff81818181, 0xffffffffffffffff );
 8008aec:	818180b7          	lui	ra,0x81818
 8008af0:	1810809b          	addiw	ra,ra,385
 8008af4:	fff00113          	li	sp,-1
 8008af8:	4020d733          	sra	a4,ra,sp
 8008afc:	fff00e93          	li	t4,-1
 8008b00:	01500193          	li	gp,21
 8008b04:	01d70463          	beq	a4,t4,8008b0c <test_22>
 8008b08:	5f00906f          	j	80120f8 <fail>

0000000008008b0c <test_22>:

  #-------------------------------------------------------------
  # Source/Destination tests
  #-------------------------------------------------------------

  TEST_RR_SRC1_EQ_DEST( 22, sra, 0xffffffffff000000, 0xffffffff80000000, 7  );
 8008b0c:	800000b7          	lui	ra,0x80000
 8008b10:	00700113          	li	sp,7
 8008b14:	4020d0b3          	sra	ra,ra,sp
 8008b18:	ff000eb7          	lui	t4,0xff000
 8008b1c:	01600193          	li	gp,22
 8008b20:	01d08463          	beq	ra,t4,8008b28 <test_23>
 8008b24:	5d40906f          	j	80120f8 <fail>

0000000008008b28 <test_23>:
  TEST_RR_SRC2_EQ_DEST( 23, sra, 0xfffffffffffe0000, 0xffffffff80000000, 14 );
 8008b28:	800000b7          	lui	ra,0x80000
 8008b2c:	00e00113          	li	sp,14
 8008b30:	4020d133          	sra	sp,ra,sp
 8008b34:	fffe0eb7          	lui	t4,0xfffe0
 8008b38:	01700193          	li	gp,23
 8008b3c:	01d10463          	beq	sp,t4,8008b44 <test_24>
 8008b40:	5b80906f          	j	80120f8 <fail>

0000000008008b44 <test_24>:
  TEST_RR_SRC12_EQ_DEST( 24, sra, 0, 7 );
 8008b44:	00700093          	li	ra,7
 8008b48:	4010d0b3          	sra	ra,ra,ra
 8008b4c:	00000e93          	li	t4,0
 8008b50:	01800193          	li	gp,24
 8008b54:	01d08463          	beq	ra,t4,8008b5c <test_25>
 8008b58:	5a00906f          	j	80120f8 <fail>

0000000008008b5c <test_25>:

  #-------------------------------------------------------------
  # Bypassing tests
  #-------------------------------------------------------------

  TEST_RR_DEST_BYPASS( 25, 0, sra, 0xffffffffff000000, 0xffffffff80000000, 7  );
 8008b5c:	00000213          	li	tp,0
 8008b60:	800000b7          	lui	ra,0x80000
 8008b64:	00700113          	li	sp,7
 8008b68:	4020d733          	sra	a4,ra,sp
 8008b6c:	00070313          	mv	t1,a4
 8008b70:	00120213          	addi	tp,tp,1 # 1 <u_mode_trap_table-0x8000003>
 8008b74:	00200293          	li	t0,2
 8008b78:	fe5214e3          	bne	tp,t0,8008b60 <test_25+0x4>
 8008b7c:	ff000eb7          	lui	t4,0xff000
 8008b80:	01900193          	li	gp,25
 8008b84:	01d30463          	beq	t1,t4,8008b8c <test_26>
 8008b88:	5700906f          	j	80120f8 <fail>

0000000008008b8c <test_26>:
  TEST_RR_DEST_BYPASS( 26, 1, sra, 0xfffffffffffe0000, 0xffffffff80000000, 14 );
 8008b8c:	00000213          	li	tp,0
 8008b90:	800000b7          	lui	ra,0x80000
 8008b94:	00e00113          	li	sp,14
 8008b98:	4020d733          	sra	a4,ra,sp
 8008b9c:	00000013          	nop
 8008ba0:	00070313          	mv	t1,a4
 8008ba4:	00120213          	addi	tp,tp,1 # 1 <u_mode_trap_table-0x8000003>
 8008ba8:	00200293          	li	t0,2
 8008bac:	fe5212e3          	bne	tp,t0,8008b90 <test_26+0x4>
 8008bb0:	fffe0eb7          	lui	t4,0xfffe0
 8008bb4:	01a00193          	li	gp,26
 8008bb8:	01d30463          	beq	t1,t4,8008bc0 <test_27>
 8008bbc:	53c0906f          	j	80120f8 <fail>

0000000008008bc0 <test_27>:
  TEST_RR_DEST_BYPASS( 27, 2, sra, 0xffffffffffffffff, 0xffffffff80000000, 31 );
 8008bc0:	00000213          	li	tp,0
 8008bc4:	800000b7          	lui	ra,0x80000
 8008bc8:	01f00113          	li	sp,31
 8008bcc:	4020d733          	sra	a4,ra,sp
 8008bd0:	00000013          	nop
 8008bd4:	00000013          	nop
 8008bd8:	00070313          	mv	t1,a4
 8008bdc:	00120213          	addi	tp,tp,1 # 1 <u_mode_trap_table-0x8000003>
 8008be0:	00200293          	li	t0,2
 8008be4:	fe5210e3          	bne	tp,t0,8008bc4 <test_27+0x4>
 8008be8:	fff00e93          	li	t4,-1
 8008bec:	01b00193          	li	gp,27
 8008bf0:	01d30463          	beq	t1,t4,8008bf8 <test_28>
 8008bf4:	5040906f          	j	80120f8 <fail>

0000000008008bf8 <test_28>:

  TEST_RR_SRC12_BYPASS( 28, 0, 0, sra, 0xffffffffff000000, 0xffffffff80000000, 7  );
 8008bf8:	00000213          	li	tp,0
 8008bfc:	800000b7          	lui	ra,0x80000
 8008c00:	00700113          	li	sp,7
 8008c04:	4020d733          	sra	a4,ra,sp
 8008c08:	00120213          	addi	tp,tp,1 # 1 <u_mode_trap_table-0x8000003>
 8008c0c:	00200293          	li	t0,2
 8008c10:	fe5216e3          	bne	tp,t0,8008bfc <test_28+0x4>
 8008c14:	ff000eb7          	lui	t4,0xff000
 8008c18:	01c00193          	li	gp,28
 8008c1c:	01d70463          	beq	a4,t4,8008c24 <test_29>
 8008c20:	4d80906f          	j	80120f8 <fail>

0000000008008c24 <test_29>:
  TEST_RR_SRC12_BYPASS( 29, 0, 1, sra, 0xfffffffffffe0000, 0xffffffff80000000, 14 );
 8008c24:	00000213          	li	tp,0
 8008c28:	800000b7          	lui	ra,0x80000
 8008c2c:	00e00113          	li	sp,14
 8008c30:	00000013          	nop
 8008c34:	4020d733          	sra	a4,ra,sp
 8008c38:	00120213          	addi	tp,tp,1 # 1 <u_mode_trap_table-0x8000003>
 8008c3c:	00200293          	li	t0,2
 8008c40:	fe5214e3          	bne	tp,t0,8008c28 <test_29+0x4>
 8008c44:	fffe0eb7          	lui	t4,0xfffe0
 8008c48:	01d00193          	li	gp,29
 8008c4c:	01d70463          	beq	a4,t4,8008c54 <test_30>
 8008c50:	4a80906f          	j	80120f8 <fail>

0000000008008c54 <test_30>:
  TEST_RR_SRC12_BYPASS( 30, 0, 2, sra, 0xffffffffffffffff, 0xffffffff80000000, 31 );
 8008c54:	00000213          	li	tp,0
 8008c58:	800000b7          	lui	ra,0x80000
 8008c5c:	01f00113          	li	sp,31
 8008c60:	00000013          	nop
 8008c64:	00000013          	nop
 8008c68:	4020d733          	sra	a4,ra,sp
 8008c6c:	00120213          	addi	tp,tp,1 # 1 <u_mode_trap_table-0x8000003>
 8008c70:	00200293          	li	t0,2
 8008c74:	fe5212e3          	bne	tp,t0,8008c58 <test_30+0x4>
 8008c78:	fff00e93          	li	t4,-1
 8008c7c:	01e00193          	li	gp,30
 8008c80:	01d70463          	beq	a4,t4,8008c88 <test_31>
 8008c84:	4740906f          	j	80120f8 <fail>

0000000008008c88 <test_31>:
  TEST_RR_SRC12_BYPASS( 31, 1, 0, sra, 0xffffffffff000000, 0xffffffff80000000, 7  );
 8008c88:	00000213          	li	tp,0
 8008c8c:	800000b7          	lui	ra,0x80000
 8008c90:	00000013          	nop
 8008c94:	00700113          	li	sp,7
 8008c98:	4020d733          	sra	a4,ra,sp
 8008c9c:	00120213          	addi	tp,tp,1 # 1 <u_mode_trap_table-0x8000003>
 8008ca0:	00200293          	li	t0,2
 8008ca4:	fe5214e3          	bne	tp,t0,8008c8c <test_31+0x4>
 8008ca8:	ff000eb7          	lui	t4,0xff000
 8008cac:	01f00193          	li	gp,31
 8008cb0:	01d70463          	beq	a4,t4,8008cb8 <test_32>
 8008cb4:	4440906f          	j	80120f8 <fail>

0000000008008cb8 <test_32>:
  TEST_RR_SRC12_BYPASS( 32, 1, 1, sra, 0xfffffffffffe0000, 0xffffffff80000000, 14 );
 8008cb8:	00000213          	li	tp,0
 8008cbc:	800000b7          	lui	ra,0x80000
 8008cc0:	00000013          	nop
 8008cc4:	00e00113          	li	sp,14
 8008cc8:	00000013          	nop
 8008ccc:	4020d733          	sra	a4,ra,sp
 8008cd0:	00120213          	addi	tp,tp,1 # 1 <u_mode_trap_table-0x8000003>
 8008cd4:	00200293          	li	t0,2
 8008cd8:	fe5212e3          	bne	tp,t0,8008cbc <test_32+0x4>
 8008cdc:	fffe0eb7          	lui	t4,0xfffe0
 8008ce0:	02000193          	li	gp,32
 8008ce4:	01d70463          	beq	a4,t4,8008cec <test_33>
 8008ce8:	4100906f          	j	80120f8 <fail>

0000000008008cec <test_33>:
  TEST_RR_SRC12_BYPASS( 33, 2, 0, sra, 0xffffffffffffffff, 0xffffffff80000000, 31 );
 8008cec:	00000213          	li	tp,0
 8008cf0:	800000b7          	lui	ra,0x80000
 8008cf4:	00000013          	nop
 8008cf8:	00000013          	nop
 8008cfc:	01f00113          	li	sp,31
 8008d00:	4020d733          	sra	a4,ra,sp
 8008d04:	00120213          	addi	tp,tp,1 # 1 <u_mode_trap_table-0x8000003>
 8008d08:	00200293          	li	t0,2
 8008d0c:	fe5212e3          	bne	tp,t0,8008cf0 <test_33+0x4>
 8008d10:	fff00e93          	li	t4,-1
 8008d14:	02100193          	li	gp,33
 8008d18:	01d70463          	beq	a4,t4,8008d20 <test_34>
 8008d1c:	3dc0906f          	j	80120f8 <fail>

0000000008008d20 <test_34>:

  TEST_RR_SRC21_BYPASS( 34, 0, 0, sra, 0xffffffffff000000, 0xffffffff80000000, 7  );
 8008d20:	00000213          	li	tp,0
 8008d24:	00700113          	li	sp,7
 8008d28:	800000b7          	lui	ra,0x80000
 8008d2c:	4020d733          	sra	a4,ra,sp
 8008d30:	00120213          	addi	tp,tp,1 # 1 <u_mode_trap_table-0x8000003>
 8008d34:	00200293          	li	t0,2
 8008d38:	fe5216e3          	bne	tp,t0,8008d24 <test_34+0x4>
 8008d3c:	ff000eb7          	lui	t4,0xff000
 8008d40:	02200193          	li	gp,34
 8008d44:	01d70463          	beq	a4,t4,8008d4c <test_35>
 8008d48:	3b00906f          	j	80120f8 <fail>

0000000008008d4c <test_35>:
  TEST_RR_SRC21_BYPASS( 35, 0, 1, sra, 0xfffffffffffe0000, 0xffffffff80000000, 14 );
 8008d4c:	00000213          	li	tp,0
 8008d50:	00e00113          	li	sp,14
 8008d54:	800000b7          	lui	ra,0x80000
 8008d58:	00000013          	nop
 8008d5c:	4020d733          	sra	a4,ra,sp
 8008d60:	00120213          	addi	tp,tp,1 # 1 <u_mode_trap_table-0x8000003>
 8008d64:	00200293          	li	t0,2
 8008d68:	fe5214e3          	bne	tp,t0,8008d50 <test_35+0x4>
 8008d6c:	fffe0eb7          	lui	t4,0xfffe0
 8008d70:	02300193          	li	gp,35
 8008d74:	01d70463          	beq	a4,t4,8008d7c <test_36>
 8008d78:	3800906f          	j	80120f8 <fail>

0000000008008d7c <test_36>:
  TEST_RR_SRC21_BYPASS( 36, 0, 2, sra, 0xffffffffffffffff, 0xffffffff80000000, 31 );
 8008d7c:	00000213          	li	tp,0
 8008d80:	01f00113          	li	sp,31
 8008d84:	800000b7          	lui	ra,0x80000
 8008d88:	00000013          	nop
 8008d8c:	00000013          	nop
 8008d90:	4020d733          	sra	a4,ra,sp
 8008d94:	00120213          	addi	tp,tp,1 # 1 <u_mode_trap_table-0x8000003>
 8008d98:	00200293          	li	t0,2
 8008d9c:	fe5212e3          	bne	tp,t0,8008d80 <test_36+0x4>
 8008da0:	fff00e93          	li	t4,-1
 8008da4:	02400193          	li	gp,36
 8008da8:	01d70463          	beq	a4,t4,8008db0 <test_37>
 8008dac:	34c0906f          	j	80120f8 <fail>

0000000008008db0 <test_37>:
  TEST_RR_SRC21_BYPASS( 37, 1, 0, sra, 0xffffffffff000000, 0xffffffff80000000, 7  );
 8008db0:	00000213          	li	tp,0
 8008db4:	00700113          	li	sp,7
 8008db8:	00000013          	nop
 8008dbc:	800000b7          	lui	ra,0x80000
 8008dc0:	4020d733          	sra	a4,ra,sp
 8008dc4:	00120213          	addi	tp,tp,1 # 1 <u_mode_trap_table-0x8000003>
 8008dc8:	00200293          	li	t0,2
 8008dcc:	fe5214e3          	bne	tp,t0,8008db4 <test_37+0x4>
 8008dd0:	ff000eb7          	lui	t4,0xff000
 8008dd4:	02500193          	li	gp,37
 8008dd8:	01d70463          	beq	a4,t4,8008de0 <test_38>
 8008ddc:	31c0906f          	j	80120f8 <fail>

0000000008008de0 <test_38>:
  TEST_RR_SRC21_BYPASS( 38, 1, 1, sra, 0xfffffffffffe0000, 0xffffffff80000000, 14 );
 8008de0:	00000213          	li	tp,0
 8008de4:	00e00113          	li	sp,14
 8008de8:	00000013          	nop
 8008dec:	800000b7          	lui	ra,0x80000
 8008df0:	00000013          	nop
 8008df4:	4020d733          	sra	a4,ra,sp
 8008df8:	00120213          	addi	tp,tp,1 # 1 <u_mode_trap_table-0x8000003>
 8008dfc:	00200293          	li	t0,2
 8008e00:	fe5212e3          	bne	tp,t0,8008de4 <test_38+0x4>
 8008e04:	fffe0eb7          	lui	t4,0xfffe0
 8008e08:	02600193          	li	gp,38
 8008e0c:	01d70463          	beq	a4,t4,8008e14 <test_39>
 8008e10:	2e80906f          	j	80120f8 <fail>

0000000008008e14 <test_39>:
  TEST_RR_SRC21_BYPASS( 39, 2, 0, sra, 0xffffffffffffffff, 0xffffffff80000000, 31 );
 8008e14:	00000213          	li	tp,0
 8008e18:	01f00113          	li	sp,31
 8008e1c:	00000013          	nop
 8008e20:	00000013          	nop
 8008e24:	800000b7          	lui	ra,0x80000
 8008e28:	4020d733          	sra	a4,ra,sp
 8008e2c:	00120213          	addi	tp,tp,1 # 1 <u_mode_trap_table-0x8000003>
 8008e30:	00200293          	li	t0,2
 8008e34:	fe5212e3          	bne	tp,t0,8008e18 <test_39+0x4>
 8008e38:	fff00e93          	li	t4,-1
 8008e3c:	02700193          	li	gp,39
 8008e40:	01d70463          	beq	a4,t4,8008e48 <test_40>
 8008e44:	2b40906f          	j	80120f8 <fail>

0000000008008e48 <test_40>:

  TEST_RR_ZEROSRC1( 40, sra, 0, 15 );
 8008e48:	00f00093          	li	ra,15
 8008e4c:	40105133          	sra	sp,zero,ra
 8008e50:	00000e93          	li	t4,0
 8008e54:	02800193          	li	gp,40
 8008e58:	01d10463          	beq	sp,t4,8008e60 <test_41>
 8008e5c:	29c0906f          	j	80120f8 <fail>

0000000008008e60 <test_41>:
  TEST_RR_ZEROSRC2( 41, sra, 32, 32 );
 8008e60:	02000093          	li	ra,32
 8008e64:	4000d133          	sra	sp,ra,zero
 8008e68:	02000e93          	li	t4,32
 8008e6c:	02900193          	li	gp,41
 8008e70:	01d10463          	beq	sp,t4,8008e78 <test_42>
 8008e74:	2840906f          	j	80120f8 <fail>

0000000008008e78 <test_42>:
  TEST_RR_ZEROSRC12( 42, sra, 0 );
 8008e78:	400050b3          	sra	ra,zero,zero
 8008e7c:	00000e93          	li	t4,0
 8008e80:	02a00193          	li	gp,42
 8008e84:	01d08463          	beq	ra,t4,8008e8c <test_43>
 8008e88:	2700906f          	j	80120f8 <fail>

0000000008008e8c <test_43>:
  TEST_RR_ZERODEST( 43, sra, 1024, 2048 );
 8008e8c:	40000093          	li	ra,1024
 8008e90:	00001137          	lui	sp,0x1
 8008e94:	8001011b          	addiw	sp,sp,-2048
 8008e98:	4020d033          	sra	zero,ra,sp
 8008e9c:	00000e93          	li	t4,0
 8008ea0:	02b00193          	li	gp,43
 8008ea4:	01d00463          	beq	zero,t4,8008eac <test_43+0x20>
 8008ea8:	2500906f          	j	80120f8 <fail>

  TEST_PASSFAIL

RVTEST_CODE_END
 8008eac:	c0001073          	unimp

0000000008008eb0 <test_2>:

  #-------------------------------------------------------------
  # Arithmetic tests
  #-------------------------------------------------------------

  TEST_IMM_OP( 2,  srai, 0xffffff8000000000, 0xffffff8000000000, 0  );
 8008eb0:	fff0009b          	addiw	ra,zero,-1
 8008eb4:	02709093          	slli	ra,ra,0x27
 8008eb8:	4000d713          	srai	a4,ra,0x0
 8008ebc:	fff00e9b          	addiw	t4,zero,-1
 8008ec0:	027e9e93          	slli	t4,t4,0x27
 8008ec4:	00200193          	li	gp,2
 8008ec8:	01d70463          	beq	a4,t4,8008ed0 <test_3>
 8008ecc:	22c0906f          	j	80120f8 <fail>

0000000008008ed0 <test_3>:
  TEST_IMM_OP( 3,  srai, 0xffffffffc0000000, 0xffffffff80000000, 1  );
 8008ed0:	800000b7          	lui	ra,0x80000
 8008ed4:	4010d713          	srai	a4,ra,0x1
 8008ed8:	c0000eb7          	lui	t4,0xc0000
 8008edc:	00300193          	li	gp,3
 8008ee0:	01d70463          	beq	a4,t4,8008ee8 <test_4>
 8008ee4:	2140906f          	j	80120f8 <fail>

0000000008008ee8 <test_4>:
  TEST_IMM_OP( 4,  srai, 0xffffffffff000000, 0xffffffff80000000, 7  );
 8008ee8:	800000b7          	lui	ra,0x80000
 8008eec:	4070d713          	srai	a4,ra,0x7
 8008ef0:	ff000eb7          	lui	t4,0xff000
 8008ef4:	00400193          	li	gp,4
 8008ef8:	01d70463          	beq	a4,t4,8008f00 <test_5>
 8008efc:	1fc0906f          	j	80120f8 <fail>

0000000008008f00 <test_5>:
  TEST_IMM_OP( 5,  srai, 0xfffffffffffe0000, 0xffffffff80000000, 14 );
 8008f00:	800000b7          	lui	ra,0x80000
 8008f04:	40e0d713          	srai	a4,ra,0xe
 8008f08:	fffe0eb7          	lui	t4,0xfffe0
 8008f0c:	00500193          	li	gp,5
 8008f10:	01d70463          	beq	a4,t4,8008f18 <test_6>
 8008f14:	1e40906f          	j	80120f8 <fail>

0000000008008f18 <test_6>:
  TEST_IMM_OP( 6,  srai, 0xffffffffffffffff, 0xffffffff80000001, 31 );
 8008f18:	800000b7          	lui	ra,0x80000
 8008f1c:	0010809b          	addiw	ra,ra,1
 8008f20:	41f0d713          	srai	a4,ra,0x1f
 8008f24:	fff00e93          	li	t4,-1
 8008f28:	00600193          	li	gp,6
 8008f2c:	01d70463          	beq	a4,t4,8008f34 <test_7>
 8008f30:	1c80906f          	j	80120f8 <fail>

0000000008008f34 <test_7>:

  TEST_IMM_OP( 7,  srai, 0x000000007fffffff, 0x000000007fffffff, 0  );
 8008f34:	800000b7          	lui	ra,0x80000
 8008f38:	fff0809b          	addiw	ra,ra,-1
 8008f3c:	4000d713          	srai	a4,ra,0x0
 8008f40:	80000eb7          	lui	t4,0x80000
 8008f44:	fffe8e9b          	addiw	t4,t4,-1
 8008f48:	00700193          	li	gp,7
 8008f4c:	01d70463          	beq	a4,t4,8008f54 <test_8>
 8008f50:	1a80906f          	j	80120f8 <fail>

0000000008008f54 <test_8>:
  TEST_IMM_OP( 8,  srai, 0x000000003fffffff, 0x000000007fffffff, 1  );
 8008f54:	800000b7          	lui	ra,0x80000
 8008f58:	fff0809b          	addiw	ra,ra,-1
 8008f5c:	4010d713          	srai	a4,ra,0x1
 8008f60:	40000eb7          	lui	t4,0x40000
 8008f64:	fffe8e9b          	addiw	t4,t4,-1
 8008f68:	00800193          	li	gp,8
 8008f6c:	01d70463          	beq	a4,t4,8008f74 <test_9>
 8008f70:	1880906f          	j	80120f8 <fail>

0000000008008f74 <test_9>:
  TEST_IMM_OP( 9,  srai, 0x0000000000ffffff, 0x000000007fffffff, 7  );
 8008f74:	800000b7          	lui	ra,0x80000
 8008f78:	fff0809b          	addiw	ra,ra,-1
 8008f7c:	4070d713          	srai	a4,ra,0x7
 8008f80:	01000eb7          	lui	t4,0x1000
 8008f84:	fffe8e9b          	addiw	t4,t4,-1
 8008f88:	00900193          	li	gp,9
 8008f8c:	01d70463          	beq	a4,t4,8008f94 <test_10>
 8008f90:	1680906f          	j	80120f8 <fail>

0000000008008f94 <test_10>:
  TEST_IMM_OP( 10, srai, 0x000000000001ffff, 0x000000007fffffff, 14 );
 8008f94:	800000b7          	lui	ra,0x80000
 8008f98:	fff0809b          	addiw	ra,ra,-1
 8008f9c:	40e0d713          	srai	a4,ra,0xe
 8008fa0:	00020eb7          	lui	t4,0x20
 8008fa4:	fffe8e9b          	addiw	t4,t4,-1
 8008fa8:	00a00193          	li	gp,10
 8008fac:	01d70463          	beq	a4,t4,8008fb4 <test_11>
 8008fb0:	1480906f          	j	80120f8 <fail>

0000000008008fb4 <test_11>:
  TEST_IMM_OP( 11, srai, 0x0000000000000000, 0x000000007fffffff, 31 );
 8008fb4:	800000b7          	lui	ra,0x80000
 8008fb8:	fff0809b          	addiw	ra,ra,-1
 8008fbc:	41f0d713          	srai	a4,ra,0x1f
 8008fc0:	00000e93          	li	t4,0
 8008fc4:	00b00193          	li	gp,11
 8008fc8:	01d70463          	beq	a4,t4,8008fd0 <test_12>
 8008fcc:	12c0906f          	j	80120f8 <fail>

0000000008008fd0 <test_12>:

  TEST_IMM_OP( 12, srai, 0xffffffff81818181, 0xffffffff81818181, 0  );
 8008fd0:	818180b7          	lui	ra,0x81818
 8008fd4:	1810809b          	addiw	ra,ra,385
 8008fd8:	4000d713          	srai	a4,ra,0x0
 8008fdc:	81818eb7          	lui	t4,0x81818
 8008fe0:	181e8e9b          	addiw	t4,t4,385
 8008fe4:	00c00193          	li	gp,12
 8008fe8:	01d70463          	beq	a4,t4,8008ff0 <test_13>
 8008fec:	10c0906f          	j	80120f8 <fail>

0000000008008ff0 <test_13>:
  TEST_IMM_OP( 13, srai, 0xffffffffc0c0c0c0, 0xffffffff81818181, 1  );
 8008ff0:	818180b7          	lui	ra,0x81818
 8008ff4:	1810809b          	addiw	ra,ra,385
 8008ff8:	4010d713          	srai	a4,ra,0x1
 8008ffc:	c0c0ceb7          	lui	t4,0xc0c0c
 8009000:	0c0e8e9b          	addiw	t4,t4,192
 8009004:	00d00193          	li	gp,13
 8009008:	01d70463          	beq	a4,t4,8009010 <test_14>
 800900c:	0ec0906f          	j	80120f8 <fail>

0000000008009010 <test_14>:
  TEST_IMM_OP( 14, srai, 0xffffffffff030303, 0xffffffff81818181, 7  );
 8009010:	818180b7          	lui	ra,0x81818
 8009014:	1810809b          	addiw	ra,ra,385
 8009018:	4070d713          	srai	a4,ra,0x7
 800901c:	ff030eb7          	lui	t4,0xff030
 8009020:	303e8e9b          	addiw	t4,t4,771
 8009024:	00e00193          	li	gp,14
 8009028:	01d70463          	beq	a4,t4,8009030 <test_15>
 800902c:	0cc0906f          	j	80120f8 <fail>

0000000008009030 <test_15>:
  TEST_IMM_OP( 15, srai, 0xfffffffffffe0606, 0xffffffff81818181, 14 );
 8009030:	818180b7          	lui	ra,0x81818
 8009034:	1810809b          	addiw	ra,ra,385
 8009038:	40e0d713          	srai	a4,ra,0xe
 800903c:	fffe0eb7          	lui	t4,0xfffe0
 8009040:	606e8e9b          	addiw	t4,t4,1542
 8009044:	00f00193          	li	gp,15
 8009048:	01d70463          	beq	a4,t4,8009050 <test_16>
 800904c:	0ac0906f          	j	80120f8 <fail>

0000000008009050 <test_16>:
  TEST_IMM_OP( 16, srai, 0xffffffffffffffff, 0xffffffff81818181, 31 );
 8009050:	818180b7          	lui	ra,0x81818
 8009054:	1810809b          	addiw	ra,ra,385
 8009058:	41f0d713          	srai	a4,ra,0x1f
 800905c:	fff00e93          	li	t4,-1
 8009060:	01000193          	li	gp,16
 8009064:	01d70463          	beq	a4,t4,800906c <test_17>
 8009068:	0900906f          	j	80120f8 <fail>

000000000800906c <test_17>:

  #-------------------------------------------------------------
  # Source/Destination tests
  #-------------------------------------------------------------

  TEST_IMM_SRC1_EQ_DEST( 17, srai, 0xffffffffff000000, 0xffffffff80000000, 7 );
 800906c:	800000b7          	lui	ra,0x80000
 8009070:	4070d093          	srai	ra,ra,0x7
 8009074:	ff000eb7          	lui	t4,0xff000
 8009078:	01100193          	li	gp,17
 800907c:	01d08463          	beq	ra,t4,8009084 <test_18>
 8009080:	0780906f          	j	80120f8 <fail>

0000000008009084 <test_18>:

  #-------------------------------------------------------------
  # Bypassing tests
  #-------------------------------------------------------------

  TEST_IMM_DEST_BYPASS( 18, 0, srai, 0xffffffffff000000, 0xffffffff80000000, 7  );
 8009084:	00000213          	li	tp,0
 8009088:	800000b7          	lui	ra,0x80000
 800908c:	4070d713          	srai	a4,ra,0x7
 8009090:	00070313          	mv	t1,a4
 8009094:	00120213          	addi	tp,tp,1 # 1 <u_mode_trap_table-0x8000003>
 8009098:	00200293          	li	t0,2
 800909c:	fe5216e3          	bne	tp,t0,8009088 <test_18+0x4>
 80090a0:	ff000eb7          	lui	t4,0xff000
 80090a4:	01200193          	li	gp,18
 80090a8:	01d30463          	beq	t1,t4,80090b0 <test_19>
 80090ac:	04c0906f          	j	80120f8 <fail>

00000000080090b0 <test_19>:
  TEST_IMM_DEST_BYPASS( 19, 1, srai, 0xfffffffffffe0000, 0xffffffff80000000, 14 );
 80090b0:	00000213          	li	tp,0
 80090b4:	800000b7          	lui	ra,0x80000
 80090b8:	40e0d713          	srai	a4,ra,0xe
 80090bc:	00000013          	nop
 80090c0:	00070313          	mv	t1,a4
 80090c4:	00120213          	addi	tp,tp,1 # 1 <u_mode_trap_table-0x8000003>
 80090c8:	00200293          	li	t0,2
 80090cc:	fe5214e3          	bne	tp,t0,80090b4 <test_19+0x4>
 80090d0:	fffe0eb7          	lui	t4,0xfffe0
 80090d4:	01300193          	li	gp,19
 80090d8:	01d30463          	beq	t1,t4,80090e0 <test_20>
 80090dc:	01c0906f          	j	80120f8 <fail>

00000000080090e0 <test_20>:
  TEST_IMM_DEST_BYPASS( 20, 2, srai, 0xffffffffffffffff, 0xffffffff80000001, 31 );
 80090e0:	00000213          	li	tp,0
 80090e4:	800000b7          	lui	ra,0x80000
 80090e8:	0010809b          	addiw	ra,ra,1
 80090ec:	41f0d713          	srai	a4,ra,0x1f
 80090f0:	00000013          	nop
 80090f4:	00000013          	nop
 80090f8:	00070313          	mv	t1,a4
 80090fc:	00120213          	addi	tp,tp,1 # 1 <u_mode_trap_table-0x8000003>
 8009100:	00200293          	li	t0,2
 8009104:	fe5210e3          	bne	tp,t0,80090e4 <test_20+0x4>
 8009108:	fff00e93          	li	t4,-1
 800910c:	01400193          	li	gp,20
 8009110:	01d30463          	beq	t1,t4,8009118 <test_21>
 8009114:	7e50806f          	j	80120f8 <fail>

0000000008009118 <test_21>:

  TEST_IMM_SRC1_BYPASS( 21, 0, srai, 0xffffffffff000000, 0xffffffff80000000, 7 );
 8009118:	00000213          	li	tp,0
 800911c:	800000b7          	lui	ra,0x80000
 8009120:	4070d713          	srai	a4,ra,0x7
 8009124:	00120213          	addi	tp,tp,1 # 1 <u_mode_trap_table-0x8000003>
 8009128:	00200293          	li	t0,2
 800912c:	fe5218e3          	bne	tp,t0,800911c <test_21+0x4>
 8009130:	ff000eb7          	lui	t4,0xff000
 8009134:	01500193          	li	gp,21
 8009138:	01d70463          	beq	a4,t4,8009140 <test_22>
 800913c:	7bd0806f          	j	80120f8 <fail>

0000000008009140 <test_22>:
  TEST_IMM_SRC1_BYPASS( 22, 1, srai, 0xfffffffffffe0000, 0xffffffff80000000, 14 );
 8009140:	00000213          	li	tp,0
 8009144:	800000b7          	lui	ra,0x80000
 8009148:	00000013          	nop
 800914c:	40e0d713          	srai	a4,ra,0xe
 8009150:	00120213          	addi	tp,tp,1 # 1 <u_mode_trap_table-0x8000003>
 8009154:	00200293          	li	t0,2
 8009158:	fe5216e3          	bne	tp,t0,8009144 <test_22+0x4>
 800915c:	fffe0eb7          	lui	t4,0xfffe0
 8009160:	01600193          	li	gp,22
 8009164:	01d70463          	beq	a4,t4,800916c <test_23>
 8009168:	7910806f          	j	80120f8 <fail>

000000000800916c <test_23>:
  TEST_IMM_SRC1_BYPASS( 23, 2, srai, 0xffffffffffffffff, 0xffffffff80000001, 31 );
 800916c:	00000213          	li	tp,0
 8009170:	800000b7          	lui	ra,0x80000
 8009174:	0010809b          	addiw	ra,ra,1
 8009178:	00000013          	nop
 800917c:	00000013          	nop
 8009180:	41f0d713          	srai	a4,ra,0x1f
 8009184:	00120213          	addi	tp,tp,1 # 1 <u_mode_trap_table-0x8000003>
 8009188:	00200293          	li	t0,2
 800918c:	fe5212e3          	bne	tp,t0,8009170 <test_23+0x4>
 8009190:	fff00e93          	li	t4,-1
 8009194:	01700193          	li	gp,23
 8009198:	01d70463          	beq	a4,t4,80091a0 <test_24>
 800919c:	75d0806f          	j	80120f8 <fail>

00000000080091a0 <test_24>:

  TEST_IMM_ZEROSRC1( 24, srai, 0, 4 );
 80091a0:	40405093          	srai	ra,zero,0x4
 80091a4:	00000e93          	li	t4,0
 80091a8:	01800193          	li	gp,24
 80091ac:	01d08463          	beq	ra,t4,80091b4 <test_25>
 80091b0:	7490806f          	j	80120f8 <fail>

00000000080091b4 <test_25>:
  TEST_IMM_ZERODEST( 25, srai, 33, 10 );
 80091b4:	02100093          	li	ra,33
 80091b8:	40a0d013          	srai	zero,ra,0xa
 80091bc:	00000e93          	li	t4,0
 80091c0:	01900193          	li	gp,25
 80091c4:	01d00463          	beq	zero,t4,80091cc <test_25+0x18>
 80091c8:	7310806f          	j	80120f8 <fail>

  TEST_PASSFAIL

RVTEST_CODE_END
 80091cc:	c0001073          	unimp

00000000080091d0 <test_2>:

  #-------------------------------------------------------------
  # Arithmetic tests
  #-------------------------------------------------------------

  TEST_IMM_OP( 2,  sraiw, 0xffffffff80000000, 0xffffffff80000000, 0  );
 80091d0:	800000b7          	lui	ra,0x80000
 80091d4:	4000d71b          	sraiw	a4,ra,0x0
 80091d8:	80000eb7          	lui	t4,0x80000
 80091dc:	00200193          	li	gp,2
 80091e0:	01d70463          	beq	a4,t4,80091e8 <test_3>
 80091e4:	7150806f          	j	80120f8 <fail>

00000000080091e8 <test_3>:
  TEST_IMM_OP( 3,  sraiw, 0xffffffffc0000000, 0xffffffff80000000, 1  );
 80091e8:	800000b7          	lui	ra,0x80000
 80091ec:	4010d71b          	sraiw	a4,ra,0x1
 80091f0:	c0000eb7          	lui	t4,0xc0000
 80091f4:	00300193          	li	gp,3
 80091f8:	01d70463          	beq	a4,t4,8009200 <test_4>
 80091fc:	6fd0806f          	j	80120f8 <fail>

0000000008009200 <test_4>:
  TEST_IMM_OP( 4,  sraiw, 0xffffffffff000000, 0xffffffff80000000, 7  );
 8009200:	800000b7          	lui	ra,0x80000
 8009204:	4070d71b          	sraiw	a4,ra,0x7
 8009208:	ff000eb7          	lui	t4,0xff000
 800920c:	00400193          	li	gp,4
 8009210:	01d70463          	beq	a4,t4,8009218 <test_5>
 8009214:	6e50806f          	j	80120f8 <fail>

0000000008009218 <test_5>:
  TEST_IMM_OP( 5,  sraiw, 0xfffffffffffe0000, 0xffffffff80000000, 14 );
 8009218:	800000b7          	lui	ra,0x80000
 800921c:	40e0d71b          	sraiw	a4,ra,0xe
 8009220:	fffe0eb7          	lui	t4,0xfffe0
 8009224:	00500193          	li	gp,5
 8009228:	01d70463          	beq	a4,t4,8009230 <test_6>
 800922c:	6cd0806f          	j	80120f8 <fail>

0000000008009230 <test_6>:
  TEST_IMM_OP( 6,  sraiw, 0xffffffffffffffff, 0xffffffff80000001, 31 );
 8009230:	800000b7          	lui	ra,0x80000
 8009234:	0010809b          	addiw	ra,ra,1
 8009238:	41f0d71b          	sraiw	a4,ra,0x1f
 800923c:	fff00e93          	li	t4,-1
 8009240:	00600193          	li	gp,6
 8009244:	01d70463          	beq	a4,t4,800924c <test_7>
 8009248:	6b10806f          	j	80120f8 <fail>

000000000800924c <test_7>:

  TEST_IMM_OP( 7,  sraiw, 0x000000007fffffff, 0x000000007fffffff, 0  );
 800924c:	800000b7          	lui	ra,0x80000
 8009250:	fff0809b          	addiw	ra,ra,-1
 8009254:	4000d71b          	sraiw	a4,ra,0x0
 8009258:	80000eb7          	lui	t4,0x80000
 800925c:	fffe8e9b          	addiw	t4,t4,-1
 8009260:	00700193          	li	gp,7
 8009264:	01d70463          	beq	a4,t4,800926c <test_8>
 8009268:	6910806f          	j	80120f8 <fail>

000000000800926c <test_8>:
  TEST_IMM_OP( 8,  sraiw, 0x000000003fffffff, 0x000000007fffffff, 1  );
 800926c:	800000b7          	lui	ra,0x80000
 8009270:	fff0809b          	addiw	ra,ra,-1
 8009274:	4010d71b          	sraiw	a4,ra,0x1
 8009278:	40000eb7          	lui	t4,0x40000
 800927c:	fffe8e9b          	addiw	t4,t4,-1
 8009280:	00800193          	li	gp,8
 8009284:	01d70463          	beq	a4,t4,800928c <test_9>
 8009288:	6710806f          	j	80120f8 <fail>

000000000800928c <test_9>:
  TEST_IMM_OP( 9,  sraiw, 0x0000000000ffffff, 0x000000007fffffff, 7  );
 800928c:	800000b7          	lui	ra,0x80000
 8009290:	fff0809b          	addiw	ra,ra,-1
 8009294:	4070d71b          	sraiw	a4,ra,0x7
 8009298:	01000eb7          	lui	t4,0x1000
 800929c:	fffe8e9b          	addiw	t4,t4,-1
 80092a0:	00900193          	li	gp,9
 80092a4:	01d70463          	beq	a4,t4,80092ac <test_10>
 80092a8:	6510806f          	j	80120f8 <fail>

00000000080092ac <test_10>:
  TEST_IMM_OP( 10, sraiw, 0x000000000001ffff, 0x000000007fffffff, 14 );
 80092ac:	800000b7          	lui	ra,0x80000
 80092b0:	fff0809b          	addiw	ra,ra,-1
 80092b4:	40e0d71b          	sraiw	a4,ra,0xe
 80092b8:	00020eb7          	lui	t4,0x20
 80092bc:	fffe8e9b          	addiw	t4,t4,-1
 80092c0:	00a00193          	li	gp,10
 80092c4:	01d70463          	beq	a4,t4,80092cc <test_11>
 80092c8:	6310806f          	j	80120f8 <fail>

00000000080092cc <test_11>:
  TEST_IMM_OP( 11, sraiw, 0x0000000000000000, 0x000000007fffffff, 31 );
 80092cc:	800000b7          	lui	ra,0x80000
 80092d0:	fff0809b          	addiw	ra,ra,-1
 80092d4:	41f0d71b          	sraiw	a4,ra,0x1f
 80092d8:	00000e93          	li	t4,0
 80092dc:	00b00193          	li	gp,11
 80092e0:	01d70463          	beq	a4,t4,80092e8 <test_12>
 80092e4:	6150806f          	j	80120f8 <fail>

00000000080092e8 <test_12>:

  TEST_IMM_OP( 12, sraiw, 0xffffffff81818181, 0xffffffff81818181, 0  );
 80092e8:	818180b7          	lui	ra,0x81818
 80092ec:	1810809b          	addiw	ra,ra,385
 80092f0:	4000d71b          	sraiw	a4,ra,0x0
 80092f4:	81818eb7          	lui	t4,0x81818
 80092f8:	181e8e9b          	addiw	t4,t4,385
 80092fc:	00c00193          	li	gp,12
 8009300:	01d70463          	beq	a4,t4,8009308 <test_13>
 8009304:	5f50806f          	j	80120f8 <fail>

0000000008009308 <test_13>:
  TEST_IMM_OP( 13, sraiw, 0xffffffffc0c0c0c0, 0xffffffff81818181, 1  );
 8009308:	818180b7          	lui	ra,0x81818
 800930c:	1810809b          	addiw	ra,ra,385
 8009310:	4010d71b          	sraiw	a4,ra,0x1
 8009314:	c0c0ceb7          	lui	t4,0xc0c0c
 8009318:	0c0e8e9b          	addiw	t4,t4,192
 800931c:	00d00193          	li	gp,13
 8009320:	01d70463          	beq	a4,t4,8009328 <test_14>
 8009324:	5d50806f          	j	80120f8 <fail>

0000000008009328 <test_14>:
  TEST_IMM_OP( 14, sraiw, 0xffffffffff030303, 0xffffffff81818181, 7  );
 8009328:	818180b7          	lui	ra,0x81818
 800932c:	1810809b          	addiw	ra,ra,385
 8009330:	4070d71b          	sraiw	a4,ra,0x7
 8009334:	ff030eb7          	lui	t4,0xff030
 8009338:	303e8e9b          	addiw	t4,t4,771
 800933c:	00e00193          	li	gp,14
 8009340:	01d70463          	beq	a4,t4,8009348 <test_15>
 8009344:	5b50806f          	j	80120f8 <fail>

0000000008009348 <test_15>:
  TEST_IMM_OP( 15, sraiw, 0xfffffffffffe0606, 0xffffffff81818181, 14 );
 8009348:	818180b7          	lui	ra,0x81818
 800934c:	1810809b          	addiw	ra,ra,385
 8009350:	40e0d71b          	sraiw	a4,ra,0xe
 8009354:	fffe0eb7          	lui	t4,0xfffe0
 8009358:	606e8e9b          	addiw	t4,t4,1542
 800935c:	00f00193          	li	gp,15
 8009360:	01d70463          	beq	a4,t4,8009368 <test_16>
 8009364:	5950806f          	j	80120f8 <fail>

0000000008009368 <test_16>:
  TEST_IMM_OP( 16, sraiw, 0xffffffffffffffff, 0xffffffff81818181, 31 );
 8009368:	818180b7          	lui	ra,0x81818
 800936c:	1810809b          	addiw	ra,ra,385
 8009370:	41f0d71b          	sraiw	a4,ra,0x1f
 8009374:	fff00e93          	li	t4,-1
 8009378:	01000193          	li	gp,16
 800937c:	01d70463          	beq	a4,t4,8009384 <test_44>
 8009380:	5790806f          	j	80120f8 <fail>

0000000008009384 <test_44>:

  # Verify that shifts ignore top 32 (using true 64-bit values)

  TEST_IMM_OP( 44, sraiw, 0x0000000012345678, 0xffffffff12345678, 0 );
 8009384:	fff120b7          	lui	ra,0xfff12
 8009388:	3450809b          	addiw	ra,ra,837
 800938c:	00c09093          	slli	ra,ra,0xc
 8009390:	67808093          	addi	ra,ra,1656 # fffffffffff12678 <_end+0xfffffffff7eff018>
 8009394:	4000d71b          	sraiw	a4,ra,0x0
 8009398:	12345eb7          	lui	t4,0x12345
 800939c:	678e8e9b          	addiw	t4,t4,1656
 80093a0:	02c00193          	li	gp,44
 80093a4:	01d70463          	beq	a4,t4,80093ac <test_45>
 80093a8:	5510806f          	j	80120f8 <fail>

00000000080093ac <test_45>:
  TEST_IMM_OP( 45, sraiw, 0x0000000001234567, 0xffffffff12345678, 4 );
 80093ac:	fff120b7          	lui	ra,0xfff12
 80093b0:	3450809b          	addiw	ra,ra,837
 80093b4:	00c09093          	slli	ra,ra,0xc
 80093b8:	67808093          	addi	ra,ra,1656 # fffffffffff12678 <_end+0xfffffffff7eff018>
 80093bc:	4040d71b          	sraiw	a4,ra,0x4
 80093c0:	01234eb7          	lui	t4,0x1234
 80093c4:	567e8e9b          	addiw	t4,t4,1383
 80093c8:	02d00193          	li	gp,45
 80093cc:	01d70463          	beq	a4,t4,80093d4 <test_46>
 80093d0:	5290806f          	j	80120f8 <fail>

00000000080093d4 <test_46>:
  TEST_IMM_OP( 46, sraiw, 0xffffffff92345678, 0x0000000092345678, 0 );
 80093d4:	000920b7          	lui	ra,0x92
 80093d8:	3450809b          	addiw	ra,ra,837
 80093dc:	00c09093          	slli	ra,ra,0xc
 80093e0:	67808093          	addi	ra,ra,1656 # 92678 <u_mode_trap_table-0x7f6d98c>
 80093e4:	4000d71b          	sraiw	a4,ra,0x0
 80093e8:	92345eb7          	lui	t4,0x92345
 80093ec:	678e8e9b          	addiw	t4,t4,1656
 80093f0:	02e00193          	li	gp,46
 80093f4:	01d70463          	beq	a4,t4,80093fc <test_47>
 80093f8:	5010806f          	j	80120f8 <fail>

00000000080093fc <test_47>:
  TEST_IMM_OP( 47, sraiw, 0xfffffffff9234567, 0x0000000092345678, 4 );
 80093fc:	000920b7          	lui	ra,0x92
 8009400:	3450809b          	addiw	ra,ra,837
 8009404:	00c09093          	slli	ra,ra,0xc
 8009408:	67808093          	addi	ra,ra,1656 # 92678 <u_mode_trap_table-0x7f6d98c>
 800940c:	4040d71b          	sraiw	a4,ra,0x4
 8009410:	f9234eb7          	lui	t4,0xf9234
 8009414:	567e8e9b          	addiw	t4,t4,1383
 8009418:	02f00193          	li	gp,47
 800941c:	01d70463          	beq	a4,t4,8009424 <test_17>
 8009420:	4d90806f          	j	80120f8 <fail>

0000000008009424 <test_17>:

  #-------------------------------------------------------------
  # Source/Destination tests
  #-------------------------------------------------------------

  TEST_IMM_SRC1_EQ_DEST( 17, sraiw, 0xffffffffff000000, 0xffffffff80000000, 7 );
 8009424:	800000b7          	lui	ra,0x80000
 8009428:	4070d09b          	sraiw	ra,ra,0x7
 800942c:	ff000eb7          	lui	t4,0xff000
 8009430:	01100193          	li	gp,17
 8009434:	01d08463          	beq	ra,t4,800943c <test_18>
 8009438:	4c10806f          	j	80120f8 <fail>

000000000800943c <test_18>:

  #-------------------------------------------------------------
  # Bypassing tests
  #-------------------------------------------------------------

  TEST_IMM_DEST_BYPASS( 18, 0, sraiw, 0xffffffffff000000, 0xffffffff80000000, 7  );
 800943c:	00000213          	li	tp,0
 8009440:	800000b7          	lui	ra,0x80000
 8009444:	4070d71b          	sraiw	a4,ra,0x7
 8009448:	00070313          	mv	t1,a4
 800944c:	00120213          	addi	tp,tp,1 # 1 <u_mode_trap_table-0x8000003>
 8009450:	00200293          	li	t0,2
 8009454:	fe5216e3          	bne	tp,t0,8009440 <test_18+0x4>
 8009458:	ff000eb7          	lui	t4,0xff000
 800945c:	01200193          	li	gp,18
 8009460:	01d30463          	beq	t1,t4,8009468 <test_19>
 8009464:	4950806f          	j	80120f8 <fail>

0000000008009468 <test_19>:
  TEST_IMM_DEST_BYPASS( 19, 1, sraiw, 0xfffffffffffe0000, 0xffffffff80000000, 14 );
 8009468:	00000213          	li	tp,0
 800946c:	800000b7          	lui	ra,0x80000
 8009470:	40e0d71b          	sraiw	a4,ra,0xe
 8009474:	00000013          	nop
 8009478:	00070313          	mv	t1,a4
 800947c:	00120213          	addi	tp,tp,1 # 1 <u_mode_trap_table-0x8000003>
 8009480:	00200293          	li	t0,2
 8009484:	fe5214e3          	bne	tp,t0,800946c <test_19+0x4>
 8009488:	fffe0eb7          	lui	t4,0xfffe0
 800948c:	01300193          	li	gp,19
 8009490:	01d30463          	beq	t1,t4,8009498 <test_20>
 8009494:	4650806f          	j	80120f8 <fail>

0000000008009498 <test_20>:
  TEST_IMM_DEST_BYPASS( 20, 2, sraiw, 0xffffffffffffffff, 0xffffffff80000001, 31 );
 8009498:	00000213          	li	tp,0
 800949c:	800000b7          	lui	ra,0x80000
 80094a0:	0010809b          	addiw	ra,ra,1
 80094a4:	41f0d71b          	sraiw	a4,ra,0x1f
 80094a8:	00000013          	nop
 80094ac:	00000013          	nop
 80094b0:	00070313          	mv	t1,a4
 80094b4:	00120213          	addi	tp,tp,1 # 1 <u_mode_trap_table-0x8000003>
 80094b8:	00200293          	li	t0,2
 80094bc:	fe5210e3          	bne	tp,t0,800949c <test_20+0x4>
 80094c0:	fff00e93          	li	t4,-1
 80094c4:	01400193          	li	gp,20
 80094c8:	01d30463          	beq	t1,t4,80094d0 <test_21>
 80094cc:	42d0806f          	j	80120f8 <fail>

00000000080094d0 <test_21>:

  TEST_IMM_SRC1_BYPASS( 21, 0, sraiw, 0xffffffffff000000, 0xffffffff80000000, 7 );
 80094d0:	00000213          	li	tp,0
 80094d4:	800000b7          	lui	ra,0x80000
 80094d8:	4070d71b          	sraiw	a4,ra,0x7
 80094dc:	00120213          	addi	tp,tp,1 # 1 <u_mode_trap_table-0x8000003>
 80094e0:	00200293          	li	t0,2
 80094e4:	fe5218e3          	bne	tp,t0,80094d4 <test_21+0x4>
 80094e8:	ff000eb7          	lui	t4,0xff000
 80094ec:	01500193          	li	gp,21
 80094f0:	01d70463          	beq	a4,t4,80094f8 <test_22>
 80094f4:	4050806f          	j	80120f8 <fail>

00000000080094f8 <test_22>:
  TEST_IMM_SRC1_BYPASS( 22, 1, sraiw, 0xfffffffffffe0000, 0xffffffff80000000, 14 );
 80094f8:	00000213          	li	tp,0
 80094fc:	800000b7          	lui	ra,0x80000
 8009500:	00000013          	nop
 8009504:	40e0d71b          	sraiw	a4,ra,0xe
 8009508:	00120213          	addi	tp,tp,1 # 1 <u_mode_trap_table-0x8000003>
 800950c:	00200293          	li	t0,2
 8009510:	fe5216e3          	bne	tp,t0,80094fc <test_22+0x4>
 8009514:	fffe0eb7          	lui	t4,0xfffe0
 8009518:	01600193          	li	gp,22
 800951c:	01d70463          	beq	a4,t4,8009524 <test_23>
 8009520:	3d90806f          	j	80120f8 <fail>

0000000008009524 <test_23>:
  TEST_IMM_SRC1_BYPASS( 23, 2, sraiw, 0xffffffffffffffff, 0xffffffff80000001, 31 );
 8009524:	00000213          	li	tp,0
 8009528:	800000b7          	lui	ra,0x80000
 800952c:	0010809b          	addiw	ra,ra,1
 8009530:	00000013          	nop
 8009534:	00000013          	nop
 8009538:	41f0d71b          	sraiw	a4,ra,0x1f
 800953c:	00120213          	addi	tp,tp,1 # 1 <u_mode_trap_table-0x8000003>
 8009540:	00200293          	li	t0,2
 8009544:	fe5212e3          	bne	tp,t0,8009528 <test_23+0x4>
 8009548:	fff00e93          	li	t4,-1
 800954c:	01700193          	li	gp,23
 8009550:	01d70463          	beq	a4,t4,8009558 <test_24>
 8009554:	3a50806f          	j	80120f8 <fail>

0000000008009558 <test_24>:

  TEST_IMM_ZEROSRC1( 24, sraiw, 0, 31 );
 8009558:	41f0509b          	sraiw	ra,zero,0x1f
 800955c:	00000e93          	li	t4,0
 8009560:	01800193          	li	gp,24
 8009564:	01d08463          	beq	ra,t4,800956c <test_25>
 8009568:	3910806f          	j	80120f8 <fail>

000000000800956c <test_25>:
  TEST_IMM_ZERODEST( 25, sraiw, 31, 28 );
 800956c:	01f00093          	li	ra,31
 8009570:	41c0d01b          	sraiw	zero,ra,0x1c
 8009574:	00000e93          	li	t4,0
 8009578:	01900193          	li	gp,25
 800957c:	01d00463          	beq	zero,t4,8009584 <test_26>
 8009580:	3790806f          	j	80120f8 <fail>

0000000008009584 <test_26>:

  TEST_IMM_OP( 26, sraiw, 0x0000000000000000, 0x00e0000000000000, 28)
 8009584:	0070009b          	addiw	ra,zero,7
 8009588:	03509093          	slli	ra,ra,0x35
 800958c:	41c0d71b          	sraiw	a4,ra,0x1c
 8009590:	00000e93          	li	t4,0
 8009594:	01a00193          	li	gp,26
 8009598:	01d70463          	beq	a4,t4,80095a0 <test_27>
 800959c:	35d0806f          	j	80120f8 <fail>

00000000080095a0 <test_27>:
  TEST_IMM_OP( 27, sraiw, 0xffffffffff000000, 0x00000000f0000000, 4)
 80095a0:	00f0009b          	addiw	ra,zero,15
 80095a4:	01c09093          	slli	ra,ra,0x1c
 80095a8:	4040d71b          	sraiw	a4,ra,0x4
 80095ac:	ff000eb7          	lui	t4,0xff000
 80095b0:	01b00193          	li	gp,27
 80095b4:	01d70463          	beq	a4,t4,80095bc <test_27+0x1c>
 80095b8:	3410806f          	j	80120f8 <fail>

  TEST_PASSFAIL

RVTEST_CODE_END
 80095bc:	c0001073          	unimp

00000000080095c0 <test_2>:

  #-------------------------------------------------------------
  # Arithmetic tests
  #-------------------------------------------------------------

  TEST_RR_OP( 2,  sraw, 0xffffffff80000000, 0xffffffff80000000, 0  );
 80095c0:	800000b7          	lui	ra,0x80000
 80095c4:	00000113          	li	sp,0
 80095c8:	4020d73b          	sraw	a4,ra,sp
 80095cc:	80000eb7          	lui	t4,0x80000
 80095d0:	00200193          	li	gp,2
 80095d4:	01d70463          	beq	a4,t4,80095dc <test_3>
 80095d8:	3210806f          	j	80120f8 <fail>

00000000080095dc <test_3>:
  TEST_RR_OP( 3,  sraw, 0xffffffffc0000000, 0xffffffff80000000, 1  );
 80095dc:	800000b7          	lui	ra,0x80000
 80095e0:	00100113          	li	sp,1
 80095e4:	4020d73b          	sraw	a4,ra,sp
 80095e8:	c0000eb7          	lui	t4,0xc0000
 80095ec:	00300193          	li	gp,3
 80095f0:	01d70463          	beq	a4,t4,80095f8 <test_4>
 80095f4:	3050806f          	j	80120f8 <fail>

00000000080095f8 <test_4>:
  TEST_RR_OP( 4,  sraw, 0xffffffffff000000, 0xffffffff80000000, 7  );
 80095f8:	800000b7          	lui	ra,0x80000
 80095fc:	00700113          	li	sp,7
 8009600:	4020d73b          	sraw	a4,ra,sp
 8009604:	ff000eb7          	lui	t4,0xff000
 8009608:	00400193          	li	gp,4
 800960c:	01d70463          	beq	a4,t4,8009614 <test_5>
 8009610:	2e90806f          	j	80120f8 <fail>

0000000008009614 <test_5>:
  TEST_RR_OP( 5,  sraw, 0xfffffffffffe0000, 0xffffffff80000000, 14 );
 8009614:	800000b7          	lui	ra,0x80000
 8009618:	00e00113          	li	sp,14
 800961c:	4020d73b          	sraw	a4,ra,sp
 8009620:	fffe0eb7          	lui	t4,0xfffe0
 8009624:	00500193          	li	gp,5
 8009628:	01d70463          	beq	a4,t4,8009630 <test_6>
 800962c:	2cd0806f          	j	80120f8 <fail>

0000000008009630 <test_6>:
  TEST_RR_OP( 6,  sraw, 0xffffffffffffffff, 0xffffffff80000001, 31 );
 8009630:	800000b7          	lui	ra,0x80000
 8009634:	0010809b          	addiw	ra,ra,1
 8009638:	01f00113          	li	sp,31
 800963c:	4020d73b          	sraw	a4,ra,sp
 8009640:	fff00e93          	li	t4,-1
 8009644:	00600193          	li	gp,6
 8009648:	01d70463          	beq	a4,t4,8009650 <test_7>
 800964c:	2ad0806f          	j	80120f8 <fail>

0000000008009650 <test_7>:

  TEST_RR_OP( 7,  sraw, 0x000000007fffffff, 0x000000007fffffff, 0  );
 8009650:	800000b7          	lui	ra,0x80000
 8009654:	fff0809b          	addiw	ra,ra,-1
 8009658:	00000113          	li	sp,0
 800965c:	4020d73b          	sraw	a4,ra,sp
 8009660:	80000eb7          	lui	t4,0x80000
 8009664:	fffe8e9b          	addiw	t4,t4,-1
 8009668:	00700193          	li	gp,7
 800966c:	01d70463          	beq	a4,t4,8009674 <test_8>
 8009670:	2890806f          	j	80120f8 <fail>

0000000008009674 <test_8>:
  TEST_RR_OP( 8,  sraw, 0x000000003fffffff, 0x000000007fffffff, 1  );
 8009674:	800000b7          	lui	ra,0x80000
 8009678:	fff0809b          	addiw	ra,ra,-1
 800967c:	00100113          	li	sp,1
 8009680:	4020d73b          	sraw	a4,ra,sp
 8009684:	40000eb7          	lui	t4,0x40000
 8009688:	fffe8e9b          	addiw	t4,t4,-1
 800968c:	00800193          	li	gp,8
 8009690:	01d70463          	beq	a4,t4,8009698 <test_9>
 8009694:	2650806f          	j	80120f8 <fail>

0000000008009698 <test_9>:
  TEST_RR_OP( 9,  sraw, 0x0000000000ffffff, 0x000000007fffffff, 7  );
 8009698:	800000b7          	lui	ra,0x80000
 800969c:	fff0809b          	addiw	ra,ra,-1
 80096a0:	00700113          	li	sp,7
 80096a4:	4020d73b          	sraw	a4,ra,sp
 80096a8:	01000eb7          	lui	t4,0x1000
 80096ac:	fffe8e9b          	addiw	t4,t4,-1
 80096b0:	00900193          	li	gp,9
 80096b4:	01d70463          	beq	a4,t4,80096bc <test_10>
 80096b8:	2410806f          	j	80120f8 <fail>

00000000080096bc <test_10>:
  TEST_RR_OP( 10, sraw, 0x000000000001ffff, 0x000000007fffffff, 14 );
 80096bc:	800000b7          	lui	ra,0x80000
 80096c0:	fff0809b          	addiw	ra,ra,-1
 80096c4:	00e00113          	li	sp,14
 80096c8:	4020d73b          	sraw	a4,ra,sp
 80096cc:	00020eb7          	lui	t4,0x20
 80096d0:	fffe8e9b          	addiw	t4,t4,-1
 80096d4:	00a00193          	li	gp,10
 80096d8:	01d70463          	beq	a4,t4,80096e0 <test_11>
 80096dc:	21d0806f          	j	80120f8 <fail>

00000000080096e0 <test_11>:
  TEST_RR_OP( 11, sraw, 0x0000000000000000, 0x000000007fffffff, 31 );
 80096e0:	800000b7          	lui	ra,0x80000
 80096e4:	fff0809b          	addiw	ra,ra,-1
 80096e8:	01f00113          	li	sp,31
 80096ec:	4020d73b          	sraw	a4,ra,sp
 80096f0:	00000e93          	li	t4,0
 80096f4:	00b00193          	li	gp,11
 80096f8:	01d70463          	beq	a4,t4,8009700 <test_12>
 80096fc:	1fd0806f          	j	80120f8 <fail>

0000000008009700 <test_12>:

  TEST_RR_OP( 12, sraw, 0xffffffff81818181, 0xffffffff81818181, 0  );
 8009700:	818180b7          	lui	ra,0x81818
 8009704:	1810809b          	addiw	ra,ra,385
 8009708:	00000113          	li	sp,0
 800970c:	4020d73b          	sraw	a4,ra,sp
 8009710:	81818eb7          	lui	t4,0x81818
 8009714:	181e8e9b          	addiw	t4,t4,385
 8009718:	00c00193          	li	gp,12
 800971c:	01d70463          	beq	a4,t4,8009724 <test_13>
 8009720:	1d90806f          	j	80120f8 <fail>

0000000008009724 <test_13>:
  TEST_RR_OP( 13, sraw, 0xffffffffc0c0c0c0, 0xffffffff81818181, 1  );
 8009724:	818180b7          	lui	ra,0x81818
 8009728:	1810809b          	addiw	ra,ra,385
 800972c:	00100113          	li	sp,1
 8009730:	4020d73b          	sraw	a4,ra,sp
 8009734:	c0c0ceb7          	lui	t4,0xc0c0c
 8009738:	0c0e8e9b          	addiw	t4,t4,192
 800973c:	00d00193          	li	gp,13
 8009740:	01d70463          	beq	a4,t4,8009748 <test_14>
 8009744:	1b50806f          	j	80120f8 <fail>

0000000008009748 <test_14>:
  TEST_RR_OP( 14, sraw, 0xffffffffff030303, 0xffffffff81818181, 7  );
 8009748:	818180b7          	lui	ra,0x81818
 800974c:	1810809b          	addiw	ra,ra,385
 8009750:	00700113          	li	sp,7
 8009754:	4020d73b          	sraw	a4,ra,sp
 8009758:	ff030eb7          	lui	t4,0xff030
 800975c:	303e8e9b          	addiw	t4,t4,771
 8009760:	00e00193          	li	gp,14
 8009764:	01d70463          	beq	a4,t4,800976c <test_15>
 8009768:	1910806f          	j	80120f8 <fail>

000000000800976c <test_15>:
  TEST_RR_OP( 15, sraw, 0xfffffffffffe0606, 0xffffffff81818181, 14 );
 800976c:	818180b7          	lui	ra,0x81818
 8009770:	1810809b          	addiw	ra,ra,385
 8009774:	00e00113          	li	sp,14
 8009778:	4020d73b          	sraw	a4,ra,sp
 800977c:	fffe0eb7          	lui	t4,0xfffe0
 8009780:	606e8e9b          	addiw	t4,t4,1542
 8009784:	00f00193          	li	gp,15
 8009788:	01d70463          	beq	a4,t4,8009790 <test_16>
 800978c:	16d0806f          	j	80120f8 <fail>

0000000008009790 <test_16>:
  TEST_RR_OP( 16, sraw, 0xffffffffffffffff, 0xffffffff81818181, 31 );
 8009790:	818180b7          	lui	ra,0x81818
 8009794:	1810809b          	addiw	ra,ra,385
 8009798:	01f00113          	li	sp,31
 800979c:	4020d73b          	sraw	a4,ra,sp
 80097a0:	fff00e93          	li	t4,-1
 80097a4:	01000193          	li	gp,16
 80097a8:	01d70463          	beq	a4,t4,80097b0 <test_17>
 80097ac:	14d0806f          	j	80120f8 <fail>

00000000080097b0 <test_17>:

  # Verify that shifts only use bottom five bits

  TEST_RR_OP( 17, sraw, 0xffffffff81818181, 0xffffffff81818181, 0xffffffffffffffe0 );
 80097b0:	818180b7          	lui	ra,0x81818
 80097b4:	1810809b          	addiw	ra,ra,385
 80097b8:	fe000113          	li	sp,-32
 80097bc:	4020d73b          	sraw	a4,ra,sp
 80097c0:	81818eb7          	lui	t4,0x81818
 80097c4:	181e8e9b          	addiw	t4,t4,385
 80097c8:	01100193          	li	gp,17
 80097cc:	01d70463          	beq	a4,t4,80097d4 <test_18>
 80097d0:	1290806f          	j	80120f8 <fail>

00000000080097d4 <test_18>:
  TEST_RR_OP( 18, sraw, 0xffffffffc0c0c0c0, 0xffffffff81818181, 0xffffffffffffffe1 );
 80097d4:	818180b7          	lui	ra,0x81818
 80097d8:	1810809b          	addiw	ra,ra,385
 80097dc:	fe100113          	li	sp,-31
 80097e0:	4020d73b          	sraw	a4,ra,sp
 80097e4:	c0c0ceb7          	lui	t4,0xc0c0c
 80097e8:	0c0e8e9b          	addiw	t4,t4,192
 80097ec:	01200193          	li	gp,18
 80097f0:	01d70463          	beq	a4,t4,80097f8 <test_19>
 80097f4:	1050806f          	j	80120f8 <fail>

00000000080097f8 <test_19>:
  TEST_RR_OP( 19, sraw, 0xffffffffff030303, 0xffffffff81818181, 0xffffffffffffffe7 );
 80097f8:	818180b7          	lui	ra,0x81818
 80097fc:	1810809b          	addiw	ra,ra,385
 8009800:	fe700113          	li	sp,-25
 8009804:	4020d73b          	sraw	a4,ra,sp
 8009808:	ff030eb7          	lui	t4,0xff030
 800980c:	303e8e9b          	addiw	t4,t4,771
 8009810:	01300193          	li	gp,19
 8009814:	01d70463          	beq	a4,t4,800981c <test_20>
 8009818:	0e10806f          	j	80120f8 <fail>

000000000800981c <test_20>:
  TEST_RR_OP( 20, sraw, 0xfffffffffffe0606, 0xffffffff81818181, 0xffffffffffffffee );
 800981c:	818180b7          	lui	ra,0x81818
 8009820:	1810809b          	addiw	ra,ra,385
 8009824:	fee00113          	li	sp,-18
 8009828:	4020d73b          	sraw	a4,ra,sp
 800982c:	fffe0eb7          	lui	t4,0xfffe0
 8009830:	606e8e9b          	addiw	t4,t4,1542
 8009834:	01400193          	li	gp,20
 8009838:	01d70463          	beq	a4,t4,8009840 <test_21>
 800983c:	0bd0806f          	j	80120f8 <fail>

0000000008009840 <test_21>:
  TEST_RR_OP( 21, sraw, 0xffffffffffffffff, 0xffffffff81818181, 0xffffffffffffffff );
 8009840:	818180b7          	lui	ra,0x81818
 8009844:	1810809b          	addiw	ra,ra,385
 8009848:	fff00113          	li	sp,-1
 800984c:	4020d73b          	sraw	a4,ra,sp
 8009850:	fff00e93          	li	t4,-1
 8009854:	01500193          	li	gp,21
 8009858:	01d70463          	beq	a4,t4,8009860 <test_44>
 800985c:	09d0806f          	j	80120f8 <fail>

0000000008009860 <test_44>:

  # Verify that shifts ignore top 32 (using true 64-bit values)

  TEST_RR_OP( 44, sraw, 0x0000000012345678, 0xffffffff12345678, 0 );
 8009860:	fff120b7          	lui	ra,0xfff12
 8009864:	3450809b          	addiw	ra,ra,837
 8009868:	00c09093          	slli	ra,ra,0xc
 800986c:	67808093          	addi	ra,ra,1656 # fffffffffff12678 <_end+0xfffffffff7eff018>
 8009870:	00000113          	li	sp,0
 8009874:	4020d73b          	sraw	a4,ra,sp
 8009878:	12345eb7          	lui	t4,0x12345
 800987c:	678e8e9b          	addiw	t4,t4,1656
 8009880:	02c00193          	li	gp,44
 8009884:	01d70463          	beq	a4,t4,800988c <test_45>
 8009888:	0710806f          	j	80120f8 <fail>

000000000800988c <test_45>:
  TEST_RR_OP( 45, sraw, 0x0000000001234567, 0xffffffff12345678, 4 );
 800988c:	fff120b7          	lui	ra,0xfff12
 8009890:	3450809b          	addiw	ra,ra,837
 8009894:	00c09093          	slli	ra,ra,0xc
 8009898:	67808093          	addi	ra,ra,1656 # fffffffffff12678 <_end+0xfffffffff7eff018>
 800989c:	00400113          	li	sp,4
 80098a0:	4020d73b          	sraw	a4,ra,sp
 80098a4:	01234eb7          	lui	t4,0x1234
 80098a8:	567e8e9b          	addiw	t4,t4,1383
 80098ac:	02d00193          	li	gp,45
 80098b0:	01d70463          	beq	a4,t4,80098b8 <test_46>
 80098b4:	0450806f          	j	80120f8 <fail>

00000000080098b8 <test_46>:
  TEST_RR_OP( 46, sraw, 0xffffffff92345678, 0x0000000092345678, 0 );
 80098b8:	000920b7          	lui	ra,0x92
 80098bc:	3450809b          	addiw	ra,ra,837
 80098c0:	00c09093          	slli	ra,ra,0xc
 80098c4:	67808093          	addi	ra,ra,1656 # 92678 <u_mode_trap_table-0x7f6d98c>
 80098c8:	00000113          	li	sp,0
 80098cc:	4020d73b          	sraw	a4,ra,sp
 80098d0:	92345eb7          	lui	t4,0x92345
 80098d4:	678e8e9b          	addiw	t4,t4,1656
 80098d8:	02e00193          	li	gp,46
 80098dc:	01d70463          	beq	a4,t4,80098e4 <test_47>
 80098e0:	0190806f          	j	80120f8 <fail>

00000000080098e4 <test_47>:
  TEST_RR_OP( 47, sraw, 0xfffffffff9234567, 0x0000000092345678, 4 );
 80098e4:	000920b7          	lui	ra,0x92
 80098e8:	3450809b          	addiw	ra,ra,837
 80098ec:	00c09093          	slli	ra,ra,0xc
 80098f0:	67808093          	addi	ra,ra,1656 # 92678 <u_mode_trap_table-0x7f6d98c>
 80098f4:	00400113          	li	sp,4
 80098f8:	4020d73b          	sraw	a4,ra,sp
 80098fc:	f9234eb7          	lui	t4,0xf9234
 8009900:	567e8e9b          	addiw	t4,t4,1383
 8009904:	02f00193          	li	gp,47
 8009908:	01d70463          	beq	a4,t4,8009910 <test_22>
 800990c:	7ec0806f          	j	80120f8 <fail>

0000000008009910 <test_22>:

  #-------------------------------------------------------------
  # Source/Destination tests
  #-------------------------------------------------------------

  TEST_RR_SRC1_EQ_DEST( 22, sraw, 0xffffffffff000000, 0xffffffff80000000, 7  );
 8009910:	800000b7          	lui	ra,0x80000
 8009914:	00700113          	li	sp,7
 8009918:	4020d0bb          	sraw	ra,ra,sp
 800991c:	ff000eb7          	lui	t4,0xff000
 8009920:	01600193          	li	gp,22
 8009924:	01d08463          	beq	ra,t4,800992c <test_23>
 8009928:	7d00806f          	j	80120f8 <fail>

000000000800992c <test_23>:
  TEST_RR_SRC2_EQ_DEST( 23, sraw, 0xfffffffffffe0000, 0xffffffff80000000, 14 );
 800992c:	800000b7          	lui	ra,0x80000
 8009930:	00e00113          	li	sp,14
 8009934:	4020d13b          	sraw	sp,ra,sp
 8009938:	fffe0eb7          	lui	t4,0xfffe0
 800993c:	01700193          	li	gp,23
 8009940:	01d10463          	beq	sp,t4,8009948 <test_24>
 8009944:	7b40806f          	j	80120f8 <fail>

0000000008009948 <test_24>:
  TEST_RR_SRC12_EQ_DEST( 24, sraw, 0, 7 );
 8009948:	00700093          	li	ra,7
 800994c:	4010d0bb          	sraw	ra,ra,ra
 8009950:	00000e93          	li	t4,0
 8009954:	01800193          	li	gp,24
 8009958:	01d08463          	beq	ra,t4,8009960 <test_25>
 800995c:	79c0806f          	j	80120f8 <fail>

0000000008009960 <test_25>:

  #-------------------------------------------------------------
  # Bypassing tests
  #-------------------------------------------------------------

  TEST_RR_DEST_BYPASS( 25, 0, sraw, 0xffffffffff000000, 0xffffffff80000000, 7  );
 8009960:	00000213          	li	tp,0
 8009964:	800000b7          	lui	ra,0x80000
 8009968:	00700113          	li	sp,7
 800996c:	4020d73b          	sraw	a4,ra,sp
 8009970:	00070313          	mv	t1,a4
 8009974:	00120213          	addi	tp,tp,1 # 1 <u_mode_trap_table-0x8000003>
 8009978:	00200293          	li	t0,2
 800997c:	fe5214e3          	bne	tp,t0,8009964 <test_25+0x4>
 8009980:	ff000eb7          	lui	t4,0xff000
 8009984:	01900193          	li	gp,25
 8009988:	01d30463          	beq	t1,t4,8009990 <test_26>
 800998c:	76c0806f          	j	80120f8 <fail>

0000000008009990 <test_26>:
  TEST_RR_DEST_BYPASS( 26, 1, sraw, 0xfffffffffffe0000, 0xffffffff80000000, 14 );
 8009990:	00000213          	li	tp,0
 8009994:	800000b7          	lui	ra,0x80000
 8009998:	00e00113          	li	sp,14
 800999c:	4020d73b          	sraw	a4,ra,sp
 80099a0:	00000013          	nop
 80099a4:	00070313          	mv	t1,a4
 80099a8:	00120213          	addi	tp,tp,1 # 1 <u_mode_trap_table-0x8000003>
 80099ac:	00200293          	li	t0,2
 80099b0:	fe5212e3          	bne	tp,t0,8009994 <test_26+0x4>
 80099b4:	fffe0eb7          	lui	t4,0xfffe0
 80099b8:	01a00193          	li	gp,26
 80099bc:	01d30463          	beq	t1,t4,80099c4 <test_27>
 80099c0:	7380806f          	j	80120f8 <fail>

00000000080099c4 <test_27>:
  TEST_RR_DEST_BYPASS( 27, 2, sraw, 0xffffffffffffffff, 0xffffffff80000000, 31 );
 80099c4:	00000213          	li	tp,0
 80099c8:	800000b7          	lui	ra,0x80000
 80099cc:	01f00113          	li	sp,31
 80099d0:	4020d73b          	sraw	a4,ra,sp
 80099d4:	00000013          	nop
 80099d8:	00000013          	nop
 80099dc:	00070313          	mv	t1,a4
 80099e0:	00120213          	addi	tp,tp,1 # 1 <u_mode_trap_table-0x8000003>
 80099e4:	00200293          	li	t0,2
 80099e8:	fe5210e3          	bne	tp,t0,80099c8 <test_27+0x4>
 80099ec:	fff00e93          	li	t4,-1
 80099f0:	01b00193          	li	gp,27
 80099f4:	01d30463          	beq	t1,t4,80099fc <test_28>
 80099f8:	7000806f          	j	80120f8 <fail>

00000000080099fc <test_28>:

  TEST_RR_SRC12_BYPASS( 28, 0, 0, sraw, 0xffffffffff000000, 0xffffffff80000000, 7  );
 80099fc:	00000213          	li	tp,0
 8009a00:	800000b7          	lui	ra,0x80000
 8009a04:	00700113          	li	sp,7
 8009a08:	4020d73b          	sraw	a4,ra,sp
 8009a0c:	00120213          	addi	tp,tp,1 # 1 <u_mode_trap_table-0x8000003>
 8009a10:	00200293          	li	t0,2
 8009a14:	fe5216e3          	bne	tp,t0,8009a00 <test_28+0x4>
 8009a18:	ff000eb7          	lui	t4,0xff000
 8009a1c:	01c00193          	li	gp,28
 8009a20:	01d70463          	beq	a4,t4,8009a28 <test_29>
 8009a24:	6d40806f          	j	80120f8 <fail>

0000000008009a28 <test_29>:
  TEST_RR_SRC12_BYPASS( 29, 0, 1, sraw, 0xfffffffffffe0000, 0xffffffff80000000, 14 );
 8009a28:	00000213          	li	tp,0
 8009a2c:	800000b7          	lui	ra,0x80000
 8009a30:	00e00113          	li	sp,14
 8009a34:	00000013          	nop
 8009a38:	4020d73b          	sraw	a4,ra,sp
 8009a3c:	00120213          	addi	tp,tp,1 # 1 <u_mode_trap_table-0x8000003>
 8009a40:	00200293          	li	t0,2
 8009a44:	fe5214e3          	bne	tp,t0,8009a2c <test_29+0x4>
 8009a48:	fffe0eb7          	lui	t4,0xfffe0
 8009a4c:	01d00193          	li	gp,29
 8009a50:	01d70463          	beq	a4,t4,8009a58 <test_30>
 8009a54:	6a40806f          	j	80120f8 <fail>

0000000008009a58 <test_30>:
  TEST_RR_SRC12_BYPASS( 30, 0, 2, sraw, 0xffffffffffffffff, 0xffffffff80000000, 31 );
 8009a58:	00000213          	li	tp,0
 8009a5c:	800000b7          	lui	ra,0x80000
 8009a60:	01f00113          	li	sp,31
 8009a64:	00000013          	nop
 8009a68:	00000013          	nop
 8009a6c:	4020d73b          	sraw	a4,ra,sp
 8009a70:	00120213          	addi	tp,tp,1 # 1 <u_mode_trap_table-0x8000003>
 8009a74:	00200293          	li	t0,2
 8009a78:	fe5212e3          	bne	tp,t0,8009a5c <test_30+0x4>
 8009a7c:	fff00e93          	li	t4,-1
 8009a80:	01e00193          	li	gp,30
 8009a84:	01d70463          	beq	a4,t4,8009a8c <test_31>
 8009a88:	6700806f          	j	80120f8 <fail>

0000000008009a8c <test_31>:
  TEST_RR_SRC12_BYPASS( 31, 1, 0, sraw, 0xffffffffff000000, 0xffffffff80000000, 7  );
 8009a8c:	00000213          	li	tp,0
 8009a90:	800000b7          	lui	ra,0x80000
 8009a94:	00000013          	nop
 8009a98:	00700113          	li	sp,7
 8009a9c:	4020d73b          	sraw	a4,ra,sp
 8009aa0:	00120213          	addi	tp,tp,1 # 1 <u_mode_trap_table-0x8000003>
 8009aa4:	00200293          	li	t0,2
 8009aa8:	fe5214e3          	bne	tp,t0,8009a90 <test_31+0x4>
 8009aac:	ff000eb7          	lui	t4,0xff000
 8009ab0:	01f00193          	li	gp,31
 8009ab4:	01d70463          	beq	a4,t4,8009abc <test_32>
 8009ab8:	6400806f          	j	80120f8 <fail>

0000000008009abc <test_32>:
  TEST_RR_SRC12_BYPASS( 32, 1, 1, sraw, 0xfffffffffffe0000, 0xffffffff80000000, 14 );
 8009abc:	00000213          	li	tp,0
 8009ac0:	800000b7          	lui	ra,0x80000
 8009ac4:	00000013          	nop
 8009ac8:	00e00113          	li	sp,14
 8009acc:	00000013          	nop
 8009ad0:	4020d73b          	sraw	a4,ra,sp
 8009ad4:	00120213          	addi	tp,tp,1 # 1 <u_mode_trap_table-0x8000003>
 8009ad8:	00200293          	li	t0,2
 8009adc:	fe5212e3          	bne	tp,t0,8009ac0 <test_32+0x4>
 8009ae0:	fffe0eb7          	lui	t4,0xfffe0
 8009ae4:	02000193          	li	gp,32
 8009ae8:	01d70463          	beq	a4,t4,8009af0 <test_33>
 8009aec:	60c0806f          	j	80120f8 <fail>

0000000008009af0 <test_33>:
  TEST_RR_SRC12_BYPASS( 33, 2, 0, sraw, 0xffffffffffffffff, 0xffffffff80000000, 31 );
 8009af0:	00000213          	li	tp,0
 8009af4:	800000b7          	lui	ra,0x80000
 8009af8:	00000013          	nop
 8009afc:	00000013          	nop
 8009b00:	01f00113          	li	sp,31
 8009b04:	4020d73b          	sraw	a4,ra,sp
 8009b08:	00120213          	addi	tp,tp,1 # 1 <u_mode_trap_table-0x8000003>
 8009b0c:	00200293          	li	t0,2
 8009b10:	fe5212e3          	bne	tp,t0,8009af4 <test_33+0x4>
 8009b14:	fff00e93          	li	t4,-1
 8009b18:	02100193          	li	gp,33
 8009b1c:	01d70463          	beq	a4,t4,8009b24 <test_34>
 8009b20:	5d80806f          	j	80120f8 <fail>

0000000008009b24 <test_34>:

  TEST_RR_SRC21_BYPASS( 34, 0, 0, sraw, 0xffffffffff000000, 0xffffffff80000000, 7  );
 8009b24:	00000213          	li	tp,0
 8009b28:	00700113          	li	sp,7
 8009b2c:	800000b7          	lui	ra,0x80000
 8009b30:	4020d73b          	sraw	a4,ra,sp
 8009b34:	00120213          	addi	tp,tp,1 # 1 <u_mode_trap_table-0x8000003>
 8009b38:	00200293          	li	t0,2
 8009b3c:	fe5216e3          	bne	tp,t0,8009b28 <test_34+0x4>
 8009b40:	ff000eb7          	lui	t4,0xff000
 8009b44:	02200193          	li	gp,34
 8009b48:	01d70463          	beq	a4,t4,8009b50 <test_35>
 8009b4c:	5ac0806f          	j	80120f8 <fail>

0000000008009b50 <test_35>:
  TEST_RR_SRC21_BYPASS( 35, 0, 1, sraw, 0xfffffffffffe0000, 0xffffffff80000000, 14 );
 8009b50:	00000213          	li	tp,0
 8009b54:	00e00113          	li	sp,14
 8009b58:	800000b7          	lui	ra,0x80000
 8009b5c:	00000013          	nop
 8009b60:	4020d73b          	sraw	a4,ra,sp
 8009b64:	00120213          	addi	tp,tp,1 # 1 <u_mode_trap_table-0x8000003>
 8009b68:	00200293          	li	t0,2
 8009b6c:	fe5214e3          	bne	tp,t0,8009b54 <test_35+0x4>
 8009b70:	fffe0eb7          	lui	t4,0xfffe0
 8009b74:	02300193          	li	gp,35
 8009b78:	01d70463          	beq	a4,t4,8009b80 <test_36>
 8009b7c:	57c0806f          	j	80120f8 <fail>

0000000008009b80 <test_36>:
  TEST_RR_SRC21_BYPASS( 36, 0, 2, sraw, 0xffffffffffffffff, 0xffffffff80000000, 31 );
 8009b80:	00000213          	li	tp,0
 8009b84:	01f00113          	li	sp,31
 8009b88:	800000b7          	lui	ra,0x80000
 8009b8c:	00000013          	nop
 8009b90:	00000013          	nop
 8009b94:	4020d73b          	sraw	a4,ra,sp
 8009b98:	00120213          	addi	tp,tp,1 # 1 <u_mode_trap_table-0x8000003>
 8009b9c:	00200293          	li	t0,2
 8009ba0:	fe5212e3          	bne	tp,t0,8009b84 <test_36+0x4>
 8009ba4:	fff00e93          	li	t4,-1
 8009ba8:	02400193          	li	gp,36
 8009bac:	01d70463          	beq	a4,t4,8009bb4 <test_37>
 8009bb0:	5480806f          	j	80120f8 <fail>

0000000008009bb4 <test_37>:
  TEST_RR_SRC21_BYPASS( 37, 1, 0, sraw, 0xffffffffff000000, 0xffffffff80000000, 7  );
 8009bb4:	00000213          	li	tp,0
 8009bb8:	00700113          	li	sp,7
 8009bbc:	00000013          	nop
 8009bc0:	800000b7          	lui	ra,0x80000
 8009bc4:	4020d73b          	sraw	a4,ra,sp
 8009bc8:	00120213          	addi	tp,tp,1 # 1 <u_mode_trap_table-0x8000003>
 8009bcc:	00200293          	li	t0,2
 8009bd0:	fe5214e3          	bne	tp,t0,8009bb8 <test_37+0x4>
 8009bd4:	ff000eb7          	lui	t4,0xff000
 8009bd8:	02500193          	li	gp,37
 8009bdc:	01d70463          	beq	a4,t4,8009be4 <test_38>
 8009be0:	5180806f          	j	80120f8 <fail>

0000000008009be4 <test_38>:
  TEST_RR_SRC21_BYPASS( 38, 1, 1, sraw, 0xfffffffffffe0000, 0xffffffff80000000, 14 );
 8009be4:	00000213          	li	tp,0
 8009be8:	00e00113          	li	sp,14
 8009bec:	00000013          	nop
 8009bf0:	800000b7          	lui	ra,0x80000
 8009bf4:	00000013          	nop
 8009bf8:	4020d73b          	sraw	a4,ra,sp
 8009bfc:	00120213          	addi	tp,tp,1 # 1 <u_mode_trap_table-0x8000003>
 8009c00:	00200293          	li	t0,2
 8009c04:	fe5212e3          	bne	tp,t0,8009be8 <test_38+0x4>
 8009c08:	fffe0eb7          	lui	t4,0xfffe0
 8009c0c:	02600193          	li	gp,38
 8009c10:	01d70463          	beq	a4,t4,8009c18 <test_39>
 8009c14:	4e40806f          	j	80120f8 <fail>

0000000008009c18 <test_39>:
  TEST_RR_SRC21_BYPASS( 39, 2, 0, sraw, 0xffffffffffffffff, 0xffffffff80000000, 31 );
 8009c18:	00000213          	li	tp,0
 8009c1c:	01f00113          	li	sp,31
 8009c20:	00000013          	nop
 8009c24:	00000013          	nop
 8009c28:	800000b7          	lui	ra,0x80000
 8009c2c:	4020d73b          	sraw	a4,ra,sp
 8009c30:	00120213          	addi	tp,tp,1 # 1 <u_mode_trap_table-0x8000003>
 8009c34:	00200293          	li	t0,2
 8009c38:	fe5212e3          	bne	tp,t0,8009c1c <test_39+0x4>
 8009c3c:	fff00e93          	li	t4,-1
 8009c40:	02700193          	li	gp,39
 8009c44:	01d70463          	beq	a4,t4,8009c4c <test_40>
 8009c48:	4b00806f          	j	80120f8 <fail>

0000000008009c4c <test_40>:

  TEST_RR_ZEROSRC1( 40, sraw, 0, 15 );
 8009c4c:	00f00093          	li	ra,15
 8009c50:	4010513b          	sraw	sp,zero,ra
 8009c54:	00000e93          	li	t4,0
 8009c58:	02800193          	li	gp,40
 8009c5c:	01d10463          	beq	sp,t4,8009c64 <test_41>
 8009c60:	4980806f          	j	80120f8 <fail>

0000000008009c64 <test_41>:
  TEST_RR_ZEROSRC2( 41, sraw, 32, 32 );
 8009c64:	02000093          	li	ra,32
 8009c68:	4000d13b          	sraw	sp,ra,zero
 8009c6c:	02000e93          	li	t4,32
 8009c70:	02900193          	li	gp,41
 8009c74:	01d10463          	beq	sp,t4,8009c7c <test_42>
 8009c78:	4800806f          	j	80120f8 <fail>

0000000008009c7c <test_42>:
  TEST_RR_ZEROSRC12( 42, sraw, 0 );
 8009c7c:	400050bb          	sraw	ra,zero,zero
 8009c80:	00000e93          	li	t4,0
 8009c84:	02a00193          	li	gp,42
 8009c88:	01d08463          	beq	ra,t4,8009c90 <test_43>
 8009c8c:	46c0806f          	j	80120f8 <fail>

0000000008009c90 <test_43>:
  TEST_RR_ZERODEST( 43, sraw, 1024, 2048 );
 8009c90:	40000093          	li	ra,1024
 8009c94:	00001137          	lui	sp,0x1
 8009c98:	8001011b          	addiw	sp,sp,-2048
 8009c9c:	4020d03b          	sraw	zero,ra,sp
 8009ca0:	00000e93          	li	t4,0
 8009ca4:	02b00193          	li	gp,43
 8009ca8:	01d00463          	beq	zero,t4,8009cb0 <test_43+0x20>
 8009cac:	44c0806f          	j	80120f8 <fail>

  TEST_PASSFAIL

RVTEST_CODE_END
 8009cb0:	c0001073          	unimp

0000000008009cb4 <test_2>:
  #-------------------------------------------------------------

#define TEST_SRL(n, v, a) \
  TEST_RR_OP(n, srl, ((v) & ((1 << (__riscv_xlen-1) << 1) - 1)) >> (a), v, a)

  TEST_SRL( 2,  0xffffffff80000000, 0  );
 8009cb4:	800000b7          	lui	ra,0x80000
 8009cb8:	00000113          	li	sp,0
 8009cbc:	0020d733          	srl	a4,ra,sp
 8009cc0:	80000eb7          	lui	t4,0x80000
 8009cc4:	00200193          	li	gp,2
 8009cc8:	01d70463          	beq	a4,t4,8009cd0 <test_3>
 8009ccc:	42c0806f          	j	80120f8 <fail>

0000000008009cd0 <test_3>:
  TEST_SRL( 3,  0xffffffff80000000, 1  );
 8009cd0:	800000b7          	lui	ra,0x80000
 8009cd4:	00100113          	li	sp,1
 8009cd8:	0020d733          	srl	a4,ra,sp
 8009cdc:	00100e9b          	addiw	t4,zero,1
 8009ce0:	021e9e93          	slli	t4,t4,0x21
 8009ce4:	fffe8e93          	addi	t4,t4,-1 # ffffffff7fffffff <_end+0xffffffff77fec99f>
 8009ce8:	01ee9e93          	slli	t4,t4,0x1e
 8009cec:	00300193          	li	gp,3
 8009cf0:	01d70463          	beq	a4,t4,8009cf8 <test_4>
 8009cf4:	4040806f          	j	80120f8 <fail>

0000000008009cf8 <test_4>:
  TEST_SRL( 4,  0xffffffff80000000, 7  );
 8009cf8:	800000b7          	lui	ra,0x80000
 8009cfc:	00700113          	li	sp,7
 8009d00:	0020d733          	srl	a4,ra,sp
 8009d04:	00100e9b          	addiw	t4,zero,1
 8009d08:	021e9e93          	slli	t4,t4,0x21
 8009d0c:	fffe8e93          	addi	t4,t4,-1
 8009d10:	018e9e93          	slli	t4,t4,0x18
 8009d14:	00400193          	li	gp,4
 8009d18:	01d70463          	beq	a4,t4,8009d20 <test_5>
 8009d1c:	3dc0806f          	j	80120f8 <fail>

0000000008009d20 <test_5>:
  TEST_SRL( 5,  0xffffffff80000000, 14 );
 8009d20:	800000b7          	lui	ra,0x80000
 8009d24:	00e00113          	li	sp,14
 8009d28:	0020d733          	srl	a4,ra,sp
 8009d2c:	00100e9b          	addiw	t4,zero,1
 8009d30:	021e9e93          	slli	t4,t4,0x21
 8009d34:	fffe8e93          	addi	t4,t4,-1
 8009d38:	011e9e93          	slli	t4,t4,0x11
 8009d3c:	00500193          	li	gp,5
 8009d40:	01d70463          	beq	a4,t4,8009d48 <test_6>
 8009d44:	3b40806f          	j	80120f8 <fail>

0000000008009d48 <test_6>:
  TEST_SRL( 6,  0xffffffff80000001, 31 );
 8009d48:	800000b7          	lui	ra,0x80000
 8009d4c:	0010809b          	addiw	ra,ra,1
 8009d50:	01f00113          	li	sp,31
 8009d54:	0020d733          	srl	a4,ra,sp
 8009d58:	00100e9b          	addiw	t4,zero,1
 8009d5c:	021e9e93          	slli	t4,t4,0x21
 8009d60:	fffe8e93          	addi	t4,t4,-1
 8009d64:	00600193          	li	gp,6
 8009d68:	01d70463          	beq	a4,t4,8009d70 <test_7>
 8009d6c:	38c0806f          	j	80120f8 <fail>

0000000008009d70 <test_7>:

  TEST_SRL( 7,  0xffffffffffffffff, 0  );
 8009d70:	fff00093          	li	ra,-1
 8009d74:	00000113          	li	sp,0
 8009d78:	0020d733          	srl	a4,ra,sp
 8009d7c:	fff00e93          	li	t4,-1
 8009d80:	00700193          	li	gp,7
 8009d84:	01d70463          	beq	a4,t4,8009d8c <test_8>
 8009d88:	3700806f          	j	80120f8 <fail>

0000000008009d8c <test_8>:
  TEST_SRL( 8,  0xffffffffffffffff, 1  );
 8009d8c:	fff00093          	li	ra,-1
 8009d90:	00100113          	li	sp,1
 8009d94:	0020d733          	srl	a4,ra,sp
 8009d98:	fff00e9b          	addiw	t4,zero,-1
 8009d9c:	03fe9e93          	slli	t4,t4,0x3f
 8009da0:	fffe8e93          	addi	t4,t4,-1
 8009da4:	00800193          	li	gp,8
 8009da8:	01d70463          	beq	a4,t4,8009db0 <test_9>
 8009dac:	34c0806f          	j	80120f8 <fail>

0000000008009db0 <test_9>:
  TEST_SRL( 9,  0xffffffffffffffff, 7  );
 8009db0:	fff00093          	li	ra,-1
 8009db4:	00700113          	li	sp,7
 8009db8:	0020d733          	srl	a4,ra,sp
 8009dbc:	00100e9b          	addiw	t4,zero,1
 8009dc0:	039e9e93          	slli	t4,t4,0x39
 8009dc4:	fffe8e93          	addi	t4,t4,-1
 8009dc8:	00900193          	li	gp,9
 8009dcc:	01d70463          	beq	a4,t4,8009dd4 <test_10>
 8009dd0:	3280806f          	j	80120f8 <fail>

0000000008009dd4 <test_10>:
  TEST_SRL( 10, 0xffffffffffffffff, 14 );
 8009dd4:	fff00093          	li	ra,-1
 8009dd8:	00e00113          	li	sp,14
 8009ddc:	0020d733          	srl	a4,ra,sp
 8009de0:	00100e9b          	addiw	t4,zero,1
 8009de4:	032e9e93          	slli	t4,t4,0x32
 8009de8:	fffe8e93          	addi	t4,t4,-1
 8009dec:	00a00193          	li	gp,10
 8009df0:	01d70463          	beq	a4,t4,8009df8 <test_11>
 8009df4:	3040806f          	j	80120f8 <fail>

0000000008009df8 <test_11>:
  TEST_SRL( 11, 0xffffffffffffffff, 31 );
 8009df8:	fff00093          	li	ra,-1
 8009dfc:	01f00113          	li	sp,31
 8009e00:	0020d733          	srl	a4,ra,sp
 8009e04:	00100e9b          	addiw	t4,zero,1
 8009e08:	021e9e93          	slli	t4,t4,0x21
 8009e0c:	fffe8e93          	addi	t4,t4,-1
 8009e10:	00b00193          	li	gp,11
 8009e14:	01d70463          	beq	a4,t4,8009e1c <test_12>
 8009e18:	2e00806f          	j	80120f8 <fail>

0000000008009e1c <test_12>:

  TEST_SRL( 12, 0x0000000021212121, 0  );
 8009e1c:	212120b7          	lui	ra,0x21212
 8009e20:	1210809b          	addiw	ra,ra,289
 8009e24:	00000113          	li	sp,0
 8009e28:	0020d733          	srl	a4,ra,sp
 8009e2c:	21212eb7          	lui	t4,0x21212
 8009e30:	121e8e9b          	addiw	t4,t4,289
 8009e34:	00c00193          	li	gp,12
 8009e38:	01d70463          	beq	a4,t4,8009e40 <test_13>
 8009e3c:	2bc0806f          	j	80120f8 <fail>

0000000008009e40 <test_13>:
  TEST_SRL( 13, 0x0000000021212121, 1  );
 8009e40:	212120b7          	lui	ra,0x21212
 8009e44:	1210809b          	addiw	ra,ra,289
 8009e48:	00100113          	li	sp,1
 8009e4c:	0020d733          	srl	a4,ra,sp
 8009e50:	10909eb7          	lui	t4,0x10909
 8009e54:	090e8e9b          	addiw	t4,t4,144
 8009e58:	00d00193          	li	gp,13
 8009e5c:	01d70463          	beq	a4,t4,8009e64 <test_14>
 8009e60:	2980806f          	j	80120f8 <fail>

0000000008009e64 <test_14>:
  TEST_SRL( 14, 0x0000000021212121, 7  );
 8009e64:	212120b7          	lui	ra,0x21212
 8009e68:	1210809b          	addiw	ra,ra,289
 8009e6c:	00700113          	li	sp,7
 8009e70:	0020d733          	srl	a4,ra,sp
 8009e74:	00424eb7          	lui	t4,0x424
 8009e78:	242e8e9b          	addiw	t4,t4,578
 8009e7c:	00e00193          	li	gp,14
 8009e80:	01d70463          	beq	a4,t4,8009e88 <test_15>
 8009e84:	2740806f          	j	80120f8 <fail>

0000000008009e88 <test_15>:
  TEST_SRL( 15, 0x0000000021212121, 14 );
 8009e88:	212120b7          	lui	ra,0x21212
 8009e8c:	1210809b          	addiw	ra,ra,289
 8009e90:	00e00113          	li	sp,14
 8009e94:	0020d733          	srl	a4,ra,sp
 8009e98:	00008eb7          	lui	t4,0x8
 8009e9c:	484e8e9b          	addiw	t4,t4,1156
 8009ea0:	00f00193          	li	gp,15
 8009ea4:	01d70463          	beq	a4,t4,8009eac <test_16>
 8009ea8:	2500806f          	j	80120f8 <fail>

0000000008009eac <test_16>:
  TEST_SRL( 16, 0x0000000021212121, 31 );
 8009eac:	212120b7          	lui	ra,0x21212
 8009eb0:	1210809b          	addiw	ra,ra,289
 8009eb4:	01f00113          	li	sp,31
 8009eb8:	0020d733          	srl	a4,ra,sp
 8009ebc:	00000e93          	li	t4,0
 8009ec0:	01000193          	li	gp,16
 8009ec4:	01d70463          	beq	a4,t4,8009ecc <test_17>
 8009ec8:	2300806f          	j	80120f8 <fail>

0000000008009ecc <test_17>:

  # Verify that shifts only use bottom six(rv64) or five(rv32) bits

  TEST_RR_OP( 17, srl, 0x0000000021212121, 0x0000000021212121, 0xffffffffffffffc0 );
 8009ecc:	212120b7          	lui	ra,0x21212
 8009ed0:	1210809b          	addiw	ra,ra,289
 8009ed4:	fc000113          	li	sp,-64
 8009ed8:	0020d733          	srl	a4,ra,sp
 8009edc:	21212eb7          	lui	t4,0x21212
 8009ee0:	121e8e9b          	addiw	t4,t4,289
 8009ee4:	01100193          	li	gp,17
 8009ee8:	01d70463          	beq	a4,t4,8009ef0 <test_18>
 8009eec:	20c0806f          	j	80120f8 <fail>

0000000008009ef0 <test_18>:
  TEST_RR_OP( 18, srl, 0x0000000010909090, 0x0000000021212121, 0xffffffffffffffc1 );
 8009ef0:	212120b7          	lui	ra,0x21212
 8009ef4:	1210809b          	addiw	ra,ra,289
 8009ef8:	fc100113          	li	sp,-63
 8009efc:	0020d733          	srl	a4,ra,sp
 8009f00:	10909eb7          	lui	t4,0x10909
 8009f04:	090e8e9b          	addiw	t4,t4,144
 8009f08:	01200193          	li	gp,18
 8009f0c:	01d70463          	beq	a4,t4,8009f14 <test_19>
 8009f10:	1e80806f          	j	80120f8 <fail>

0000000008009f14 <test_19>:
  TEST_RR_OP( 19, srl, 0x0000000000424242, 0x0000000021212121, 0xffffffffffffffc7 );
 8009f14:	212120b7          	lui	ra,0x21212
 8009f18:	1210809b          	addiw	ra,ra,289
 8009f1c:	fc700113          	li	sp,-57
 8009f20:	0020d733          	srl	a4,ra,sp
 8009f24:	00424eb7          	lui	t4,0x424
 8009f28:	242e8e9b          	addiw	t4,t4,578
 8009f2c:	01300193          	li	gp,19
 8009f30:	01d70463          	beq	a4,t4,8009f38 <test_20>
 8009f34:	1c40806f          	j	80120f8 <fail>

0000000008009f38 <test_20>:
  TEST_RR_OP( 20, srl, 0x0000000000008484, 0x0000000021212121, 0xffffffffffffffce );
 8009f38:	212120b7          	lui	ra,0x21212
 8009f3c:	1210809b          	addiw	ra,ra,289
 8009f40:	fce00113          	li	sp,-50
 8009f44:	0020d733          	srl	a4,ra,sp
 8009f48:	00008eb7          	lui	t4,0x8
 8009f4c:	484e8e9b          	addiw	t4,t4,1156
 8009f50:	01400193          	li	gp,20
 8009f54:	01d70463          	beq	a4,t4,8009f5c <test_21>
 8009f58:	1a00806f          	j	80120f8 <fail>

0000000008009f5c <test_21>:
  TEST_RR_OP( 21, srl, 0x0000000000000000, 0x0000000021212121, 0xffffffffffffffff );
 8009f5c:	212120b7          	lui	ra,0x21212
 8009f60:	1210809b          	addiw	ra,ra,289
 8009f64:	fff00113          	li	sp,-1
 8009f68:	0020d733          	srl	a4,ra,sp
 8009f6c:	00000e93          	li	t4,0
 8009f70:	01500193          	li	gp,21
 8009f74:	01d70463          	beq	a4,t4,8009f7c <test_22>
 8009f78:	1800806f          	j	80120f8 <fail>

0000000008009f7c <test_22>:

  #-------------------------------------------------------------
  # Source/Destination tests
  #-------------------------------------------------------------

  TEST_RR_SRC1_EQ_DEST( 22, srl, 0x01000000, 0x80000000, 7  );
 8009f7c:	0010009b          	addiw	ra,zero,1
 8009f80:	01f09093          	slli	ra,ra,0x1f
 8009f84:	00700113          	li	sp,7
 8009f88:	0020d0b3          	srl	ra,ra,sp
 8009f8c:	01000eb7          	lui	t4,0x1000
 8009f90:	01600193          	li	gp,22
 8009f94:	01d08463          	beq	ra,t4,8009f9c <test_23>
 8009f98:	1600806f          	j	80120f8 <fail>

0000000008009f9c <test_23>:
  TEST_RR_SRC2_EQ_DEST( 23, srl, 0x00020000, 0x80000000, 14 );
 8009f9c:	0010009b          	addiw	ra,zero,1
 8009fa0:	01f09093          	slli	ra,ra,0x1f
 8009fa4:	00e00113          	li	sp,14
 8009fa8:	0020d133          	srl	sp,ra,sp
 8009fac:	00020eb7          	lui	t4,0x20
 8009fb0:	01700193          	li	gp,23
 8009fb4:	01d10463          	beq	sp,t4,8009fbc <test_24>
 8009fb8:	1400806f          	j	80120f8 <fail>

0000000008009fbc <test_24>:
  TEST_RR_SRC12_EQ_DEST( 24, srl, 0, 7 );
 8009fbc:	00700093          	li	ra,7
 8009fc0:	0010d0b3          	srl	ra,ra,ra
 8009fc4:	00000e93          	li	t4,0
 8009fc8:	01800193          	li	gp,24
 8009fcc:	01d08463          	beq	ra,t4,8009fd4 <test_25>
 8009fd0:	1280806f          	j	80120f8 <fail>

0000000008009fd4 <test_25>:

  #-------------------------------------------------------------
  # Bypassing tests
  #-------------------------------------------------------------

  TEST_RR_DEST_BYPASS( 25, 0, srl, 0x01000000, 0x80000000, 7  );
 8009fd4:	00000213          	li	tp,0
 8009fd8:	0010009b          	addiw	ra,zero,1
 8009fdc:	01f09093          	slli	ra,ra,0x1f
 8009fe0:	00700113          	li	sp,7
 8009fe4:	0020d733          	srl	a4,ra,sp
 8009fe8:	00070313          	mv	t1,a4
 8009fec:	00120213          	addi	tp,tp,1 # 1 <u_mode_trap_table-0x8000003>
 8009ff0:	00200293          	li	t0,2
 8009ff4:	fe5212e3          	bne	tp,t0,8009fd8 <test_25+0x4>
 8009ff8:	01000eb7          	lui	t4,0x1000
 8009ffc:	01900193          	li	gp,25
 800a000:	01d30463          	beq	t1,t4,800a008 <test_26>
 800a004:	0f40806f          	j	80120f8 <fail>

000000000800a008 <test_26>:
  TEST_RR_DEST_BYPASS( 26, 1, srl, 0x00020000, 0x80000000, 14 );
 800a008:	00000213          	li	tp,0
 800a00c:	0010009b          	addiw	ra,zero,1
 800a010:	01f09093          	slli	ra,ra,0x1f
 800a014:	00e00113          	li	sp,14
 800a018:	0020d733          	srl	a4,ra,sp
 800a01c:	00000013          	nop
 800a020:	00070313          	mv	t1,a4
 800a024:	00120213          	addi	tp,tp,1 # 1 <u_mode_trap_table-0x8000003>
 800a028:	00200293          	li	t0,2
 800a02c:	fe5210e3          	bne	tp,t0,800a00c <test_26+0x4>
 800a030:	00020eb7          	lui	t4,0x20
 800a034:	01a00193          	li	gp,26
 800a038:	01d30463          	beq	t1,t4,800a040 <test_27>
 800a03c:	0bc0806f          	j	80120f8 <fail>

000000000800a040 <test_27>:
  TEST_RR_DEST_BYPASS( 27, 2, srl, 0x00000001, 0x80000000, 31 );
 800a040:	00000213          	li	tp,0
 800a044:	0010009b          	addiw	ra,zero,1
 800a048:	01f09093          	slli	ra,ra,0x1f
 800a04c:	01f00113          	li	sp,31
 800a050:	0020d733          	srl	a4,ra,sp
 800a054:	00000013          	nop
 800a058:	00000013          	nop
 800a05c:	00070313          	mv	t1,a4
 800a060:	00120213          	addi	tp,tp,1 # 1 <u_mode_trap_table-0x8000003>
 800a064:	00200293          	li	t0,2
 800a068:	fc521ee3          	bne	tp,t0,800a044 <test_27+0x4>
 800a06c:	00100e93          	li	t4,1
 800a070:	01b00193          	li	gp,27
 800a074:	01d30463          	beq	t1,t4,800a07c <test_28>
 800a078:	0800806f          	j	80120f8 <fail>

000000000800a07c <test_28>:

  TEST_RR_SRC12_BYPASS( 28, 0, 0, srl, 0x01000000, 0x80000000, 7  );
 800a07c:	00000213          	li	tp,0
 800a080:	0010009b          	addiw	ra,zero,1
 800a084:	01f09093          	slli	ra,ra,0x1f
 800a088:	00700113          	li	sp,7
 800a08c:	0020d733          	srl	a4,ra,sp
 800a090:	00120213          	addi	tp,tp,1 # 1 <u_mode_trap_table-0x8000003>
 800a094:	00200293          	li	t0,2
 800a098:	fe5214e3          	bne	tp,t0,800a080 <test_28+0x4>
 800a09c:	01000eb7          	lui	t4,0x1000
 800a0a0:	01c00193          	li	gp,28
 800a0a4:	01d70463          	beq	a4,t4,800a0ac <test_29>
 800a0a8:	0500806f          	j	80120f8 <fail>

000000000800a0ac <test_29>:
  TEST_RR_SRC12_BYPASS( 29, 0, 1, srl, 0x00020000, 0x80000000, 14 );
 800a0ac:	00000213          	li	tp,0
 800a0b0:	0010009b          	addiw	ra,zero,1
 800a0b4:	01f09093          	slli	ra,ra,0x1f
 800a0b8:	00e00113          	li	sp,14
 800a0bc:	00000013          	nop
 800a0c0:	0020d733          	srl	a4,ra,sp
 800a0c4:	00120213          	addi	tp,tp,1 # 1 <u_mode_trap_table-0x8000003>
 800a0c8:	00200293          	li	t0,2
 800a0cc:	fe5212e3          	bne	tp,t0,800a0b0 <test_29+0x4>
 800a0d0:	00020eb7          	lui	t4,0x20
 800a0d4:	01d00193          	li	gp,29
 800a0d8:	01d70463          	beq	a4,t4,800a0e0 <test_30>
 800a0dc:	01c0806f          	j	80120f8 <fail>

000000000800a0e0 <test_30>:
  TEST_RR_SRC12_BYPASS( 30, 0, 2, srl, 0x00000001, 0x80000000, 31 );
 800a0e0:	00000213          	li	tp,0
 800a0e4:	0010009b          	addiw	ra,zero,1
 800a0e8:	01f09093          	slli	ra,ra,0x1f
 800a0ec:	01f00113          	li	sp,31
 800a0f0:	00000013          	nop
 800a0f4:	00000013          	nop
 800a0f8:	0020d733          	srl	a4,ra,sp
 800a0fc:	00120213          	addi	tp,tp,1 # 1 <u_mode_trap_table-0x8000003>
 800a100:	00200293          	li	t0,2
 800a104:	fe5210e3          	bne	tp,t0,800a0e4 <test_30+0x4>
 800a108:	00100e93          	li	t4,1
 800a10c:	01e00193          	li	gp,30
 800a110:	01d70463          	beq	a4,t4,800a118 <test_31>
 800a114:	7e50706f          	j	80120f8 <fail>

000000000800a118 <test_31>:
  TEST_RR_SRC12_BYPASS( 31, 1, 0, srl, 0x01000000, 0x80000000, 7  );
 800a118:	00000213          	li	tp,0
 800a11c:	0010009b          	addiw	ra,zero,1
 800a120:	01f09093          	slli	ra,ra,0x1f
 800a124:	00000013          	nop
 800a128:	00700113          	li	sp,7
 800a12c:	0020d733          	srl	a4,ra,sp
 800a130:	00120213          	addi	tp,tp,1 # 1 <u_mode_trap_table-0x8000003>
 800a134:	00200293          	li	t0,2
 800a138:	fe5212e3          	bne	tp,t0,800a11c <test_31+0x4>
 800a13c:	01000eb7          	lui	t4,0x1000
 800a140:	01f00193          	li	gp,31
 800a144:	01d70463          	beq	a4,t4,800a14c <test_32>
 800a148:	7b10706f          	j	80120f8 <fail>

000000000800a14c <test_32>:
  TEST_RR_SRC12_BYPASS( 32, 1, 1, srl, 0x00020000, 0x80000000, 14 );
 800a14c:	00000213          	li	tp,0
 800a150:	0010009b          	addiw	ra,zero,1
 800a154:	01f09093          	slli	ra,ra,0x1f
 800a158:	00000013          	nop
 800a15c:	00e00113          	li	sp,14
 800a160:	00000013          	nop
 800a164:	0020d733          	srl	a4,ra,sp
 800a168:	00120213          	addi	tp,tp,1 # 1 <u_mode_trap_table-0x8000003>
 800a16c:	00200293          	li	t0,2
 800a170:	fe5210e3          	bne	tp,t0,800a150 <test_32+0x4>
 800a174:	00020eb7          	lui	t4,0x20
 800a178:	02000193          	li	gp,32
 800a17c:	01d70463          	beq	a4,t4,800a184 <test_33>
 800a180:	7790706f          	j	80120f8 <fail>

000000000800a184 <test_33>:
  TEST_RR_SRC12_BYPASS( 33, 2, 0, srl, 0x00000001, 0x80000000, 31 );
 800a184:	00000213          	li	tp,0
 800a188:	0010009b          	addiw	ra,zero,1
 800a18c:	01f09093          	slli	ra,ra,0x1f
 800a190:	00000013          	nop
 800a194:	00000013          	nop
 800a198:	01f00113          	li	sp,31
 800a19c:	0020d733          	srl	a4,ra,sp
 800a1a0:	00120213          	addi	tp,tp,1 # 1 <u_mode_trap_table-0x8000003>
 800a1a4:	00200293          	li	t0,2
 800a1a8:	fe5210e3          	bne	tp,t0,800a188 <test_33+0x4>
 800a1ac:	00100e93          	li	t4,1
 800a1b0:	02100193          	li	gp,33
 800a1b4:	01d70463          	beq	a4,t4,800a1bc <test_34>
 800a1b8:	7410706f          	j	80120f8 <fail>

000000000800a1bc <test_34>:

  TEST_RR_SRC21_BYPASS( 34, 0, 0, srl, 0x01000000, 0x80000000, 7  );
 800a1bc:	00000213          	li	tp,0
 800a1c0:	00700113          	li	sp,7
 800a1c4:	0010009b          	addiw	ra,zero,1
 800a1c8:	01f09093          	slli	ra,ra,0x1f
 800a1cc:	0020d733          	srl	a4,ra,sp
 800a1d0:	00120213          	addi	tp,tp,1 # 1 <u_mode_trap_table-0x8000003>
 800a1d4:	00200293          	li	t0,2
 800a1d8:	fe5214e3          	bne	tp,t0,800a1c0 <test_34+0x4>
 800a1dc:	01000eb7          	lui	t4,0x1000
 800a1e0:	02200193          	li	gp,34
 800a1e4:	01d70463          	beq	a4,t4,800a1ec <test_35>
 800a1e8:	7110706f          	j	80120f8 <fail>

000000000800a1ec <test_35>:
  TEST_RR_SRC21_BYPASS( 35, 0, 1, srl, 0x00020000, 0x80000000, 14 );
 800a1ec:	00000213          	li	tp,0
 800a1f0:	00e00113          	li	sp,14
 800a1f4:	0010009b          	addiw	ra,zero,1
 800a1f8:	01f09093          	slli	ra,ra,0x1f
 800a1fc:	00000013          	nop
 800a200:	0020d733          	srl	a4,ra,sp
 800a204:	00120213          	addi	tp,tp,1 # 1 <u_mode_trap_table-0x8000003>
 800a208:	00200293          	li	t0,2
 800a20c:	fe5212e3          	bne	tp,t0,800a1f0 <test_35+0x4>
 800a210:	00020eb7          	lui	t4,0x20
 800a214:	02300193          	li	gp,35
 800a218:	01d70463          	beq	a4,t4,800a220 <test_36>
 800a21c:	6dd0706f          	j	80120f8 <fail>

000000000800a220 <test_36>:
  TEST_RR_SRC21_BYPASS( 36, 0, 2, srl, 0x00000001, 0x80000000, 31 );
 800a220:	00000213          	li	tp,0
 800a224:	01f00113          	li	sp,31
 800a228:	0010009b          	addiw	ra,zero,1
 800a22c:	01f09093          	slli	ra,ra,0x1f
 800a230:	00000013          	nop
 800a234:	00000013          	nop
 800a238:	0020d733          	srl	a4,ra,sp
 800a23c:	00120213          	addi	tp,tp,1 # 1 <u_mode_trap_table-0x8000003>
 800a240:	00200293          	li	t0,2
 800a244:	fe5210e3          	bne	tp,t0,800a224 <test_36+0x4>
 800a248:	00100e93          	li	t4,1
 800a24c:	02400193          	li	gp,36
 800a250:	01d70463          	beq	a4,t4,800a258 <test_37>
 800a254:	6a50706f          	j	80120f8 <fail>

000000000800a258 <test_37>:
  TEST_RR_SRC21_BYPASS( 37, 1, 0, srl, 0x01000000, 0x80000000, 7  );
 800a258:	00000213          	li	tp,0
 800a25c:	00700113          	li	sp,7
 800a260:	00000013          	nop
 800a264:	0010009b          	addiw	ra,zero,1
 800a268:	01f09093          	slli	ra,ra,0x1f
 800a26c:	0020d733          	srl	a4,ra,sp
 800a270:	00120213          	addi	tp,tp,1 # 1 <u_mode_trap_table-0x8000003>
 800a274:	00200293          	li	t0,2
 800a278:	fe5212e3          	bne	tp,t0,800a25c <test_37+0x4>
 800a27c:	01000eb7          	lui	t4,0x1000
 800a280:	02500193          	li	gp,37
 800a284:	01d70463          	beq	a4,t4,800a28c <test_38>
 800a288:	6710706f          	j	80120f8 <fail>

000000000800a28c <test_38>:
  TEST_RR_SRC21_BYPASS( 38, 1, 1, srl, 0x00020000, 0x80000000, 14 );
 800a28c:	00000213          	li	tp,0
 800a290:	00e00113          	li	sp,14
 800a294:	00000013          	nop
 800a298:	0010009b          	addiw	ra,zero,1
 800a29c:	01f09093          	slli	ra,ra,0x1f
 800a2a0:	00000013          	nop
 800a2a4:	0020d733          	srl	a4,ra,sp
 800a2a8:	00120213          	addi	tp,tp,1 # 1 <u_mode_trap_table-0x8000003>
 800a2ac:	00200293          	li	t0,2
 800a2b0:	fe5210e3          	bne	tp,t0,800a290 <test_38+0x4>
 800a2b4:	00020eb7          	lui	t4,0x20
 800a2b8:	02600193          	li	gp,38
 800a2bc:	01d70463          	beq	a4,t4,800a2c4 <test_39>
 800a2c0:	6390706f          	j	80120f8 <fail>

000000000800a2c4 <test_39>:
  TEST_RR_SRC21_BYPASS( 39, 2, 0, srl, 0x00000001, 0x80000000, 31 );
 800a2c4:	00000213          	li	tp,0
 800a2c8:	01f00113          	li	sp,31
 800a2cc:	00000013          	nop
 800a2d0:	00000013          	nop
 800a2d4:	0010009b          	addiw	ra,zero,1
 800a2d8:	01f09093          	slli	ra,ra,0x1f
 800a2dc:	0020d733          	srl	a4,ra,sp
 800a2e0:	00120213          	addi	tp,tp,1 # 1 <u_mode_trap_table-0x8000003>
 800a2e4:	00200293          	li	t0,2
 800a2e8:	fe5210e3          	bne	tp,t0,800a2c8 <test_39+0x4>
 800a2ec:	00100e93          	li	t4,1
 800a2f0:	02700193          	li	gp,39
 800a2f4:	01d70463          	beq	a4,t4,800a2fc <test_40>
 800a2f8:	6010706f          	j	80120f8 <fail>

000000000800a2fc <test_40>:

  TEST_RR_ZEROSRC1( 40, srl, 0, 15 );
 800a2fc:	00f00093          	li	ra,15
 800a300:	00105133          	srl	sp,zero,ra
 800a304:	00000e93          	li	t4,0
 800a308:	02800193          	li	gp,40
 800a30c:	01d10463          	beq	sp,t4,800a314 <test_41>
 800a310:	5e90706f          	j	80120f8 <fail>

000000000800a314 <test_41>:
  TEST_RR_ZEROSRC2( 41, srl, 32, 32 );
 800a314:	02000093          	li	ra,32
 800a318:	0000d133          	srl	sp,ra,zero
 800a31c:	02000e93          	li	t4,32
 800a320:	02900193          	li	gp,41
 800a324:	01d10463          	beq	sp,t4,800a32c <test_42>
 800a328:	5d10706f          	j	80120f8 <fail>

000000000800a32c <test_42>:
  TEST_RR_ZEROSRC12( 42, srl, 0 );
 800a32c:	000050b3          	srl	ra,zero,zero
 800a330:	00000e93          	li	t4,0
 800a334:	02a00193          	li	gp,42
 800a338:	01d08463          	beq	ra,t4,800a340 <test_43>
 800a33c:	5bd0706f          	j	80120f8 <fail>

000000000800a340 <test_43>:
  TEST_RR_ZERODEST( 43, srl, 1024, 2048 );
 800a340:	40000093          	li	ra,1024
 800a344:	00001137          	lui	sp,0x1
 800a348:	8001011b          	addiw	sp,sp,-2048
 800a34c:	0020d033          	srl	zero,ra,sp
 800a350:	00000e93          	li	t4,0
 800a354:	02b00193          	li	gp,43
 800a358:	01d00463          	beq	zero,t4,800a360 <test_43+0x20>
 800a35c:	59d0706f          	j	80120f8 <fail>

  TEST_PASSFAIL

RVTEST_CODE_END
 800a360:	c0001073          	unimp

000000000800a364 <test_2>:
  #-------------------------------------------------------------

#define TEST_SRLI(n, v, a) \
  TEST_IMM_OP(n, srli, ((v) & ((1 << (__riscv_xlen-1) << 1) - 1)) >> (a), v, a)

  TEST_SRLI( 2,  0xffffffff80000000, 0  );
 800a364:	800000b7          	lui	ra,0x80000
 800a368:	0000d713          	srli	a4,ra,0x0
 800a36c:	80000eb7          	lui	t4,0x80000
 800a370:	00200193          	li	gp,2
 800a374:	01d70463          	beq	a4,t4,800a37c <test_3>
 800a378:	5810706f          	j	80120f8 <fail>

000000000800a37c <test_3>:
  TEST_SRLI( 3,  0xffffffff80000000, 1  );
 800a37c:	800000b7          	lui	ra,0x80000
 800a380:	0010d713          	srli	a4,ra,0x1
 800a384:	00100e9b          	addiw	t4,zero,1
 800a388:	021e9e93          	slli	t4,t4,0x21
 800a38c:	fffe8e93          	addi	t4,t4,-1 # ffffffff7fffffff <_end+0xffffffff77fec99f>
 800a390:	01ee9e93          	slli	t4,t4,0x1e
 800a394:	00300193          	li	gp,3
 800a398:	01d70463          	beq	a4,t4,800a3a0 <test_4>
 800a39c:	55d0706f          	j	80120f8 <fail>

000000000800a3a0 <test_4>:
  TEST_SRLI( 4,  0xffffffff80000000, 7  );
 800a3a0:	800000b7          	lui	ra,0x80000
 800a3a4:	0070d713          	srli	a4,ra,0x7
 800a3a8:	00100e9b          	addiw	t4,zero,1
 800a3ac:	021e9e93          	slli	t4,t4,0x21
 800a3b0:	fffe8e93          	addi	t4,t4,-1
 800a3b4:	018e9e93          	slli	t4,t4,0x18
 800a3b8:	00400193          	li	gp,4
 800a3bc:	01d70463          	beq	a4,t4,800a3c4 <test_5>
 800a3c0:	5390706f          	j	80120f8 <fail>

000000000800a3c4 <test_5>:
  TEST_SRLI( 5,  0xffffffff80000000, 14 );
 800a3c4:	800000b7          	lui	ra,0x80000
 800a3c8:	00e0d713          	srli	a4,ra,0xe
 800a3cc:	00100e9b          	addiw	t4,zero,1
 800a3d0:	021e9e93          	slli	t4,t4,0x21
 800a3d4:	fffe8e93          	addi	t4,t4,-1
 800a3d8:	011e9e93          	slli	t4,t4,0x11
 800a3dc:	00500193          	li	gp,5
 800a3e0:	01d70463          	beq	a4,t4,800a3e8 <test_6>
 800a3e4:	5150706f          	j	80120f8 <fail>

000000000800a3e8 <test_6>:
  TEST_SRLI( 6,  0xffffffff80000001, 31 );
 800a3e8:	800000b7          	lui	ra,0x80000
 800a3ec:	0010809b          	addiw	ra,ra,1
 800a3f0:	01f0d713          	srli	a4,ra,0x1f
 800a3f4:	00100e9b          	addiw	t4,zero,1
 800a3f8:	021e9e93          	slli	t4,t4,0x21
 800a3fc:	fffe8e93          	addi	t4,t4,-1
 800a400:	00600193          	li	gp,6
 800a404:	01d70463          	beq	a4,t4,800a40c <test_7>
 800a408:	4f10706f          	j	80120f8 <fail>

000000000800a40c <test_7>:

  TEST_SRLI( 7,  0xffffffffffffffff, 0  );
 800a40c:	fff00093          	li	ra,-1
 800a410:	0000d713          	srli	a4,ra,0x0
 800a414:	fff00e93          	li	t4,-1
 800a418:	00700193          	li	gp,7
 800a41c:	01d70463          	beq	a4,t4,800a424 <test_8>
 800a420:	4d90706f          	j	80120f8 <fail>

000000000800a424 <test_8>:
  TEST_SRLI( 8,  0xffffffffffffffff, 1  );
 800a424:	fff00093          	li	ra,-1
 800a428:	0010d713          	srli	a4,ra,0x1
 800a42c:	fff00e9b          	addiw	t4,zero,-1
 800a430:	03fe9e93          	slli	t4,t4,0x3f
 800a434:	fffe8e93          	addi	t4,t4,-1
 800a438:	00800193          	li	gp,8
 800a43c:	01d70463          	beq	a4,t4,800a444 <test_9>
 800a440:	4b90706f          	j	80120f8 <fail>

000000000800a444 <test_9>:
  TEST_SRLI( 9,  0xffffffffffffffff, 7  );
 800a444:	fff00093          	li	ra,-1
 800a448:	0070d713          	srli	a4,ra,0x7
 800a44c:	00100e9b          	addiw	t4,zero,1
 800a450:	039e9e93          	slli	t4,t4,0x39
 800a454:	fffe8e93          	addi	t4,t4,-1
 800a458:	00900193          	li	gp,9
 800a45c:	01d70463          	beq	a4,t4,800a464 <test_10>
 800a460:	4990706f          	j	80120f8 <fail>

000000000800a464 <test_10>:
  TEST_SRLI( 10, 0xffffffffffffffff, 14 );
 800a464:	fff00093          	li	ra,-1
 800a468:	00e0d713          	srli	a4,ra,0xe
 800a46c:	00100e9b          	addiw	t4,zero,1
 800a470:	032e9e93          	slli	t4,t4,0x32
 800a474:	fffe8e93          	addi	t4,t4,-1
 800a478:	00a00193          	li	gp,10
 800a47c:	01d70463          	beq	a4,t4,800a484 <test_11>
 800a480:	4790706f          	j	80120f8 <fail>

000000000800a484 <test_11>:
  TEST_SRLI( 11, 0xffffffffffffffff, 31 );
 800a484:	fff00093          	li	ra,-1
 800a488:	01f0d713          	srli	a4,ra,0x1f
 800a48c:	00100e9b          	addiw	t4,zero,1
 800a490:	021e9e93          	slli	t4,t4,0x21
 800a494:	fffe8e93          	addi	t4,t4,-1
 800a498:	00b00193          	li	gp,11
 800a49c:	01d70463          	beq	a4,t4,800a4a4 <test_12>
 800a4a0:	4590706f          	j	80120f8 <fail>

000000000800a4a4 <test_12>:

  TEST_SRLI( 12, 0x0000000021212121, 0  );
 800a4a4:	212120b7          	lui	ra,0x21212
 800a4a8:	1210809b          	addiw	ra,ra,289
 800a4ac:	0000d713          	srli	a4,ra,0x0
 800a4b0:	21212eb7          	lui	t4,0x21212
 800a4b4:	121e8e9b          	addiw	t4,t4,289
 800a4b8:	00c00193          	li	gp,12
 800a4bc:	01d70463          	beq	a4,t4,800a4c4 <test_13>
 800a4c0:	4390706f          	j	80120f8 <fail>

000000000800a4c4 <test_13>:
  TEST_SRLI( 13, 0x0000000021212121, 1  );
 800a4c4:	212120b7          	lui	ra,0x21212
 800a4c8:	1210809b          	addiw	ra,ra,289
 800a4cc:	0010d713          	srli	a4,ra,0x1
 800a4d0:	10909eb7          	lui	t4,0x10909
 800a4d4:	090e8e9b          	addiw	t4,t4,144
 800a4d8:	00d00193          	li	gp,13
 800a4dc:	01d70463          	beq	a4,t4,800a4e4 <test_14>
 800a4e0:	4190706f          	j	80120f8 <fail>

000000000800a4e4 <test_14>:
  TEST_SRLI( 14, 0x0000000021212121, 7  );
 800a4e4:	212120b7          	lui	ra,0x21212
 800a4e8:	1210809b          	addiw	ra,ra,289
 800a4ec:	0070d713          	srli	a4,ra,0x7
 800a4f0:	00424eb7          	lui	t4,0x424
 800a4f4:	242e8e9b          	addiw	t4,t4,578
 800a4f8:	00e00193          	li	gp,14
 800a4fc:	01d70463          	beq	a4,t4,800a504 <test_15>
 800a500:	3f90706f          	j	80120f8 <fail>

000000000800a504 <test_15>:
  TEST_SRLI( 15, 0x0000000021212121, 14 );
 800a504:	212120b7          	lui	ra,0x21212
 800a508:	1210809b          	addiw	ra,ra,289
 800a50c:	00e0d713          	srli	a4,ra,0xe
 800a510:	00008eb7          	lui	t4,0x8
 800a514:	484e8e9b          	addiw	t4,t4,1156
 800a518:	00f00193          	li	gp,15
 800a51c:	01d70463          	beq	a4,t4,800a524 <test_16>
 800a520:	3d90706f          	j	80120f8 <fail>

000000000800a524 <test_16>:
  TEST_SRLI( 16, 0x0000000021212121, 31 );
 800a524:	212120b7          	lui	ra,0x21212
 800a528:	1210809b          	addiw	ra,ra,289
 800a52c:	01f0d713          	srli	a4,ra,0x1f
 800a530:	00000e93          	li	t4,0
 800a534:	01000193          	li	gp,16
 800a538:	01d70463          	beq	a4,t4,800a540 <test_17>
 800a53c:	3bd0706f          	j	80120f8 <fail>

000000000800a540 <test_17>:

  #-------------------------------------------------------------
  # Source/Destination tests
  #-------------------------------------------------------------

  TEST_IMM_SRC1_EQ_DEST( 17, srli, 0x01000000, 0x80000000, 7 );
 800a540:	0010009b          	addiw	ra,zero,1
 800a544:	01f09093          	slli	ra,ra,0x1f
 800a548:	0070d093          	srli	ra,ra,0x7
 800a54c:	01000eb7          	lui	t4,0x1000
 800a550:	01100193          	li	gp,17
 800a554:	01d08463          	beq	ra,t4,800a55c <test_18>
 800a558:	3a10706f          	j	80120f8 <fail>

000000000800a55c <test_18>:

  #-------------------------------------------------------------
  # Bypassing tests
  #-------------------------------------------------------------

  TEST_IMM_DEST_BYPASS( 18, 0, srli, 0x01000000, 0x80000000, 7  );
 800a55c:	00000213          	li	tp,0
 800a560:	0010009b          	addiw	ra,zero,1
 800a564:	01f09093          	slli	ra,ra,0x1f
 800a568:	0070d713          	srli	a4,ra,0x7
 800a56c:	00070313          	mv	t1,a4
 800a570:	00120213          	addi	tp,tp,1 # 1 <u_mode_trap_table-0x8000003>
 800a574:	00200293          	li	t0,2
 800a578:	fe5214e3          	bne	tp,t0,800a560 <test_18+0x4>
 800a57c:	01000eb7          	lui	t4,0x1000
 800a580:	01200193          	li	gp,18
 800a584:	01d30463          	beq	t1,t4,800a58c <test_19>
 800a588:	3710706f          	j	80120f8 <fail>

000000000800a58c <test_19>:
  TEST_IMM_DEST_BYPASS( 19, 1, srli, 0x00020000, 0x80000000, 14 );
 800a58c:	00000213          	li	tp,0
 800a590:	0010009b          	addiw	ra,zero,1
 800a594:	01f09093          	slli	ra,ra,0x1f
 800a598:	00e0d713          	srli	a4,ra,0xe
 800a59c:	00000013          	nop
 800a5a0:	00070313          	mv	t1,a4
 800a5a4:	00120213          	addi	tp,tp,1 # 1 <u_mode_trap_table-0x8000003>
 800a5a8:	00200293          	li	t0,2
 800a5ac:	fe5212e3          	bne	tp,t0,800a590 <test_19+0x4>
 800a5b0:	00020eb7          	lui	t4,0x20
 800a5b4:	01300193          	li	gp,19
 800a5b8:	01d30463          	beq	t1,t4,800a5c0 <test_20>
 800a5bc:	33d0706f          	j	80120f8 <fail>

000000000800a5c0 <test_20>:
  TEST_IMM_DEST_BYPASS( 20, 2, srli, 0x00000001, 0x80000001, 31 );
 800a5c0:	00000213          	li	tp,0
 800a5c4:	0010009b          	addiw	ra,zero,1
 800a5c8:	01f09093          	slli	ra,ra,0x1f
 800a5cc:	00108093          	addi	ra,ra,1 # 21212001 <_end+0x191fe9a1>
 800a5d0:	01f0d713          	srli	a4,ra,0x1f
 800a5d4:	00000013          	nop
 800a5d8:	00000013          	nop
 800a5dc:	00070313          	mv	t1,a4
 800a5e0:	00120213          	addi	tp,tp,1 # 1 <u_mode_trap_table-0x8000003>
 800a5e4:	00200293          	li	t0,2
 800a5e8:	fc521ee3          	bne	tp,t0,800a5c4 <test_20+0x4>
 800a5ec:	00100e93          	li	t4,1
 800a5f0:	01400193          	li	gp,20
 800a5f4:	01d30463          	beq	t1,t4,800a5fc <test_21>
 800a5f8:	3010706f          	j	80120f8 <fail>

000000000800a5fc <test_21>:

  TEST_IMM_SRC1_BYPASS( 21, 0, srli, 0x01000000, 0x80000000, 7  );
 800a5fc:	00000213          	li	tp,0
 800a600:	0010009b          	addiw	ra,zero,1
 800a604:	01f09093          	slli	ra,ra,0x1f
 800a608:	0070d713          	srli	a4,ra,0x7
 800a60c:	00120213          	addi	tp,tp,1 # 1 <u_mode_trap_table-0x8000003>
 800a610:	00200293          	li	t0,2
 800a614:	fe5216e3          	bne	tp,t0,800a600 <test_21+0x4>
 800a618:	01000eb7          	lui	t4,0x1000
 800a61c:	01500193          	li	gp,21
 800a620:	01d70463          	beq	a4,t4,800a628 <test_22>
 800a624:	2d50706f          	j	80120f8 <fail>

000000000800a628 <test_22>:
  TEST_IMM_SRC1_BYPASS( 22, 1, srli, 0x00020000, 0x80000000, 14 );
 800a628:	00000213          	li	tp,0
 800a62c:	0010009b          	addiw	ra,zero,1
 800a630:	01f09093          	slli	ra,ra,0x1f
 800a634:	00000013          	nop
 800a638:	00e0d713          	srli	a4,ra,0xe
 800a63c:	00120213          	addi	tp,tp,1 # 1 <u_mode_trap_table-0x8000003>
 800a640:	00200293          	li	t0,2
 800a644:	fe5214e3          	bne	tp,t0,800a62c <test_22+0x4>
 800a648:	00020eb7          	lui	t4,0x20
 800a64c:	01600193          	li	gp,22
 800a650:	01d70463          	beq	a4,t4,800a658 <test_23>
 800a654:	2a50706f          	j	80120f8 <fail>

000000000800a658 <test_23>:
  TEST_IMM_SRC1_BYPASS( 23, 2, srli, 0x00000001, 0x80000001, 31 );
 800a658:	00000213          	li	tp,0
 800a65c:	0010009b          	addiw	ra,zero,1
 800a660:	01f09093          	slli	ra,ra,0x1f
 800a664:	00108093          	addi	ra,ra,1
 800a668:	00000013          	nop
 800a66c:	00000013          	nop
 800a670:	01f0d713          	srli	a4,ra,0x1f
 800a674:	00120213          	addi	tp,tp,1 # 1 <u_mode_trap_table-0x8000003>
 800a678:	00200293          	li	t0,2
 800a67c:	fe5210e3          	bne	tp,t0,800a65c <test_23+0x4>
 800a680:	00100e93          	li	t4,1
 800a684:	01700193          	li	gp,23
 800a688:	01d70463          	beq	a4,t4,800a690 <test_24>
 800a68c:	26d0706f          	j	80120f8 <fail>

000000000800a690 <test_24>:

  TEST_IMM_ZEROSRC1( 24, srli, 0, 4 );
 800a690:	00405093          	srli	ra,zero,0x4
 800a694:	00000e93          	li	t4,0
 800a698:	01800193          	li	gp,24
 800a69c:	01d08463          	beq	ra,t4,800a6a4 <test_25>
 800a6a0:	2590706f          	j	80120f8 <fail>

000000000800a6a4 <test_25>:
  TEST_IMM_ZERODEST( 25, srli, 33, 10 );
 800a6a4:	02100093          	li	ra,33
 800a6a8:	00a0d013          	srli	zero,ra,0xa
 800a6ac:	00000e93          	li	t4,0
 800a6b0:	01900193          	li	gp,25
 800a6b4:	01d00463          	beq	zero,t4,800a6bc <test_25+0x18>
 800a6b8:	2410706f          	j	80120f8 <fail>

  TEST_PASSFAIL

RVTEST_CODE_END
 800a6bc:	c0001073          	unimp

000000000800a6c0 <test_2>:

  #-------------------------------------------------------------
  # Arithmetic tests
  #-------------------------------------------------------------

  TEST_IMM_OP( 2,  srliw, 0xffffffff80000000, 0xffffffff80000000, 0  );
 800a6c0:	800000b7          	lui	ra,0x80000
 800a6c4:	0000d71b          	srliw	a4,ra,0x0
 800a6c8:	80000eb7          	lui	t4,0x80000
 800a6cc:	00200193          	li	gp,2
 800a6d0:	01d70463          	beq	a4,t4,800a6d8 <test_3>
 800a6d4:	2250706f          	j	80120f8 <fail>

000000000800a6d8 <test_3>:
  TEST_IMM_OP( 3,  srliw, 0x0000000040000000, 0xffffffff80000000, 1  );
 800a6d8:	800000b7          	lui	ra,0x80000
 800a6dc:	0010d71b          	srliw	a4,ra,0x1
 800a6e0:	40000eb7          	lui	t4,0x40000
 800a6e4:	00300193          	li	gp,3
 800a6e8:	01d70463          	beq	a4,t4,800a6f0 <test_4>
 800a6ec:	20d0706f          	j	80120f8 <fail>

000000000800a6f0 <test_4>:
  TEST_IMM_OP( 4,  srliw, 0x0000000001000000, 0xffffffff80000000, 7  );
 800a6f0:	800000b7          	lui	ra,0x80000
 800a6f4:	0070d71b          	srliw	a4,ra,0x7
 800a6f8:	01000eb7          	lui	t4,0x1000
 800a6fc:	00400193          	li	gp,4
 800a700:	01d70463          	beq	a4,t4,800a708 <test_5>
 800a704:	1f50706f          	j	80120f8 <fail>

000000000800a708 <test_5>:
  TEST_IMM_OP( 5,  srliw, 0x0000000000020000, 0xffffffff80000000, 14 );
 800a708:	800000b7          	lui	ra,0x80000
 800a70c:	00e0d71b          	srliw	a4,ra,0xe
 800a710:	00020eb7          	lui	t4,0x20
 800a714:	00500193          	li	gp,5
 800a718:	01d70463          	beq	a4,t4,800a720 <test_6>
 800a71c:	1dd0706f          	j	80120f8 <fail>

000000000800a720 <test_6>:
  TEST_IMM_OP( 6,  srliw, 0x0000000000000001, 0xffffffff80000001, 31 );
 800a720:	800000b7          	lui	ra,0x80000
 800a724:	0010809b          	addiw	ra,ra,1
 800a728:	01f0d71b          	srliw	a4,ra,0x1f
 800a72c:	00100e93          	li	t4,1
 800a730:	00600193          	li	gp,6
 800a734:	01d70463          	beq	a4,t4,800a73c <test_7>
 800a738:	1c10706f          	j	80120f8 <fail>

000000000800a73c <test_7>:

  TEST_IMM_OP( 7,  srliw, 0xffffffffffffffff, 0xffffffffffffffff, 0  );
 800a73c:	fff00093          	li	ra,-1
 800a740:	0000d71b          	srliw	a4,ra,0x0
 800a744:	fff00e93          	li	t4,-1
 800a748:	00700193          	li	gp,7
 800a74c:	01d70463          	beq	a4,t4,800a754 <test_8>
 800a750:	1a90706f          	j	80120f8 <fail>

000000000800a754 <test_8>:
  TEST_IMM_OP( 8,  srliw, 0x000000007fffffff, 0xffffffffffffffff, 1  );
 800a754:	fff00093          	li	ra,-1
 800a758:	0010d71b          	srliw	a4,ra,0x1
 800a75c:	80000eb7          	lui	t4,0x80000
 800a760:	fffe8e9b          	addiw	t4,t4,-1
 800a764:	00800193          	li	gp,8
 800a768:	01d70463          	beq	a4,t4,800a770 <test_9>
 800a76c:	18d0706f          	j	80120f8 <fail>

000000000800a770 <test_9>:
  TEST_IMM_OP( 9,  srliw, 0x0000000001ffffff, 0xffffffffffffffff, 7  );
 800a770:	fff00093          	li	ra,-1
 800a774:	0070d71b          	srliw	a4,ra,0x7
 800a778:	02000eb7          	lui	t4,0x2000
 800a77c:	fffe8e9b          	addiw	t4,t4,-1
 800a780:	00900193          	li	gp,9
 800a784:	01d70463          	beq	a4,t4,800a78c <test_10>
 800a788:	1710706f          	j	80120f8 <fail>

000000000800a78c <test_10>:
  TEST_IMM_OP( 10, srliw, 0x000000000003ffff, 0xffffffffffffffff, 14 );
 800a78c:	fff00093          	li	ra,-1
 800a790:	00e0d71b          	srliw	a4,ra,0xe
 800a794:	00040eb7          	lui	t4,0x40
 800a798:	fffe8e9b          	addiw	t4,t4,-1
 800a79c:	00a00193          	li	gp,10
 800a7a0:	01d70463          	beq	a4,t4,800a7a8 <test_11>
 800a7a4:	1550706f          	j	80120f8 <fail>

000000000800a7a8 <test_11>:
  TEST_IMM_OP( 11, srliw, 0x0000000000000001, 0xffffffffffffffff, 31 );
 800a7a8:	fff00093          	li	ra,-1
 800a7ac:	01f0d71b          	srliw	a4,ra,0x1f
 800a7b0:	00100e93          	li	t4,1
 800a7b4:	00b00193          	li	gp,11
 800a7b8:	01d70463          	beq	a4,t4,800a7c0 <test_12>
 800a7bc:	13d0706f          	j	80120f8 <fail>

000000000800a7c0 <test_12>:

  TEST_IMM_OP( 12, srliw, 0x0000000021212121, 0x0000000021212121, 0  );
 800a7c0:	212120b7          	lui	ra,0x21212
 800a7c4:	1210809b          	addiw	ra,ra,289
 800a7c8:	0000d71b          	srliw	a4,ra,0x0
 800a7cc:	21212eb7          	lui	t4,0x21212
 800a7d0:	121e8e9b          	addiw	t4,t4,289
 800a7d4:	00c00193          	li	gp,12
 800a7d8:	01d70463          	beq	a4,t4,800a7e0 <test_13>
 800a7dc:	11d0706f          	j	80120f8 <fail>

000000000800a7e0 <test_13>:
  TEST_IMM_OP( 13, srliw, 0x0000000010909090, 0x0000000021212121, 1  );
 800a7e0:	212120b7          	lui	ra,0x21212
 800a7e4:	1210809b          	addiw	ra,ra,289
 800a7e8:	0010d71b          	srliw	a4,ra,0x1
 800a7ec:	10909eb7          	lui	t4,0x10909
 800a7f0:	090e8e9b          	addiw	t4,t4,144
 800a7f4:	00d00193          	li	gp,13
 800a7f8:	01d70463          	beq	a4,t4,800a800 <test_14>
 800a7fc:	0fd0706f          	j	80120f8 <fail>

000000000800a800 <test_14>:
  TEST_IMM_OP( 14, srliw, 0x0000000000424242, 0x0000000021212121, 7  );
 800a800:	212120b7          	lui	ra,0x21212
 800a804:	1210809b          	addiw	ra,ra,289
 800a808:	0070d71b          	srliw	a4,ra,0x7
 800a80c:	00424eb7          	lui	t4,0x424
 800a810:	242e8e9b          	addiw	t4,t4,578
 800a814:	00e00193          	li	gp,14
 800a818:	01d70463          	beq	a4,t4,800a820 <test_15>
 800a81c:	0dd0706f          	j	80120f8 <fail>

000000000800a820 <test_15>:
  TEST_IMM_OP( 15, srliw, 0x0000000000008484, 0x0000000021212121, 14 );
 800a820:	212120b7          	lui	ra,0x21212
 800a824:	1210809b          	addiw	ra,ra,289
 800a828:	00e0d71b          	srliw	a4,ra,0xe
 800a82c:	00008eb7          	lui	t4,0x8
 800a830:	484e8e9b          	addiw	t4,t4,1156
 800a834:	00f00193          	li	gp,15
 800a838:	01d70463          	beq	a4,t4,800a840 <test_16>
 800a83c:	0bd0706f          	j	80120f8 <fail>

000000000800a840 <test_16>:
  TEST_IMM_OP( 16, srliw, 0x0000000000000000, 0x0000000021212121, 31 );
 800a840:	212120b7          	lui	ra,0x21212
 800a844:	1210809b          	addiw	ra,ra,289
 800a848:	01f0d71b          	srliw	a4,ra,0x1f
 800a84c:	00000e93          	li	t4,0
 800a850:	01000193          	li	gp,16
 800a854:	01d70463          	beq	a4,t4,800a85c <test_44>
 800a858:	0a10706f          	j	80120f8 <fail>

000000000800a85c <test_44>:

  # Verify that shifts ignore top 32 (using true 64-bit values)

  TEST_IMM_OP( 44, srliw, 0x0000000012345678, 0xffffffff12345678, 0 );
 800a85c:	fff120b7          	lui	ra,0xfff12
 800a860:	3450809b          	addiw	ra,ra,837
 800a864:	00c09093          	slli	ra,ra,0xc
 800a868:	67808093          	addi	ra,ra,1656 # fffffffffff12678 <_end+0xfffffffff7eff018>
 800a86c:	0000d71b          	srliw	a4,ra,0x0
 800a870:	12345eb7          	lui	t4,0x12345
 800a874:	678e8e9b          	addiw	t4,t4,1656
 800a878:	02c00193          	li	gp,44
 800a87c:	01d70463          	beq	a4,t4,800a884 <test_45>
 800a880:	0790706f          	j	80120f8 <fail>

000000000800a884 <test_45>:
  TEST_IMM_OP( 45, srliw, 0x0000000001234567, 0xffffffff12345678, 4 );
 800a884:	fff120b7          	lui	ra,0xfff12
 800a888:	3450809b          	addiw	ra,ra,837
 800a88c:	00c09093          	slli	ra,ra,0xc
 800a890:	67808093          	addi	ra,ra,1656 # fffffffffff12678 <_end+0xfffffffff7eff018>
 800a894:	0040d71b          	srliw	a4,ra,0x4
 800a898:	01234eb7          	lui	t4,0x1234
 800a89c:	567e8e9b          	addiw	t4,t4,1383
 800a8a0:	02d00193          	li	gp,45
 800a8a4:	01d70463          	beq	a4,t4,800a8ac <test_46>
 800a8a8:	0510706f          	j	80120f8 <fail>

000000000800a8ac <test_46>:
  TEST_IMM_OP( 46, srliw, 0xffffffff92345678, 0x0000000092345678, 0 );
 800a8ac:	000920b7          	lui	ra,0x92
 800a8b0:	3450809b          	addiw	ra,ra,837
 800a8b4:	00c09093          	slli	ra,ra,0xc
 800a8b8:	67808093          	addi	ra,ra,1656 # 92678 <u_mode_trap_table-0x7f6d98c>
 800a8bc:	0000d71b          	srliw	a4,ra,0x0
 800a8c0:	92345eb7          	lui	t4,0x92345
 800a8c4:	678e8e9b          	addiw	t4,t4,1656
 800a8c8:	02e00193          	li	gp,46
 800a8cc:	01d70463          	beq	a4,t4,800a8d4 <test_47>
 800a8d0:	0290706f          	j	80120f8 <fail>

000000000800a8d4 <test_47>:
  TEST_IMM_OP( 47, srliw, 0x0000000009234567, 0x0000000092345678, 4 );
 800a8d4:	000920b7          	lui	ra,0x92
 800a8d8:	3450809b          	addiw	ra,ra,837
 800a8dc:	00c09093          	slli	ra,ra,0xc
 800a8e0:	67808093          	addi	ra,ra,1656 # 92678 <u_mode_trap_table-0x7f6d98c>
 800a8e4:	0040d71b          	srliw	a4,ra,0x4
 800a8e8:	09234eb7          	lui	t4,0x9234
 800a8ec:	567e8e9b          	addiw	t4,t4,1383
 800a8f0:	02f00193          	li	gp,47
 800a8f4:	01d70463          	beq	a4,t4,800a8fc <test_17>
 800a8f8:	0010706f          	j	80120f8 <fail>

000000000800a8fc <test_17>:

  #-------------------------------------------------------------
  # Source/Destination tests
  #-------------------------------------------------------------

  TEST_IMM_SRC1_EQ_DEST( 17, srliw, 0x0000000001000000, 0xffffffff80000000, 7 );
 800a8fc:	800000b7          	lui	ra,0x80000
 800a900:	0070d09b          	srliw	ra,ra,0x7
 800a904:	01000eb7          	lui	t4,0x1000
 800a908:	01100193          	li	gp,17
 800a90c:	01d08463          	beq	ra,t4,800a914 <test_18>
 800a910:	7e80706f          	j	80120f8 <fail>

000000000800a914 <test_18>:

  #-------------------------------------------------------------
  # Bypassing tests
  #-------------------------------------------------------------

  TEST_IMM_DEST_BYPASS( 18, 0, srliw, 0x0000000001000000, 0xffffffff80000000, 7  );
 800a914:	00000213          	li	tp,0
 800a918:	800000b7          	lui	ra,0x80000
 800a91c:	0070d71b          	srliw	a4,ra,0x7
 800a920:	00070313          	mv	t1,a4
 800a924:	00120213          	addi	tp,tp,1 # 1 <u_mode_trap_table-0x8000003>
 800a928:	00200293          	li	t0,2
 800a92c:	fe5216e3          	bne	tp,t0,800a918 <test_18+0x4>
 800a930:	01000eb7          	lui	t4,0x1000
 800a934:	01200193          	li	gp,18
 800a938:	01d30463          	beq	t1,t4,800a940 <test_19>
 800a93c:	7bc0706f          	j	80120f8 <fail>

000000000800a940 <test_19>:
  TEST_IMM_DEST_BYPASS( 19, 1, srliw, 0x0000000000020000, 0xffffffff80000000, 14 );
 800a940:	00000213          	li	tp,0
 800a944:	800000b7          	lui	ra,0x80000
 800a948:	00e0d71b          	srliw	a4,ra,0xe
 800a94c:	00000013          	nop
 800a950:	00070313          	mv	t1,a4
 800a954:	00120213          	addi	tp,tp,1 # 1 <u_mode_trap_table-0x8000003>
 800a958:	00200293          	li	t0,2
 800a95c:	fe5214e3          	bne	tp,t0,800a944 <test_19+0x4>
 800a960:	00020eb7          	lui	t4,0x20
 800a964:	01300193          	li	gp,19
 800a968:	01d30463          	beq	t1,t4,800a970 <test_20>
 800a96c:	78c0706f          	j	80120f8 <fail>

000000000800a970 <test_20>:
  TEST_IMM_DEST_BYPASS( 20, 2, srliw, 0x0000000000000001, 0xffffffff80000001, 31 );
 800a970:	00000213          	li	tp,0
 800a974:	800000b7          	lui	ra,0x80000
 800a978:	0010809b          	addiw	ra,ra,1
 800a97c:	01f0d71b          	srliw	a4,ra,0x1f
 800a980:	00000013          	nop
 800a984:	00000013          	nop
 800a988:	00070313          	mv	t1,a4
 800a98c:	00120213          	addi	tp,tp,1 # 1 <u_mode_trap_table-0x8000003>
 800a990:	00200293          	li	t0,2
 800a994:	fe5210e3          	bne	tp,t0,800a974 <test_20+0x4>
 800a998:	00100e93          	li	t4,1
 800a99c:	01400193          	li	gp,20
 800a9a0:	01d30463          	beq	t1,t4,800a9a8 <test_21>
 800a9a4:	7540706f          	j	80120f8 <fail>

000000000800a9a8 <test_21>:

  TEST_IMM_SRC1_BYPASS( 21, 0, srliw, 0x0000000001000000, 0xffffffff80000000, 7  );
 800a9a8:	00000213          	li	tp,0
 800a9ac:	800000b7          	lui	ra,0x80000
 800a9b0:	0070d71b          	srliw	a4,ra,0x7
 800a9b4:	00120213          	addi	tp,tp,1 # 1 <u_mode_trap_table-0x8000003>
 800a9b8:	00200293          	li	t0,2
 800a9bc:	fe5218e3          	bne	tp,t0,800a9ac <test_21+0x4>
 800a9c0:	01000eb7          	lui	t4,0x1000
 800a9c4:	01500193          	li	gp,21
 800a9c8:	01d70463          	beq	a4,t4,800a9d0 <test_22>
 800a9cc:	72c0706f          	j	80120f8 <fail>

000000000800a9d0 <test_22>:
  TEST_IMM_SRC1_BYPASS( 22, 1, srliw, 0x0000000000020000, 0xffffffff80000000, 14 );
 800a9d0:	00000213          	li	tp,0
 800a9d4:	800000b7          	lui	ra,0x80000
 800a9d8:	00000013          	nop
 800a9dc:	00e0d71b          	srliw	a4,ra,0xe
 800a9e0:	00120213          	addi	tp,tp,1 # 1 <u_mode_trap_table-0x8000003>
 800a9e4:	00200293          	li	t0,2
 800a9e8:	fe5216e3          	bne	tp,t0,800a9d4 <test_22+0x4>
 800a9ec:	00020eb7          	lui	t4,0x20
 800a9f0:	01600193          	li	gp,22
 800a9f4:	01d70463          	beq	a4,t4,800a9fc <test_23>
 800a9f8:	7000706f          	j	80120f8 <fail>

000000000800a9fc <test_23>:
  TEST_IMM_SRC1_BYPASS( 23, 2, srliw, 0x0000000000000001, 0xffffffff80000001, 31 );
 800a9fc:	00000213          	li	tp,0
 800aa00:	800000b7          	lui	ra,0x80000
 800aa04:	0010809b          	addiw	ra,ra,1
 800aa08:	00000013          	nop
 800aa0c:	00000013          	nop
 800aa10:	01f0d71b          	srliw	a4,ra,0x1f
 800aa14:	00120213          	addi	tp,tp,1 # 1 <u_mode_trap_table-0x8000003>
 800aa18:	00200293          	li	t0,2
 800aa1c:	fe5212e3          	bne	tp,t0,800aa00 <test_23+0x4>
 800aa20:	00100e93          	li	t4,1
 800aa24:	01700193          	li	gp,23
 800aa28:	01d70463          	beq	a4,t4,800aa30 <test_24>
 800aa2c:	6cc0706f          	j	80120f8 <fail>

000000000800aa30 <test_24>:

  TEST_IMM_ZEROSRC1( 24, srliw, 0, 31 );
 800aa30:	01f0509b          	srliw	ra,zero,0x1f
 800aa34:	00000e93          	li	t4,0
 800aa38:	01800193          	li	gp,24
 800aa3c:	01d08463          	beq	ra,t4,800aa44 <test_25>
 800aa40:	6b80706f          	j	80120f8 <fail>

000000000800aa44 <test_25>:
  TEST_IMM_ZERODEST( 25, srliw, 31, 28 );
 800aa44:	01f00093          	li	ra,31
 800aa48:	01c0d01b          	srliw	zero,ra,0x1c
 800aa4c:	00000e93          	li	t4,0
 800aa50:	01900193          	li	gp,25
 800aa54:	01d00463          	beq	zero,t4,800aa5c <test_25+0x18>
 800aa58:	6a00706f          	j	80120f8 <fail>

  TEST_PASSFAIL

RVTEST_CODE_END
 800aa5c:	c0001073          	unimp

000000000800aa60 <test_2>:

  #-------------------------------------------------------------
  # Arithmetic tests
  #-------------------------------------------------------------

  TEST_RR_OP( 2,  srlw, 0xffffffff80000000, 0xffffffff80000000, 0  );
 800aa60:	800000b7          	lui	ra,0x80000
 800aa64:	00000113          	li	sp,0
 800aa68:	0020d73b          	srlw	a4,ra,sp
 800aa6c:	80000eb7          	lui	t4,0x80000
 800aa70:	00200193          	li	gp,2
 800aa74:	01d70463          	beq	a4,t4,800aa7c <test_3>
 800aa78:	6800706f          	j	80120f8 <fail>

000000000800aa7c <test_3>:
  TEST_RR_OP( 3,  srlw, 0x0000000040000000, 0xffffffff80000000, 1  );
 800aa7c:	800000b7          	lui	ra,0x80000
 800aa80:	00100113          	li	sp,1
 800aa84:	0020d73b          	srlw	a4,ra,sp
 800aa88:	40000eb7          	lui	t4,0x40000
 800aa8c:	00300193          	li	gp,3
 800aa90:	01d70463          	beq	a4,t4,800aa98 <test_4>
 800aa94:	6640706f          	j	80120f8 <fail>

000000000800aa98 <test_4>:
  TEST_RR_OP( 4,  srlw, 0x0000000001000000, 0xffffffff80000000, 7  );
 800aa98:	800000b7          	lui	ra,0x80000
 800aa9c:	00700113          	li	sp,7
 800aaa0:	0020d73b          	srlw	a4,ra,sp
 800aaa4:	01000eb7          	lui	t4,0x1000
 800aaa8:	00400193          	li	gp,4
 800aaac:	01d70463          	beq	a4,t4,800aab4 <test_5>
 800aab0:	6480706f          	j	80120f8 <fail>

000000000800aab4 <test_5>:
  TEST_RR_OP( 5,  srlw, 0x0000000000020000, 0xffffffff80000000, 14 );
 800aab4:	800000b7          	lui	ra,0x80000
 800aab8:	00e00113          	li	sp,14
 800aabc:	0020d73b          	srlw	a4,ra,sp
 800aac0:	00020eb7          	lui	t4,0x20
 800aac4:	00500193          	li	gp,5
 800aac8:	01d70463          	beq	a4,t4,800aad0 <test_6>
 800aacc:	62c0706f          	j	80120f8 <fail>

000000000800aad0 <test_6>:
  TEST_RR_OP( 6,  srlw, 0x0000000000000001, 0xffffffff80000001, 31 );
 800aad0:	800000b7          	lui	ra,0x80000
 800aad4:	0010809b          	addiw	ra,ra,1
 800aad8:	01f00113          	li	sp,31
 800aadc:	0020d73b          	srlw	a4,ra,sp
 800aae0:	00100e93          	li	t4,1
 800aae4:	00600193          	li	gp,6
 800aae8:	01d70463          	beq	a4,t4,800aaf0 <test_7>
 800aaec:	60c0706f          	j	80120f8 <fail>

000000000800aaf0 <test_7>:

  TEST_RR_OP( 7,  srlw, 0xffffffffffffffff, 0xffffffffffffffff, 0  );
 800aaf0:	fff00093          	li	ra,-1
 800aaf4:	00000113          	li	sp,0
 800aaf8:	0020d73b          	srlw	a4,ra,sp
 800aafc:	fff00e93          	li	t4,-1
 800ab00:	00700193          	li	gp,7
 800ab04:	01d70463          	beq	a4,t4,800ab0c <test_8>
 800ab08:	5f00706f          	j	80120f8 <fail>

000000000800ab0c <test_8>:
  TEST_RR_OP( 8,  srlw, 0x000000007fffffff, 0xffffffffffffffff, 1  );
 800ab0c:	fff00093          	li	ra,-1
 800ab10:	00100113          	li	sp,1
 800ab14:	0020d73b          	srlw	a4,ra,sp
 800ab18:	80000eb7          	lui	t4,0x80000
 800ab1c:	fffe8e9b          	addiw	t4,t4,-1
 800ab20:	00800193          	li	gp,8
 800ab24:	01d70463          	beq	a4,t4,800ab2c <test_9>
 800ab28:	5d00706f          	j	80120f8 <fail>

000000000800ab2c <test_9>:
  TEST_RR_OP( 9,  srlw, 0x0000000001ffffff, 0xffffffffffffffff, 7  );
 800ab2c:	fff00093          	li	ra,-1
 800ab30:	00700113          	li	sp,7
 800ab34:	0020d73b          	srlw	a4,ra,sp
 800ab38:	02000eb7          	lui	t4,0x2000
 800ab3c:	fffe8e9b          	addiw	t4,t4,-1
 800ab40:	00900193          	li	gp,9
 800ab44:	01d70463          	beq	a4,t4,800ab4c <test_10>
 800ab48:	5b00706f          	j	80120f8 <fail>

000000000800ab4c <test_10>:
  TEST_RR_OP( 10, srlw, 0x000000000003ffff, 0xffffffffffffffff, 14 );
 800ab4c:	fff00093          	li	ra,-1
 800ab50:	00e00113          	li	sp,14
 800ab54:	0020d73b          	srlw	a4,ra,sp
 800ab58:	00040eb7          	lui	t4,0x40
 800ab5c:	fffe8e9b          	addiw	t4,t4,-1
 800ab60:	00a00193          	li	gp,10
 800ab64:	01d70463          	beq	a4,t4,800ab6c <test_11>
 800ab68:	5900706f          	j	80120f8 <fail>

000000000800ab6c <test_11>:
  TEST_RR_OP( 11, srlw, 0x0000000000000001, 0xffffffffffffffff, 31 );
 800ab6c:	fff00093          	li	ra,-1
 800ab70:	01f00113          	li	sp,31
 800ab74:	0020d73b          	srlw	a4,ra,sp
 800ab78:	00100e93          	li	t4,1
 800ab7c:	00b00193          	li	gp,11
 800ab80:	01d70463          	beq	a4,t4,800ab88 <test_12>
 800ab84:	5740706f          	j	80120f8 <fail>

000000000800ab88 <test_12>:

  TEST_RR_OP( 12, srlw, 0x0000000021212121, 0x0000000021212121, 0  );
 800ab88:	212120b7          	lui	ra,0x21212
 800ab8c:	1210809b          	addiw	ra,ra,289
 800ab90:	00000113          	li	sp,0
 800ab94:	0020d73b          	srlw	a4,ra,sp
 800ab98:	21212eb7          	lui	t4,0x21212
 800ab9c:	121e8e9b          	addiw	t4,t4,289
 800aba0:	00c00193          	li	gp,12
 800aba4:	01d70463          	beq	a4,t4,800abac <test_13>
 800aba8:	5500706f          	j	80120f8 <fail>

000000000800abac <test_13>:
  TEST_RR_OP( 13, srlw, 0x0000000010909090, 0x0000000021212121, 1  );
 800abac:	212120b7          	lui	ra,0x21212
 800abb0:	1210809b          	addiw	ra,ra,289
 800abb4:	00100113          	li	sp,1
 800abb8:	0020d73b          	srlw	a4,ra,sp
 800abbc:	10909eb7          	lui	t4,0x10909
 800abc0:	090e8e9b          	addiw	t4,t4,144
 800abc4:	00d00193          	li	gp,13
 800abc8:	01d70463          	beq	a4,t4,800abd0 <test_14>
 800abcc:	52c0706f          	j	80120f8 <fail>

000000000800abd0 <test_14>:
  TEST_RR_OP( 14, srlw, 0x0000000000424242, 0x0000000021212121, 7  );
 800abd0:	212120b7          	lui	ra,0x21212
 800abd4:	1210809b          	addiw	ra,ra,289
 800abd8:	00700113          	li	sp,7
 800abdc:	0020d73b          	srlw	a4,ra,sp
 800abe0:	00424eb7          	lui	t4,0x424
 800abe4:	242e8e9b          	addiw	t4,t4,578
 800abe8:	00e00193          	li	gp,14
 800abec:	01d70463          	beq	a4,t4,800abf4 <test_15>
 800abf0:	5080706f          	j	80120f8 <fail>

000000000800abf4 <test_15>:
  TEST_RR_OP( 15, srlw, 0x0000000000008484, 0x0000000021212121, 14 );
 800abf4:	212120b7          	lui	ra,0x21212
 800abf8:	1210809b          	addiw	ra,ra,289
 800abfc:	00e00113          	li	sp,14
 800ac00:	0020d73b          	srlw	a4,ra,sp
 800ac04:	00008eb7          	lui	t4,0x8
 800ac08:	484e8e9b          	addiw	t4,t4,1156
 800ac0c:	00f00193          	li	gp,15
 800ac10:	01d70463          	beq	a4,t4,800ac18 <test_16>
 800ac14:	4e40706f          	j	80120f8 <fail>

000000000800ac18 <test_16>:
  TEST_RR_OP( 16, srlw, 0x0000000000000000, 0x0000000021212121, 31 );
 800ac18:	212120b7          	lui	ra,0x21212
 800ac1c:	1210809b          	addiw	ra,ra,289
 800ac20:	01f00113          	li	sp,31
 800ac24:	0020d73b          	srlw	a4,ra,sp
 800ac28:	00000e93          	li	t4,0
 800ac2c:	01000193          	li	gp,16
 800ac30:	01d70463          	beq	a4,t4,800ac38 <test_17>
 800ac34:	4c40706f          	j	80120f8 <fail>

000000000800ac38 <test_17>:

  # Verify that shifts only use bottom five bits

  TEST_RR_OP( 17, srlw, 0x0000000021212121, 0x0000000021212121, 0xffffffffffffffe0 );
 800ac38:	212120b7          	lui	ra,0x21212
 800ac3c:	1210809b          	addiw	ra,ra,289
 800ac40:	fe000113          	li	sp,-32
 800ac44:	0020d73b          	srlw	a4,ra,sp
 800ac48:	21212eb7          	lui	t4,0x21212
 800ac4c:	121e8e9b          	addiw	t4,t4,289
 800ac50:	01100193          	li	gp,17
 800ac54:	01d70463          	beq	a4,t4,800ac5c <test_18>
 800ac58:	4a00706f          	j	80120f8 <fail>

000000000800ac5c <test_18>:
  TEST_RR_OP( 18, srlw, 0x0000000010909090, 0x0000000021212121, 0xffffffffffffffe1 );
 800ac5c:	212120b7          	lui	ra,0x21212
 800ac60:	1210809b          	addiw	ra,ra,289
 800ac64:	fe100113          	li	sp,-31
 800ac68:	0020d73b          	srlw	a4,ra,sp
 800ac6c:	10909eb7          	lui	t4,0x10909
 800ac70:	090e8e9b          	addiw	t4,t4,144
 800ac74:	01200193          	li	gp,18
 800ac78:	01d70463          	beq	a4,t4,800ac80 <test_19>
 800ac7c:	47c0706f          	j	80120f8 <fail>

000000000800ac80 <test_19>:
  TEST_RR_OP( 19, srlw, 0x0000000000424242, 0x0000000021212121, 0xffffffffffffffe7 );
 800ac80:	212120b7          	lui	ra,0x21212
 800ac84:	1210809b          	addiw	ra,ra,289
 800ac88:	fe700113          	li	sp,-25
 800ac8c:	0020d73b          	srlw	a4,ra,sp
 800ac90:	00424eb7          	lui	t4,0x424
 800ac94:	242e8e9b          	addiw	t4,t4,578
 800ac98:	01300193          	li	gp,19
 800ac9c:	01d70463          	beq	a4,t4,800aca4 <test_20>
 800aca0:	4580706f          	j	80120f8 <fail>

000000000800aca4 <test_20>:
  TEST_RR_OP( 20, srlw, 0x0000000000008484, 0x0000000021212121, 0xffffffffffffffee );
 800aca4:	212120b7          	lui	ra,0x21212
 800aca8:	1210809b          	addiw	ra,ra,289
 800acac:	fee00113          	li	sp,-18
 800acb0:	0020d73b          	srlw	a4,ra,sp
 800acb4:	00008eb7          	lui	t4,0x8
 800acb8:	484e8e9b          	addiw	t4,t4,1156
 800acbc:	01400193          	li	gp,20
 800acc0:	01d70463          	beq	a4,t4,800acc8 <test_21>
 800acc4:	4340706f          	j	80120f8 <fail>

000000000800acc8 <test_21>:
  TEST_RR_OP( 21, srlw, 0x0000000000000000, 0x0000000021212121, 0xffffffffffffffff );
 800acc8:	212120b7          	lui	ra,0x21212
 800accc:	1210809b          	addiw	ra,ra,289
 800acd0:	fff00113          	li	sp,-1
 800acd4:	0020d73b          	srlw	a4,ra,sp
 800acd8:	00000e93          	li	t4,0
 800acdc:	01500193          	li	gp,21
 800ace0:	01d70463          	beq	a4,t4,800ace8 <test_44>
 800ace4:	4140706f          	j	80120f8 <fail>

000000000800ace8 <test_44>:

  # Verify that shifts ignore top 32 (using true 64-bit values)

  TEST_RR_OP( 44, srlw, 0x0000000012345678, 0xffffffff12345678, 0 );
 800ace8:	fff120b7          	lui	ra,0xfff12
 800acec:	3450809b          	addiw	ra,ra,837
 800acf0:	00c09093          	slli	ra,ra,0xc
 800acf4:	67808093          	addi	ra,ra,1656 # fffffffffff12678 <_end+0xfffffffff7eff018>
 800acf8:	00000113          	li	sp,0
 800acfc:	0020d73b          	srlw	a4,ra,sp
 800ad00:	12345eb7          	lui	t4,0x12345
 800ad04:	678e8e9b          	addiw	t4,t4,1656
 800ad08:	02c00193          	li	gp,44
 800ad0c:	01d70463          	beq	a4,t4,800ad14 <test_45>
 800ad10:	3e80706f          	j	80120f8 <fail>

000000000800ad14 <test_45>:
  TEST_RR_OP( 45, srlw, 0x0000000001234567, 0xffffffff12345678, 4 );
 800ad14:	fff120b7          	lui	ra,0xfff12
 800ad18:	3450809b          	addiw	ra,ra,837
 800ad1c:	00c09093          	slli	ra,ra,0xc
 800ad20:	67808093          	addi	ra,ra,1656 # fffffffffff12678 <_end+0xfffffffff7eff018>
 800ad24:	00400113          	li	sp,4
 800ad28:	0020d73b          	srlw	a4,ra,sp
 800ad2c:	01234eb7          	lui	t4,0x1234
 800ad30:	567e8e9b          	addiw	t4,t4,1383
 800ad34:	02d00193          	li	gp,45
 800ad38:	01d70463          	beq	a4,t4,800ad40 <test_46>
 800ad3c:	3bc0706f          	j	80120f8 <fail>

000000000800ad40 <test_46>:
  TEST_RR_OP( 46, srlw, 0xffffffff92345678, 0x0000000092345678, 0 );
 800ad40:	000920b7          	lui	ra,0x92
 800ad44:	3450809b          	addiw	ra,ra,837
 800ad48:	00c09093          	slli	ra,ra,0xc
 800ad4c:	67808093          	addi	ra,ra,1656 # 92678 <u_mode_trap_table-0x7f6d98c>
 800ad50:	00000113          	li	sp,0
 800ad54:	0020d73b          	srlw	a4,ra,sp
 800ad58:	92345eb7          	lui	t4,0x92345
 800ad5c:	678e8e9b          	addiw	t4,t4,1656
 800ad60:	02e00193          	li	gp,46
 800ad64:	01d70463          	beq	a4,t4,800ad6c <test_47>
 800ad68:	3900706f          	j	80120f8 <fail>

000000000800ad6c <test_47>:
  TEST_RR_OP( 47, srlw, 0x0000000009234567, 0x0000000092345678, 4 );
 800ad6c:	000920b7          	lui	ra,0x92
 800ad70:	3450809b          	addiw	ra,ra,837
 800ad74:	00c09093          	slli	ra,ra,0xc
 800ad78:	67808093          	addi	ra,ra,1656 # 92678 <u_mode_trap_table-0x7f6d98c>
 800ad7c:	00400113          	li	sp,4
 800ad80:	0020d73b          	srlw	a4,ra,sp
 800ad84:	09234eb7          	lui	t4,0x9234
 800ad88:	567e8e9b          	addiw	t4,t4,1383
 800ad8c:	02f00193          	li	gp,47
 800ad90:	01d70463          	beq	a4,t4,800ad98 <test_22>
 800ad94:	3640706f          	j	80120f8 <fail>

000000000800ad98 <test_22>:

  #-------------------------------------------------------------
  # Source/Destination tests
  #-------------------------------------------------------------

  TEST_RR_SRC1_EQ_DEST( 22, srlw, 0x0000000001000000, 0xffffffff80000000, 7  );
 800ad98:	800000b7          	lui	ra,0x80000
 800ad9c:	00700113          	li	sp,7
 800ada0:	0020d0bb          	srlw	ra,ra,sp
 800ada4:	01000eb7          	lui	t4,0x1000
 800ada8:	01600193          	li	gp,22
 800adac:	01d08463          	beq	ra,t4,800adb4 <test_23>
 800adb0:	3480706f          	j	80120f8 <fail>

000000000800adb4 <test_23>:
  TEST_RR_SRC2_EQ_DEST( 23, srlw, 0x0000000000020000, 0xffffffff80000000, 14 );
 800adb4:	800000b7          	lui	ra,0x80000
 800adb8:	00e00113          	li	sp,14
 800adbc:	0020d13b          	srlw	sp,ra,sp
 800adc0:	00020eb7          	lui	t4,0x20
 800adc4:	01700193          	li	gp,23
 800adc8:	01d10463          	beq	sp,t4,800add0 <test_24>
 800adcc:	32c0706f          	j	80120f8 <fail>

000000000800add0 <test_24>:
  TEST_RR_SRC12_EQ_DEST( 24, srlw, 0, 7 );
 800add0:	00700093          	li	ra,7
 800add4:	0010d0bb          	srlw	ra,ra,ra
 800add8:	00000e93          	li	t4,0
 800addc:	01800193          	li	gp,24
 800ade0:	01d08463          	beq	ra,t4,800ade8 <test_25>
 800ade4:	3140706f          	j	80120f8 <fail>

000000000800ade8 <test_25>:

  #-------------------------------------------------------------
  # Bypassing tests
  #-------------------------------------------------------------

  TEST_RR_DEST_BYPASS( 25, 0, srlw, 0x0000000001000000, 0xffffffff80000000, 7  );
 800ade8:	00000213          	li	tp,0
 800adec:	800000b7          	lui	ra,0x80000
 800adf0:	00700113          	li	sp,7
 800adf4:	0020d73b          	srlw	a4,ra,sp
 800adf8:	00070313          	mv	t1,a4
 800adfc:	00120213          	addi	tp,tp,1 # 1 <u_mode_trap_table-0x8000003>
 800ae00:	00200293          	li	t0,2
 800ae04:	fe5214e3          	bne	tp,t0,800adec <test_25+0x4>
 800ae08:	01000eb7          	lui	t4,0x1000
 800ae0c:	01900193          	li	gp,25
 800ae10:	01d30463          	beq	t1,t4,800ae18 <test_26>
 800ae14:	2e40706f          	j	80120f8 <fail>

000000000800ae18 <test_26>:
  TEST_RR_DEST_BYPASS( 26, 1, srlw, 0x0000000000020000, 0xffffffff80000000, 14 );
 800ae18:	00000213          	li	tp,0
 800ae1c:	800000b7          	lui	ra,0x80000
 800ae20:	00e00113          	li	sp,14
 800ae24:	0020d73b          	srlw	a4,ra,sp
 800ae28:	00000013          	nop
 800ae2c:	00070313          	mv	t1,a4
 800ae30:	00120213          	addi	tp,tp,1 # 1 <u_mode_trap_table-0x8000003>
 800ae34:	00200293          	li	t0,2
 800ae38:	fe5212e3          	bne	tp,t0,800ae1c <test_26+0x4>
 800ae3c:	00020eb7          	lui	t4,0x20
 800ae40:	01a00193          	li	gp,26
 800ae44:	01d30463          	beq	t1,t4,800ae4c <test_27>
 800ae48:	2b00706f          	j	80120f8 <fail>

000000000800ae4c <test_27>:
  TEST_RR_DEST_BYPASS( 27, 2, srlw, 0x0000000000000001, 0xffffffff80000000, 31 );
 800ae4c:	00000213          	li	tp,0
 800ae50:	800000b7          	lui	ra,0x80000
 800ae54:	01f00113          	li	sp,31
 800ae58:	0020d73b          	srlw	a4,ra,sp
 800ae5c:	00000013          	nop
 800ae60:	00000013          	nop
 800ae64:	00070313          	mv	t1,a4
 800ae68:	00120213          	addi	tp,tp,1 # 1 <u_mode_trap_table-0x8000003>
 800ae6c:	00200293          	li	t0,2
 800ae70:	fe5210e3          	bne	tp,t0,800ae50 <test_27+0x4>
 800ae74:	00100e93          	li	t4,1
 800ae78:	01b00193          	li	gp,27
 800ae7c:	01d30463          	beq	t1,t4,800ae84 <test_28>
 800ae80:	2780706f          	j	80120f8 <fail>

000000000800ae84 <test_28>:

  TEST_RR_SRC12_BYPASS( 28, 0, 0, srlw, 0x0000000001000000, 0xffffffff80000000, 7  );
 800ae84:	00000213          	li	tp,0
 800ae88:	800000b7          	lui	ra,0x80000
 800ae8c:	00700113          	li	sp,7
 800ae90:	0020d73b          	srlw	a4,ra,sp
 800ae94:	00120213          	addi	tp,tp,1 # 1 <u_mode_trap_table-0x8000003>
 800ae98:	00200293          	li	t0,2
 800ae9c:	fe5216e3          	bne	tp,t0,800ae88 <test_28+0x4>
 800aea0:	01000eb7          	lui	t4,0x1000
 800aea4:	01c00193          	li	gp,28
 800aea8:	01d70463          	beq	a4,t4,800aeb0 <test_29>
 800aeac:	24c0706f          	j	80120f8 <fail>

000000000800aeb0 <test_29>:
  TEST_RR_SRC12_BYPASS( 29, 0, 1, srlw, 0x0000000000020000, 0xffffffff80000000, 14 );
 800aeb0:	00000213          	li	tp,0
 800aeb4:	800000b7          	lui	ra,0x80000
 800aeb8:	00e00113          	li	sp,14
 800aebc:	00000013          	nop
 800aec0:	0020d73b          	srlw	a4,ra,sp
 800aec4:	00120213          	addi	tp,tp,1 # 1 <u_mode_trap_table-0x8000003>
 800aec8:	00200293          	li	t0,2
 800aecc:	fe5214e3          	bne	tp,t0,800aeb4 <test_29+0x4>
 800aed0:	00020eb7          	lui	t4,0x20
 800aed4:	01d00193          	li	gp,29
 800aed8:	01d70463          	beq	a4,t4,800aee0 <test_30>
 800aedc:	21c0706f          	j	80120f8 <fail>

000000000800aee0 <test_30>:
  TEST_RR_SRC12_BYPASS( 30, 0, 2, srlw, 0x0000000000000001, 0xffffffff80000000, 31 );
 800aee0:	00000213          	li	tp,0
 800aee4:	800000b7          	lui	ra,0x80000
 800aee8:	01f00113          	li	sp,31
 800aeec:	00000013          	nop
 800aef0:	00000013          	nop
 800aef4:	0020d73b          	srlw	a4,ra,sp
 800aef8:	00120213          	addi	tp,tp,1 # 1 <u_mode_trap_table-0x8000003>
 800aefc:	00200293          	li	t0,2
 800af00:	fe5212e3          	bne	tp,t0,800aee4 <test_30+0x4>
 800af04:	00100e93          	li	t4,1
 800af08:	01e00193          	li	gp,30
 800af0c:	01d70463          	beq	a4,t4,800af14 <test_31>
 800af10:	1e80706f          	j	80120f8 <fail>

000000000800af14 <test_31>:
  TEST_RR_SRC12_BYPASS( 31, 1, 0, srlw, 0x0000000001000000, 0xffffffff80000000, 7  );
 800af14:	00000213          	li	tp,0
 800af18:	800000b7          	lui	ra,0x80000
 800af1c:	00000013          	nop
 800af20:	00700113          	li	sp,7
 800af24:	0020d73b          	srlw	a4,ra,sp
 800af28:	00120213          	addi	tp,tp,1 # 1 <u_mode_trap_table-0x8000003>
 800af2c:	00200293          	li	t0,2
 800af30:	fe5214e3          	bne	tp,t0,800af18 <test_31+0x4>
 800af34:	01000eb7          	lui	t4,0x1000
 800af38:	01f00193          	li	gp,31
 800af3c:	01d70463          	beq	a4,t4,800af44 <test_32>
 800af40:	1b80706f          	j	80120f8 <fail>

000000000800af44 <test_32>:
  TEST_RR_SRC12_BYPASS( 32, 1, 1, srlw, 0x0000000000020000, 0xffffffff80000000, 14 );
 800af44:	00000213          	li	tp,0
 800af48:	800000b7          	lui	ra,0x80000
 800af4c:	00000013          	nop
 800af50:	00e00113          	li	sp,14
 800af54:	00000013          	nop
 800af58:	0020d73b          	srlw	a4,ra,sp
 800af5c:	00120213          	addi	tp,tp,1 # 1 <u_mode_trap_table-0x8000003>
 800af60:	00200293          	li	t0,2
 800af64:	fe5212e3          	bne	tp,t0,800af48 <test_32+0x4>
 800af68:	00020eb7          	lui	t4,0x20
 800af6c:	02000193          	li	gp,32
 800af70:	01d70463          	beq	a4,t4,800af78 <test_33>
 800af74:	1840706f          	j	80120f8 <fail>

000000000800af78 <test_33>:
  TEST_RR_SRC12_BYPASS( 33, 2, 0, srlw, 0x0000000000000001, 0xffffffff80000000, 31 );
 800af78:	00000213          	li	tp,0
 800af7c:	800000b7          	lui	ra,0x80000
 800af80:	00000013          	nop
 800af84:	00000013          	nop
 800af88:	01f00113          	li	sp,31
 800af8c:	0020d73b          	srlw	a4,ra,sp
 800af90:	00120213          	addi	tp,tp,1 # 1 <u_mode_trap_table-0x8000003>
 800af94:	00200293          	li	t0,2
 800af98:	fe5212e3          	bne	tp,t0,800af7c <test_33+0x4>
 800af9c:	00100e93          	li	t4,1
 800afa0:	02100193          	li	gp,33
 800afa4:	01d70463          	beq	a4,t4,800afac <test_34>
 800afa8:	1500706f          	j	80120f8 <fail>

000000000800afac <test_34>:

  TEST_RR_SRC21_BYPASS( 34, 0, 0, srlw, 0x0000000001000000, 0xffffffff80000000, 7  );
 800afac:	00000213          	li	tp,0
 800afb0:	00700113          	li	sp,7
 800afb4:	800000b7          	lui	ra,0x80000
 800afb8:	0020d73b          	srlw	a4,ra,sp
 800afbc:	00120213          	addi	tp,tp,1 # 1 <u_mode_trap_table-0x8000003>
 800afc0:	00200293          	li	t0,2
 800afc4:	fe5216e3          	bne	tp,t0,800afb0 <test_34+0x4>
 800afc8:	01000eb7          	lui	t4,0x1000
 800afcc:	02200193          	li	gp,34
 800afd0:	01d70463          	beq	a4,t4,800afd8 <test_35>
 800afd4:	1240706f          	j	80120f8 <fail>

000000000800afd8 <test_35>:
  TEST_RR_SRC21_BYPASS( 35, 0, 1, srlw, 0x0000000000020000, 0xffffffff80000000, 14 );
 800afd8:	00000213          	li	tp,0
 800afdc:	00e00113          	li	sp,14
 800afe0:	800000b7          	lui	ra,0x80000
 800afe4:	00000013          	nop
 800afe8:	0020d73b          	srlw	a4,ra,sp
 800afec:	00120213          	addi	tp,tp,1 # 1 <u_mode_trap_table-0x8000003>
 800aff0:	00200293          	li	t0,2
 800aff4:	fe5214e3          	bne	tp,t0,800afdc <test_35+0x4>
 800aff8:	00020eb7          	lui	t4,0x20
 800affc:	02300193          	li	gp,35
 800b000:	01d70463          	beq	a4,t4,800b008 <test_36>
 800b004:	0f40706f          	j	80120f8 <fail>

000000000800b008 <test_36>:
  TEST_RR_SRC21_BYPASS( 36, 0, 2, srlw, 0x0000000000000001, 0xffffffff80000000, 31 );
 800b008:	00000213          	li	tp,0
 800b00c:	01f00113          	li	sp,31
 800b010:	800000b7          	lui	ra,0x80000
 800b014:	00000013          	nop
 800b018:	00000013          	nop
 800b01c:	0020d73b          	srlw	a4,ra,sp
 800b020:	00120213          	addi	tp,tp,1 # 1 <u_mode_trap_table-0x8000003>
 800b024:	00200293          	li	t0,2
 800b028:	fe5212e3          	bne	tp,t0,800b00c <test_36+0x4>
 800b02c:	00100e93          	li	t4,1
 800b030:	02400193          	li	gp,36
 800b034:	01d70463          	beq	a4,t4,800b03c <test_37>
 800b038:	0c00706f          	j	80120f8 <fail>

000000000800b03c <test_37>:
  TEST_RR_SRC21_BYPASS( 37, 1, 0, srlw, 0x0000000001000000, 0xffffffff80000000, 7  );
 800b03c:	00000213          	li	tp,0
 800b040:	00700113          	li	sp,7
 800b044:	00000013          	nop
 800b048:	800000b7          	lui	ra,0x80000
 800b04c:	0020d73b          	srlw	a4,ra,sp
 800b050:	00120213          	addi	tp,tp,1 # 1 <u_mode_trap_table-0x8000003>
 800b054:	00200293          	li	t0,2
 800b058:	fe5214e3          	bne	tp,t0,800b040 <test_37+0x4>
 800b05c:	01000eb7          	lui	t4,0x1000
 800b060:	02500193          	li	gp,37
 800b064:	01d70463          	beq	a4,t4,800b06c <test_38>
 800b068:	0900706f          	j	80120f8 <fail>

000000000800b06c <test_38>:
  TEST_RR_SRC21_BYPASS( 38, 1, 1, srlw, 0x0000000000020000, 0xffffffff80000000, 14 );
 800b06c:	00000213          	li	tp,0
 800b070:	00e00113          	li	sp,14
 800b074:	00000013          	nop
 800b078:	800000b7          	lui	ra,0x80000
 800b07c:	00000013          	nop
 800b080:	0020d73b          	srlw	a4,ra,sp
 800b084:	00120213          	addi	tp,tp,1 # 1 <u_mode_trap_table-0x8000003>
 800b088:	00200293          	li	t0,2
 800b08c:	fe5212e3          	bne	tp,t0,800b070 <test_38+0x4>
 800b090:	00020eb7          	lui	t4,0x20
 800b094:	02600193          	li	gp,38
 800b098:	01d70463          	beq	a4,t4,800b0a0 <test_39>
 800b09c:	05c0706f          	j	80120f8 <fail>

000000000800b0a0 <test_39>:
  TEST_RR_SRC21_BYPASS( 39, 2, 0, srlw, 0x0000000000000001, 0xffffffff80000000, 31 );
 800b0a0:	00000213          	li	tp,0
 800b0a4:	01f00113          	li	sp,31
 800b0a8:	00000013          	nop
 800b0ac:	00000013          	nop
 800b0b0:	800000b7          	lui	ra,0x80000
 800b0b4:	0020d73b          	srlw	a4,ra,sp
 800b0b8:	00120213          	addi	tp,tp,1 # 1 <u_mode_trap_table-0x8000003>
 800b0bc:	00200293          	li	t0,2
 800b0c0:	fe5212e3          	bne	tp,t0,800b0a4 <test_39+0x4>
 800b0c4:	00100e93          	li	t4,1
 800b0c8:	02700193          	li	gp,39
 800b0cc:	01d70463          	beq	a4,t4,800b0d4 <test_40>
 800b0d0:	0280706f          	j	80120f8 <fail>

000000000800b0d4 <test_40>:

  TEST_RR_ZEROSRC1( 40, srlw, 0, 15 );
 800b0d4:	00f00093          	li	ra,15
 800b0d8:	0010513b          	srlw	sp,zero,ra
 800b0dc:	00000e93          	li	t4,0
 800b0e0:	02800193          	li	gp,40
 800b0e4:	01d10463          	beq	sp,t4,800b0ec <test_41>
 800b0e8:	0100706f          	j	80120f8 <fail>

000000000800b0ec <test_41>:
  TEST_RR_ZEROSRC2( 41, srlw, 32, 32 );
 800b0ec:	02000093          	li	ra,32
 800b0f0:	0000d13b          	srlw	sp,ra,zero
 800b0f4:	02000e93          	li	t4,32
 800b0f8:	02900193          	li	gp,41
 800b0fc:	01d10463          	beq	sp,t4,800b104 <test_42>
 800b100:	7f90606f          	j	80120f8 <fail>

000000000800b104 <test_42>:
  TEST_RR_ZEROSRC12( 42, srlw, 0 );
 800b104:	000050bb          	srlw	ra,zero,zero
 800b108:	00000e93          	li	t4,0
 800b10c:	02a00193          	li	gp,42
 800b110:	01d08463          	beq	ra,t4,800b118 <test_43>
 800b114:	7e50606f          	j	80120f8 <fail>

000000000800b118 <test_43>:
  TEST_RR_ZERODEST( 43, srlw, 1024, 2048 );
 800b118:	40000093          	li	ra,1024
 800b11c:	00001137          	lui	sp,0x1
 800b120:	8001011b          	addiw	sp,sp,-2048
 800b124:	0020d03b          	srlw	zero,ra,sp
 800b128:	00000e93          	li	t4,0
 800b12c:	02b00193          	li	gp,43
 800b130:	01d00463          	beq	zero,t4,800b138 <test_43+0x20>
 800b134:	7c50606f          	j	80120f8 <fail>

  TEST_PASSFAIL

RVTEST_CODE_END
 800b138:	c0001073          	unimp

000000000800b13c <test_2>:

  #-------------------------------------------------------------
  # Arithmetic tests
  #-------------------------------------------------------------

  TEST_RR_OP( 2,  sub, 0x0000000000000000, 0x0000000000000000, 0x0000000000000000 );
 800b13c:	00000093          	li	ra,0
 800b140:	00000113          	li	sp,0
 800b144:	40208733          	sub	a4,ra,sp
 800b148:	00000e93          	li	t4,0
 800b14c:	00200193          	li	gp,2
 800b150:	01d70463          	beq	a4,t4,800b158 <test_3>
 800b154:	7a50606f          	j	80120f8 <fail>

000000000800b158 <test_3>:
  TEST_RR_OP( 3,  sub, 0x0000000000000000, 0x0000000000000001, 0x0000000000000001 );
 800b158:	00100093          	li	ra,1
 800b15c:	00100113          	li	sp,1
 800b160:	40208733          	sub	a4,ra,sp
 800b164:	00000e93          	li	t4,0
 800b168:	00300193          	li	gp,3
 800b16c:	01d70463          	beq	a4,t4,800b174 <test_4>
 800b170:	7890606f          	j	80120f8 <fail>

000000000800b174 <test_4>:
  TEST_RR_OP( 4,  sub, 0xfffffffffffffffc, 0x0000000000000003, 0x0000000000000007 );
 800b174:	00300093          	li	ra,3
 800b178:	00700113          	li	sp,7
 800b17c:	40208733          	sub	a4,ra,sp
 800b180:	ffc00e93          	li	t4,-4
 800b184:	00400193          	li	gp,4
 800b188:	01d70463          	beq	a4,t4,800b190 <test_5>
 800b18c:	76d0606f          	j	80120f8 <fail>

000000000800b190 <test_5>:

  TEST_RR_OP( 5,  sub, 0x0000000000008000, 0x0000000000000000, 0xffffffffffff8000 );
 800b190:	00000093          	li	ra,0
 800b194:	ffff8137          	lui	sp,0xffff8
 800b198:	40208733          	sub	a4,ra,sp
 800b19c:	00008eb7          	lui	t4,0x8
 800b1a0:	00500193          	li	gp,5
 800b1a4:	01d70463          	beq	a4,t4,800b1ac <test_6>
 800b1a8:	7510606f          	j	80120f8 <fail>

000000000800b1ac <test_6>:
  TEST_RR_OP( 6,  sub, 0xffffffff80000000, 0xffffffff80000000, 0x0000000000000000 );
 800b1ac:	800000b7          	lui	ra,0x80000
 800b1b0:	00000113          	li	sp,0
 800b1b4:	40208733          	sub	a4,ra,sp
 800b1b8:	80000eb7          	lui	t4,0x80000
 800b1bc:	00600193          	li	gp,6
 800b1c0:	01d70463          	beq	a4,t4,800b1c8 <test_7>
 800b1c4:	7350606f          	j	80120f8 <fail>

000000000800b1c8 <test_7>:
  TEST_RR_OP( 7,  sub, 0xffffffff80008000, 0xffffffff80000000, 0xffffffffffff8000 );
 800b1c8:	800000b7          	lui	ra,0x80000
 800b1cc:	ffff8137          	lui	sp,0xffff8
 800b1d0:	40208733          	sub	a4,ra,sp
 800b1d4:	80008eb7          	lui	t4,0x80008
 800b1d8:	00700193          	li	gp,7
 800b1dc:	01d70463          	beq	a4,t4,800b1e4 <test_8>
 800b1e0:	7190606f          	j	80120f8 <fail>

000000000800b1e4 <test_8>:

  TEST_RR_OP( 8,  sub, 0xffffffffffff8001, 0x0000000000000000, 0x0000000000007fff );
 800b1e4:	00000093          	li	ra,0
 800b1e8:	00008137          	lui	sp,0x8
 800b1ec:	fff1011b          	addiw	sp,sp,-1
 800b1f0:	40208733          	sub	a4,ra,sp
 800b1f4:	ffff8eb7          	lui	t4,0xffff8
 800b1f8:	001e8e9b          	addiw	t4,t4,1
 800b1fc:	00800193          	li	gp,8
 800b200:	01d70463          	beq	a4,t4,800b208 <test_9>
 800b204:	6f50606f          	j	80120f8 <fail>

000000000800b208 <test_9>:
  TEST_RR_OP( 9,  sub, 0x000000007fffffff, 0x000000007fffffff, 0x0000000000000000 );
 800b208:	800000b7          	lui	ra,0x80000
 800b20c:	fff0809b          	addiw	ra,ra,-1
 800b210:	00000113          	li	sp,0
 800b214:	40208733          	sub	a4,ra,sp
 800b218:	80000eb7          	lui	t4,0x80000
 800b21c:	fffe8e9b          	addiw	t4,t4,-1
 800b220:	00900193          	li	gp,9
 800b224:	01d70463          	beq	a4,t4,800b22c <test_10>
 800b228:	6d10606f          	j	80120f8 <fail>

000000000800b22c <test_10>:
  TEST_RR_OP( 10, sub, 0x000000007fff8000, 0x000000007fffffff, 0x0000000000007fff );
 800b22c:	800000b7          	lui	ra,0x80000
 800b230:	fff0809b          	addiw	ra,ra,-1
 800b234:	00008137          	lui	sp,0x8
 800b238:	fff1011b          	addiw	sp,sp,-1
 800b23c:	40208733          	sub	a4,ra,sp
 800b240:	7fff8eb7          	lui	t4,0x7fff8
 800b244:	00a00193          	li	gp,10
 800b248:	01d70463          	beq	a4,t4,800b250 <test_11>
 800b24c:	6ad0606f          	j	80120f8 <fail>

000000000800b250 <test_11>:

  TEST_RR_OP( 11, sub, 0xffffffff7fff8001, 0xffffffff80000000, 0x0000000000007fff );
 800b250:	800000b7          	lui	ra,0x80000
 800b254:	00008137          	lui	sp,0x8
 800b258:	fff1011b          	addiw	sp,sp,-1
 800b25c:	40208733          	sub	a4,ra,sp
 800b260:	ffff0eb7          	lui	t4,0xffff0
 800b264:	fffe8e9b          	addiw	t4,t4,-1
 800b268:	00fe9e93          	slli	t4,t4,0xf
 800b26c:	001e8e93          	addi	t4,t4,1 # ffffffffffff0001 <_end+0xfffffffff7fdc9a1>
 800b270:	00b00193          	li	gp,11
 800b274:	01d70463          	beq	a4,t4,800b27c <test_12>
 800b278:	6810606f          	j	80120f8 <fail>

000000000800b27c <test_12>:
  TEST_RR_OP( 12, sub, 0x0000000080007fff, 0x000000007fffffff, 0xffffffffffff8000 );
 800b27c:	800000b7          	lui	ra,0x80000
 800b280:	fff0809b          	addiw	ra,ra,-1
 800b284:	ffff8137          	lui	sp,0xffff8
 800b288:	40208733          	sub	a4,ra,sp
 800b28c:	00010eb7          	lui	t4,0x10
 800b290:	001e8e9b          	addiw	t4,t4,1
 800b294:	00fe9e93          	slli	t4,t4,0xf
 800b298:	fffe8e93          	addi	t4,t4,-1 # ffff <u_mode_trap_table-0x7ff0005>
 800b29c:	00c00193          	li	gp,12
 800b2a0:	01d70463          	beq	a4,t4,800b2a8 <test_13>
 800b2a4:	6550606f          	j	80120f8 <fail>

000000000800b2a8 <test_13>:

  TEST_RR_OP( 13, sub, 0x0000000000000001, 0x0000000000000000, 0xffffffffffffffff );
 800b2a8:	00000093          	li	ra,0
 800b2ac:	fff00113          	li	sp,-1
 800b2b0:	40208733          	sub	a4,ra,sp
 800b2b4:	00100e93          	li	t4,1
 800b2b8:	00d00193          	li	gp,13
 800b2bc:	01d70463          	beq	a4,t4,800b2c4 <test_14>
 800b2c0:	6390606f          	j	80120f8 <fail>

000000000800b2c4 <test_14>:
  TEST_RR_OP( 14, sub, 0xfffffffffffffffe, 0xffffffffffffffff, 0x0000000000000001 );
 800b2c4:	fff00093          	li	ra,-1
 800b2c8:	00100113          	li	sp,1
 800b2cc:	40208733          	sub	a4,ra,sp
 800b2d0:	ffe00e93          	li	t4,-2
 800b2d4:	00e00193          	li	gp,14
 800b2d8:	01d70463          	beq	a4,t4,800b2e0 <test_15>
 800b2dc:	61d0606f          	j	80120f8 <fail>

000000000800b2e0 <test_15>:
  TEST_RR_OP( 15, sub, 0x0000000000000000, 0xffffffffffffffff, 0xffffffffffffffff );
 800b2e0:	fff00093          	li	ra,-1
 800b2e4:	fff00113          	li	sp,-1
 800b2e8:	40208733          	sub	a4,ra,sp
 800b2ec:	00000e93          	li	t4,0
 800b2f0:	00f00193          	li	gp,15
 800b2f4:	01d70463          	beq	a4,t4,800b2fc <test_16>
 800b2f8:	6010606f          	j	80120f8 <fail>

000000000800b2fc <test_16>:

  #-------------------------------------------------------------
  # Source/Destination tests
  #-------------------------------------------------------------

  TEST_RR_SRC1_EQ_DEST( 16, sub, 2, 13, 11 );
 800b2fc:	00d00093          	li	ra,13
 800b300:	00b00113          	li	sp,11
 800b304:	402080b3          	sub	ra,ra,sp
 800b308:	00200e93          	li	t4,2
 800b30c:	01000193          	li	gp,16
 800b310:	01d08463          	beq	ra,t4,800b318 <test_17>
 800b314:	5e50606f          	j	80120f8 <fail>

000000000800b318 <test_17>:
  TEST_RR_SRC2_EQ_DEST( 17, sub, 3, 14, 11 );
 800b318:	00e00093          	li	ra,14
 800b31c:	00b00113          	li	sp,11
 800b320:	40208133          	sub	sp,ra,sp
 800b324:	00300e93          	li	t4,3
 800b328:	01100193          	li	gp,17
 800b32c:	01d10463          	beq	sp,t4,800b334 <test_18>
 800b330:	5c90606f          	j	80120f8 <fail>

000000000800b334 <test_18>:
  TEST_RR_SRC12_EQ_DEST( 18, sub, 0, 13 );
 800b334:	00d00093          	li	ra,13
 800b338:	401080b3          	sub	ra,ra,ra
 800b33c:	00000e93          	li	t4,0
 800b340:	01200193          	li	gp,18
 800b344:	01d08463          	beq	ra,t4,800b34c <test_19>
 800b348:	5b10606f          	j	80120f8 <fail>

000000000800b34c <test_19>:

  #-------------------------------------------------------------
  # Bypassing tests
  #-------------------------------------------------------------

  TEST_RR_DEST_BYPASS( 19, 0, sub, 2, 13, 11 );
 800b34c:	00000213          	li	tp,0
 800b350:	00d00093          	li	ra,13
 800b354:	00b00113          	li	sp,11
 800b358:	40208733          	sub	a4,ra,sp
 800b35c:	00070313          	mv	t1,a4
 800b360:	00120213          	addi	tp,tp,1 # 1 <u_mode_trap_table-0x8000003>
 800b364:	00200293          	li	t0,2
 800b368:	fe5214e3          	bne	tp,t0,800b350 <test_19+0x4>
 800b36c:	00200e93          	li	t4,2
 800b370:	01300193          	li	gp,19
 800b374:	01d30463          	beq	t1,t4,800b37c <test_20>
 800b378:	5810606f          	j	80120f8 <fail>

000000000800b37c <test_20>:
  TEST_RR_DEST_BYPASS( 20, 1, sub, 3, 14, 11 );
 800b37c:	00000213          	li	tp,0
 800b380:	00e00093          	li	ra,14
 800b384:	00b00113          	li	sp,11
 800b388:	40208733          	sub	a4,ra,sp
 800b38c:	00000013          	nop
 800b390:	00070313          	mv	t1,a4
 800b394:	00120213          	addi	tp,tp,1 # 1 <u_mode_trap_table-0x8000003>
 800b398:	00200293          	li	t0,2
 800b39c:	fe5212e3          	bne	tp,t0,800b380 <test_20+0x4>
 800b3a0:	00300e93          	li	t4,3
 800b3a4:	01400193          	li	gp,20
 800b3a8:	01d30463          	beq	t1,t4,800b3b0 <test_21>
 800b3ac:	54d0606f          	j	80120f8 <fail>

000000000800b3b0 <test_21>:
  TEST_RR_DEST_BYPASS( 21, 2, sub, 4, 15, 11 );
 800b3b0:	00000213          	li	tp,0
 800b3b4:	00f00093          	li	ra,15
 800b3b8:	00b00113          	li	sp,11
 800b3bc:	40208733          	sub	a4,ra,sp
 800b3c0:	00000013          	nop
 800b3c4:	00000013          	nop
 800b3c8:	00070313          	mv	t1,a4
 800b3cc:	00120213          	addi	tp,tp,1 # 1 <u_mode_trap_table-0x8000003>
 800b3d0:	00200293          	li	t0,2
 800b3d4:	fe5210e3          	bne	tp,t0,800b3b4 <test_21+0x4>
 800b3d8:	00400e93          	li	t4,4
 800b3dc:	01500193          	li	gp,21
 800b3e0:	01d30463          	beq	t1,t4,800b3e8 <test_22>
 800b3e4:	5150606f          	j	80120f8 <fail>

000000000800b3e8 <test_22>:

  TEST_RR_SRC12_BYPASS( 22, 0, 0, sub, 2, 13, 11 );
 800b3e8:	00000213          	li	tp,0
 800b3ec:	00d00093          	li	ra,13
 800b3f0:	00b00113          	li	sp,11
 800b3f4:	40208733          	sub	a4,ra,sp
 800b3f8:	00120213          	addi	tp,tp,1 # 1 <u_mode_trap_table-0x8000003>
 800b3fc:	00200293          	li	t0,2
 800b400:	fe5216e3          	bne	tp,t0,800b3ec <test_22+0x4>
 800b404:	00200e93          	li	t4,2
 800b408:	01600193          	li	gp,22
 800b40c:	01d70463          	beq	a4,t4,800b414 <test_23>
 800b410:	4e90606f          	j	80120f8 <fail>

000000000800b414 <test_23>:
  TEST_RR_SRC12_BYPASS( 23, 0, 1, sub, 3, 14, 11 );
 800b414:	00000213          	li	tp,0
 800b418:	00e00093          	li	ra,14
 800b41c:	00b00113          	li	sp,11
 800b420:	00000013          	nop
 800b424:	40208733          	sub	a4,ra,sp
 800b428:	00120213          	addi	tp,tp,1 # 1 <u_mode_trap_table-0x8000003>
 800b42c:	00200293          	li	t0,2
 800b430:	fe5214e3          	bne	tp,t0,800b418 <test_23+0x4>
 800b434:	00300e93          	li	t4,3
 800b438:	01700193          	li	gp,23
 800b43c:	01d70463          	beq	a4,t4,800b444 <test_24>
 800b440:	4b90606f          	j	80120f8 <fail>

000000000800b444 <test_24>:
  TEST_RR_SRC12_BYPASS( 24, 0, 2, sub, 4, 15, 11 );
 800b444:	00000213          	li	tp,0
 800b448:	00f00093          	li	ra,15
 800b44c:	00b00113          	li	sp,11
 800b450:	00000013          	nop
 800b454:	00000013          	nop
 800b458:	40208733          	sub	a4,ra,sp
 800b45c:	00120213          	addi	tp,tp,1 # 1 <u_mode_trap_table-0x8000003>
 800b460:	00200293          	li	t0,2
 800b464:	fe5212e3          	bne	tp,t0,800b448 <test_24+0x4>
 800b468:	00400e93          	li	t4,4
 800b46c:	01800193          	li	gp,24
 800b470:	01d70463          	beq	a4,t4,800b478 <test_25>
 800b474:	4850606f          	j	80120f8 <fail>

000000000800b478 <test_25>:
  TEST_RR_SRC12_BYPASS( 25, 1, 0, sub, 2, 13, 11 );
 800b478:	00000213          	li	tp,0
 800b47c:	00d00093          	li	ra,13
 800b480:	00000013          	nop
 800b484:	00b00113          	li	sp,11
 800b488:	40208733          	sub	a4,ra,sp
 800b48c:	00120213          	addi	tp,tp,1 # 1 <u_mode_trap_table-0x8000003>
 800b490:	00200293          	li	t0,2
 800b494:	fe5214e3          	bne	tp,t0,800b47c <test_25+0x4>
 800b498:	00200e93          	li	t4,2
 800b49c:	01900193          	li	gp,25
 800b4a0:	01d70463          	beq	a4,t4,800b4a8 <test_26>
 800b4a4:	4550606f          	j	80120f8 <fail>

000000000800b4a8 <test_26>:
  TEST_RR_SRC12_BYPASS( 26, 1, 1, sub, 3, 14, 11 );
 800b4a8:	00000213          	li	tp,0
 800b4ac:	00e00093          	li	ra,14
 800b4b0:	00000013          	nop
 800b4b4:	00b00113          	li	sp,11
 800b4b8:	00000013          	nop
 800b4bc:	40208733          	sub	a4,ra,sp
 800b4c0:	00120213          	addi	tp,tp,1 # 1 <u_mode_trap_table-0x8000003>
 800b4c4:	00200293          	li	t0,2
 800b4c8:	fe5212e3          	bne	tp,t0,800b4ac <test_26+0x4>
 800b4cc:	00300e93          	li	t4,3
 800b4d0:	01a00193          	li	gp,26
 800b4d4:	01d70463          	beq	a4,t4,800b4dc <test_27>
 800b4d8:	4210606f          	j	80120f8 <fail>

000000000800b4dc <test_27>:
  TEST_RR_SRC12_BYPASS( 27, 2, 0, sub, 4, 15, 11 );
 800b4dc:	00000213          	li	tp,0
 800b4e0:	00f00093          	li	ra,15
 800b4e4:	00000013          	nop
 800b4e8:	00000013          	nop
 800b4ec:	00b00113          	li	sp,11
 800b4f0:	40208733          	sub	a4,ra,sp
 800b4f4:	00120213          	addi	tp,tp,1 # 1 <u_mode_trap_table-0x8000003>
 800b4f8:	00200293          	li	t0,2
 800b4fc:	fe5212e3          	bne	tp,t0,800b4e0 <test_27+0x4>
 800b500:	00400e93          	li	t4,4
 800b504:	01b00193          	li	gp,27
 800b508:	01d70463          	beq	a4,t4,800b510 <test_28>
 800b50c:	3ed0606f          	j	80120f8 <fail>

000000000800b510 <test_28>:

  TEST_RR_SRC21_BYPASS( 28, 0, 0, sub, 2, 13, 11 );
 800b510:	00000213          	li	tp,0
 800b514:	00b00113          	li	sp,11
 800b518:	00d00093          	li	ra,13
 800b51c:	40208733          	sub	a4,ra,sp
 800b520:	00120213          	addi	tp,tp,1 # 1 <u_mode_trap_table-0x8000003>
 800b524:	00200293          	li	t0,2
 800b528:	fe5216e3          	bne	tp,t0,800b514 <test_28+0x4>
 800b52c:	00200e93          	li	t4,2
 800b530:	01c00193          	li	gp,28
 800b534:	01d70463          	beq	a4,t4,800b53c <test_29>
 800b538:	3c10606f          	j	80120f8 <fail>

000000000800b53c <test_29>:
  TEST_RR_SRC21_BYPASS( 29, 0, 1, sub, 3, 14, 11 );
 800b53c:	00000213          	li	tp,0
 800b540:	00b00113          	li	sp,11
 800b544:	00e00093          	li	ra,14
 800b548:	00000013          	nop
 800b54c:	40208733          	sub	a4,ra,sp
 800b550:	00120213          	addi	tp,tp,1 # 1 <u_mode_trap_table-0x8000003>
 800b554:	00200293          	li	t0,2
 800b558:	fe5214e3          	bne	tp,t0,800b540 <test_29+0x4>
 800b55c:	00300e93          	li	t4,3
 800b560:	01d00193          	li	gp,29
 800b564:	01d70463          	beq	a4,t4,800b56c <test_30>
 800b568:	3910606f          	j	80120f8 <fail>

000000000800b56c <test_30>:
  TEST_RR_SRC21_BYPASS( 30, 0, 2, sub, 4, 15, 11 );
 800b56c:	00000213          	li	tp,0
 800b570:	00b00113          	li	sp,11
 800b574:	00f00093          	li	ra,15
 800b578:	00000013          	nop
 800b57c:	00000013          	nop
 800b580:	40208733          	sub	a4,ra,sp
 800b584:	00120213          	addi	tp,tp,1 # 1 <u_mode_trap_table-0x8000003>
 800b588:	00200293          	li	t0,2
 800b58c:	fe5212e3          	bne	tp,t0,800b570 <test_30+0x4>
 800b590:	00400e93          	li	t4,4
 800b594:	01e00193          	li	gp,30
 800b598:	01d70463          	beq	a4,t4,800b5a0 <test_31>
 800b59c:	35d0606f          	j	80120f8 <fail>

000000000800b5a0 <test_31>:
  TEST_RR_SRC21_BYPASS( 31, 1, 0, sub, 2, 13, 11 );
 800b5a0:	00000213          	li	tp,0
 800b5a4:	00b00113          	li	sp,11
 800b5a8:	00000013          	nop
 800b5ac:	00d00093          	li	ra,13
 800b5b0:	40208733          	sub	a4,ra,sp
 800b5b4:	00120213          	addi	tp,tp,1 # 1 <u_mode_trap_table-0x8000003>
 800b5b8:	00200293          	li	t0,2
 800b5bc:	fe5214e3          	bne	tp,t0,800b5a4 <test_31+0x4>
 800b5c0:	00200e93          	li	t4,2
 800b5c4:	01f00193          	li	gp,31
 800b5c8:	01d70463          	beq	a4,t4,800b5d0 <test_32>
 800b5cc:	32d0606f          	j	80120f8 <fail>

000000000800b5d0 <test_32>:
  TEST_RR_SRC21_BYPASS( 32, 1, 1, sub, 3, 14, 11 );
 800b5d0:	00000213          	li	tp,0
 800b5d4:	00b00113          	li	sp,11
 800b5d8:	00000013          	nop
 800b5dc:	00e00093          	li	ra,14
 800b5e0:	00000013          	nop
 800b5e4:	40208733          	sub	a4,ra,sp
 800b5e8:	00120213          	addi	tp,tp,1 # 1 <u_mode_trap_table-0x8000003>
 800b5ec:	00200293          	li	t0,2
 800b5f0:	fe5212e3          	bne	tp,t0,800b5d4 <test_32+0x4>
 800b5f4:	00300e93          	li	t4,3
 800b5f8:	02000193          	li	gp,32
 800b5fc:	01d70463          	beq	a4,t4,800b604 <test_33>
 800b600:	2f90606f          	j	80120f8 <fail>

000000000800b604 <test_33>:
  TEST_RR_SRC21_BYPASS( 33, 2, 0, sub, 4, 15, 11 );
 800b604:	00000213          	li	tp,0
 800b608:	00b00113          	li	sp,11
 800b60c:	00000013          	nop
 800b610:	00000013          	nop
 800b614:	00f00093          	li	ra,15
 800b618:	40208733          	sub	a4,ra,sp
 800b61c:	00120213          	addi	tp,tp,1 # 1 <u_mode_trap_table-0x8000003>
 800b620:	00200293          	li	t0,2
 800b624:	fe5212e3          	bne	tp,t0,800b608 <test_33+0x4>
 800b628:	00400e93          	li	t4,4
 800b62c:	02100193          	li	gp,33
 800b630:	01d70463          	beq	a4,t4,800b638 <test_34>
 800b634:	2c50606f          	j	80120f8 <fail>

000000000800b638 <test_34>:

  TEST_RR_ZEROSRC1( 34, sub, 15, -15 );
 800b638:	ff100093          	li	ra,-15
 800b63c:	40100133          	neg	sp,ra
 800b640:	00f00e93          	li	t4,15
 800b644:	02200193          	li	gp,34
 800b648:	01d10463          	beq	sp,t4,800b650 <test_35>
 800b64c:	2ad0606f          	j	80120f8 <fail>

000000000800b650 <test_35>:
  TEST_RR_ZEROSRC2( 35, sub, 32, 32 );
 800b650:	02000093          	li	ra,32
 800b654:	40008133          	sub	sp,ra,zero
 800b658:	02000e93          	li	t4,32
 800b65c:	02300193          	li	gp,35
 800b660:	01d10463          	beq	sp,t4,800b668 <test_36>
 800b664:	2950606f          	j	80120f8 <fail>

000000000800b668 <test_36>:
  TEST_RR_ZEROSRC12( 36, sub, 0 );
 800b668:	400000b3          	neg	ra,zero
 800b66c:	00000e93          	li	t4,0
 800b670:	02400193          	li	gp,36
 800b674:	01d08463          	beq	ra,t4,800b67c <test_37>
 800b678:	2810606f          	j	80120f8 <fail>

000000000800b67c <test_37>:
  TEST_RR_ZERODEST( 37, sub, 16, 30 );
 800b67c:	01000093          	li	ra,16
 800b680:	01e00113          	li	sp,30
 800b684:	40208033          	sub	zero,ra,sp
 800b688:	00000e93          	li	t4,0
 800b68c:	02500193          	li	gp,37
 800b690:	01d00463          	beq	zero,t4,800b698 <test_37+0x1c>
 800b694:	2650606f          	j	80120f8 <fail>

  TEST_PASSFAIL

RVTEST_CODE_END
 800b698:	c0001073          	unimp

000000000800b69c <test_2>:

  #-------------------------------------------------------------
  # Arithmetic tests
  #-------------------------------------------------------------

  TEST_RR_OP( 2,  subw, 0x0000000000000000, 0x0000000000000000, 0x0000000000000000 );
 800b69c:	00000093          	li	ra,0
 800b6a0:	00000113          	li	sp,0
 800b6a4:	4020873b          	subw	a4,ra,sp
 800b6a8:	00000e93          	li	t4,0
 800b6ac:	00200193          	li	gp,2
 800b6b0:	01d70463          	beq	a4,t4,800b6b8 <test_3>
 800b6b4:	2450606f          	j	80120f8 <fail>

000000000800b6b8 <test_3>:
  TEST_RR_OP( 3,  subw, 0x0000000000000000, 0x0000000000000001, 0x0000000000000001 );
 800b6b8:	00100093          	li	ra,1
 800b6bc:	00100113          	li	sp,1
 800b6c0:	4020873b          	subw	a4,ra,sp
 800b6c4:	00000e93          	li	t4,0
 800b6c8:	00300193          	li	gp,3
 800b6cc:	01d70463          	beq	a4,t4,800b6d4 <test_4>
 800b6d0:	2290606f          	j	80120f8 <fail>

000000000800b6d4 <test_4>:
  TEST_RR_OP( 4,  subw, 0xfffffffffffffffc, 0x0000000000000003, 0x0000000000000007 );
 800b6d4:	00300093          	li	ra,3
 800b6d8:	00700113          	li	sp,7
 800b6dc:	4020873b          	subw	a4,ra,sp
 800b6e0:	ffc00e93          	li	t4,-4
 800b6e4:	00400193          	li	gp,4
 800b6e8:	01d70463          	beq	a4,t4,800b6f0 <test_5>
 800b6ec:	20d0606f          	j	80120f8 <fail>

000000000800b6f0 <test_5>:

  TEST_RR_OP( 5,  subw, 0x0000000000008000, 0x0000000000000000, 0xffffffffffff8000 );
 800b6f0:	00000093          	li	ra,0
 800b6f4:	ffff8137          	lui	sp,0xffff8
 800b6f8:	4020873b          	subw	a4,ra,sp
 800b6fc:	00008eb7          	lui	t4,0x8
 800b700:	00500193          	li	gp,5
 800b704:	01d70463          	beq	a4,t4,800b70c <test_6>
 800b708:	1f10606f          	j	80120f8 <fail>

000000000800b70c <test_6>:
  TEST_RR_OP( 6,  subw, 0xffffffff80000000, 0xffffffff80000000, 0x0000000000000000 );
 800b70c:	800000b7          	lui	ra,0x80000
 800b710:	00000113          	li	sp,0
 800b714:	4020873b          	subw	a4,ra,sp
 800b718:	80000eb7          	lui	t4,0x80000
 800b71c:	00600193          	li	gp,6
 800b720:	01d70463          	beq	a4,t4,800b728 <test_7>
 800b724:	1d50606f          	j	80120f8 <fail>

000000000800b728 <test_7>:
  TEST_RR_OP( 7,  subw, 0xffffffff80008000, 0xffffffff80000000, 0xffffffffffff8000 );
 800b728:	800000b7          	lui	ra,0x80000
 800b72c:	ffff8137          	lui	sp,0xffff8
 800b730:	4020873b          	subw	a4,ra,sp
 800b734:	80008eb7          	lui	t4,0x80008
 800b738:	00700193          	li	gp,7
 800b73c:	01d70463          	beq	a4,t4,800b744 <test_8>
 800b740:	1b90606f          	j	80120f8 <fail>

000000000800b744 <test_8>:

  TEST_RR_OP( 8,  subw, 0xffffffffffff8001, 0x0000000000000000, 0x0000000000007fff );
 800b744:	00000093          	li	ra,0
 800b748:	00008137          	lui	sp,0x8
 800b74c:	fff1011b          	addiw	sp,sp,-1
 800b750:	4020873b          	subw	a4,ra,sp
 800b754:	ffff8eb7          	lui	t4,0xffff8
 800b758:	001e8e9b          	addiw	t4,t4,1
 800b75c:	00800193          	li	gp,8
 800b760:	01d70463          	beq	a4,t4,800b768 <test_9>
 800b764:	1950606f          	j	80120f8 <fail>

000000000800b768 <test_9>:
  TEST_RR_OP( 9,  subw, 0x000000007fffffff, 0x000000007fffffff, 0x0000000000000000 );
 800b768:	800000b7          	lui	ra,0x80000
 800b76c:	fff0809b          	addiw	ra,ra,-1
 800b770:	00000113          	li	sp,0
 800b774:	4020873b          	subw	a4,ra,sp
 800b778:	80000eb7          	lui	t4,0x80000
 800b77c:	fffe8e9b          	addiw	t4,t4,-1
 800b780:	00900193          	li	gp,9
 800b784:	01d70463          	beq	a4,t4,800b78c <test_10>
 800b788:	1710606f          	j	80120f8 <fail>

000000000800b78c <test_10>:
  TEST_RR_OP( 10, subw, 0x000000007fff8000, 0x000000007fffffff, 0x0000000000007fff );
 800b78c:	800000b7          	lui	ra,0x80000
 800b790:	fff0809b          	addiw	ra,ra,-1
 800b794:	00008137          	lui	sp,0x8
 800b798:	fff1011b          	addiw	sp,sp,-1
 800b79c:	4020873b          	subw	a4,ra,sp
 800b7a0:	7fff8eb7          	lui	t4,0x7fff8
 800b7a4:	00a00193          	li	gp,10
 800b7a8:	01d70463          	beq	a4,t4,800b7b0 <test_11>
 800b7ac:	14d0606f          	j	80120f8 <fail>

000000000800b7b0 <test_11>:

  TEST_RR_OP( 11, subw, 0x000000007fff8001, 0xffffffff80000000, 0x0000000000007fff );
 800b7b0:	800000b7          	lui	ra,0x80000
 800b7b4:	00008137          	lui	sp,0x8
 800b7b8:	fff1011b          	addiw	sp,sp,-1
 800b7bc:	4020873b          	subw	a4,ra,sp
 800b7c0:	7fff8eb7          	lui	t4,0x7fff8
 800b7c4:	001e8e9b          	addiw	t4,t4,1
 800b7c8:	00b00193          	li	gp,11
 800b7cc:	01d70463          	beq	a4,t4,800b7d4 <test_12>
 800b7d0:	1290606f          	j	80120f8 <fail>

000000000800b7d4 <test_12>:
  TEST_RR_OP( 12, subw, 0xffffffff80007fff, 0x000000007fffffff, 0xffffffffffff8000 );
 800b7d4:	800000b7          	lui	ra,0x80000
 800b7d8:	fff0809b          	addiw	ra,ra,-1
 800b7dc:	ffff8137          	lui	sp,0xffff8
 800b7e0:	4020873b          	subw	a4,ra,sp
 800b7e4:	80008eb7          	lui	t4,0x80008
 800b7e8:	fffe8e9b          	addiw	t4,t4,-1
 800b7ec:	00c00193          	li	gp,12
 800b7f0:	01d70463          	beq	a4,t4,800b7f8 <test_13>
 800b7f4:	1050606f          	j	80120f8 <fail>

000000000800b7f8 <test_13>:

  TEST_RR_OP( 13, subw, 0x0000000000000001, 0x0000000000000000, 0xffffffffffffffff );
 800b7f8:	00000093          	li	ra,0
 800b7fc:	fff00113          	li	sp,-1
 800b800:	4020873b          	subw	a4,ra,sp
 800b804:	00100e93          	li	t4,1
 800b808:	00d00193          	li	gp,13
 800b80c:	01d70463          	beq	a4,t4,800b814 <test_14>
 800b810:	0e90606f          	j	80120f8 <fail>

000000000800b814 <test_14>:
  TEST_RR_OP( 14, subw, 0xfffffffffffffffe, 0xffffffffffffffff, 0x0000000000000001 );
 800b814:	fff00093          	li	ra,-1
 800b818:	00100113          	li	sp,1
 800b81c:	4020873b          	subw	a4,ra,sp
 800b820:	ffe00e93          	li	t4,-2
 800b824:	00e00193          	li	gp,14
 800b828:	01d70463          	beq	a4,t4,800b830 <test_15>
 800b82c:	0cd0606f          	j	80120f8 <fail>

000000000800b830 <test_15>:
  TEST_RR_OP( 15, subw, 0x0000000000000000, 0xffffffffffffffff, 0xffffffffffffffff );
 800b830:	fff00093          	li	ra,-1
 800b834:	fff00113          	li	sp,-1
 800b838:	4020873b          	subw	a4,ra,sp
 800b83c:	00000e93          	li	t4,0
 800b840:	00f00193          	li	gp,15
 800b844:	01d70463          	beq	a4,t4,800b84c <test_16>
 800b848:	0b10606f          	j	80120f8 <fail>

000000000800b84c <test_16>:

  #-------------------------------------------------------------
  # Source/Destination tests
  #-------------------------------------------------------------

  TEST_RR_SRC1_EQ_DEST( 16, subw, 2, 13, 11 );
 800b84c:	00d00093          	li	ra,13
 800b850:	00b00113          	li	sp,11
 800b854:	402080bb          	subw	ra,ra,sp
 800b858:	00200e93          	li	t4,2
 800b85c:	01000193          	li	gp,16
 800b860:	01d08463          	beq	ra,t4,800b868 <test_17>
 800b864:	0950606f          	j	80120f8 <fail>

000000000800b868 <test_17>:
  TEST_RR_SRC2_EQ_DEST( 17, subw, 3, 14, 11 );
 800b868:	00e00093          	li	ra,14
 800b86c:	00b00113          	li	sp,11
 800b870:	4020813b          	subw	sp,ra,sp
 800b874:	00300e93          	li	t4,3
 800b878:	01100193          	li	gp,17
 800b87c:	01d10463          	beq	sp,t4,800b884 <test_18>
 800b880:	0790606f          	j	80120f8 <fail>

000000000800b884 <test_18>:
  TEST_RR_SRC12_EQ_DEST( 18, subw, 0, 13 );
 800b884:	00d00093          	li	ra,13
 800b888:	401080bb          	subw	ra,ra,ra
 800b88c:	00000e93          	li	t4,0
 800b890:	01200193          	li	gp,18
 800b894:	01d08463          	beq	ra,t4,800b89c <test_19>
 800b898:	0610606f          	j	80120f8 <fail>

000000000800b89c <test_19>:

  #-------------------------------------------------------------
  # Bypassing tests
  #-------------------------------------------------------------

  TEST_RR_DEST_BYPASS( 19, 0, subw, 2, 13, 11 );
 800b89c:	00000213          	li	tp,0
 800b8a0:	00d00093          	li	ra,13
 800b8a4:	00b00113          	li	sp,11
 800b8a8:	4020873b          	subw	a4,ra,sp
 800b8ac:	00070313          	mv	t1,a4
 800b8b0:	00120213          	addi	tp,tp,1 # 1 <u_mode_trap_table-0x8000003>
 800b8b4:	00200293          	li	t0,2
 800b8b8:	fe5214e3          	bne	tp,t0,800b8a0 <test_19+0x4>
 800b8bc:	00200e93          	li	t4,2
 800b8c0:	01300193          	li	gp,19
 800b8c4:	01d30463          	beq	t1,t4,800b8cc <test_20>
 800b8c8:	0310606f          	j	80120f8 <fail>

000000000800b8cc <test_20>:
  TEST_RR_DEST_BYPASS( 20, 1, subw, 3, 14, 11 );
 800b8cc:	00000213          	li	tp,0
 800b8d0:	00e00093          	li	ra,14
 800b8d4:	00b00113          	li	sp,11
 800b8d8:	4020873b          	subw	a4,ra,sp
 800b8dc:	00000013          	nop
 800b8e0:	00070313          	mv	t1,a4
 800b8e4:	00120213          	addi	tp,tp,1 # 1 <u_mode_trap_table-0x8000003>
 800b8e8:	00200293          	li	t0,2
 800b8ec:	fe5212e3          	bne	tp,t0,800b8d0 <test_20+0x4>
 800b8f0:	00300e93          	li	t4,3
 800b8f4:	01400193          	li	gp,20
 800b8f8:	01d30463          	beq	t1,t4,800b900 <test_21>
 800b8fc:	7fc0606f          	j	80120f8 <fail>

000000000800b900 <test_21>:
  TEST_RR_DEST_BYPASS( 21, 2, subw, 4, 15, 11 );
 800b900:	00000213          	li	tp,0
 800b904:	00f00093          	li	ra,15
 800b908:	00b00113          	li	sp,11
 800b90c:	4020873b          	subw	a4,ra,sp
 800b910:	00000013          	nop
 800b914:	00000013          	nop
 800b918:	00070313          	mv	t1,a4
 800b91c:	00120213          	addi	tp,tp,1 # 1 <u_mode_trap_table-0x8000003>
 800b920:	00200293          	li	t0,2
 800b924:	fe5210e3          	bne	tp,t0,800b904 <test_21+0x4>
 800b928:	00400e93          	li	t4,4
 800b92c:	01500193          	li	gp,21
 800b930:	01d30463          	beq	t1,t4,800b938 <test_22>
 800b934:	7c40606f          	j	80120f8 <fail>

000000000800b938 <test_22>:

  TEST_RR_SRC12_BYPASS( 22, 0, 0, subw, 2, 13, 11 );
 800b938:	00000213          	li	tp,0
 800b93c:	00d00093          	li	ra,13
 800b940:	00b00113          	li	sp,11
 800b944:	4020873b          	subw	a4,ra,sp
 800b948:	00120213          	addi	tp,tp,1 # 1 <u_mode_trap_table-0x8000003>
 800b94c:	00200293          	li	t0,2
 800b950:	fe5216e3          	bne	tp,t0,800b93c <test_22+0x4>
 800b954:	00200e93          	li	t4,2
 800b958:	01600193          	li	gp,22
 800b95c:	01d70463          	beq	a4,t4,800b964 <test_23>
 800b960:	7980606f          	j	80120f8 <fail>

000000000800b964 <test_23>:
  TEST_RR_SRC12_BYPASS( 23, 0, 1, subw, 3, 14, 11 );
 800b964:	00000213          	li	tp,0
 800b968:	00e00093          	li	ra,14
 800b96c:	00b00113          	li	sp,11
 800b970:	00000013          	nop
 800b974:	4020873b          	subw	a4,ra,sp
 800b978:	00120213          	addi	tp,tp,1 # 1 <u_mode_trap_table-0x8000003>
 800b97c:	00200293          	li	t0,2
 800b980:	fe5214e3          	bne	tp,t0,800b968 <test_23+0x4>
 800b984:	00300e93          	li	t4,3
 800b988:	01700193          	li	gp,23
 800b98c:	01d70463          	beq	a4,t4,800b994 <test_24>
 800b990:	7680606f          	j	80120f8 <fail>

000000000800b994 <test_24>:
  TEST_RR_SRC12_BYPASS( 24, 0, 2, subw, 4, 15, 11 );
 800b994:	00000213          	li	tp,0
 800b998:	00f00093          	li	ra,15
 800b99c:	00b00113          	li	sp,11
 800b9a0:	00000013          	nop
 800b9a4:	00000013          	nop
 800b9a8:	4020873b          	subw	a4,ra,sp
 800b9ac:	00120213          	addi	tp,tp,1 # 1 <u_mode_trap_table-0x8000003>
 800b9b0:	00200293          	li	t0,2
 800b9b4:	fe5212e3          	bne	tp,t0,800b998 <test_24+0x4>
 800b9b8:	00400e93          	li	t4,4
 800b9bc:	01800193          	li	gp,24
 800b9c0:	01d70463          	beq	a4,t4,800b9c8 <test_25>
 800b9c4:	7340606f          	j	80120f8 <fail>

000000000800b9c8 <test_25>:
  TEST_RR_SRC12_BYPASS( 25, 1, 0, subw, 2, 13, 11 );
 800b9c8:	00000213          	li	tp,0
 800b9cc:	00d00093          	li	ra,13
 800b9d0:	00000013          	nop
 800b9d4:	00b00113          	li	sp,11
 800b9d8:	4020873b          	subw	a4,ra,sp
 800b9dc:	00120213          	addi	tp,tp,1 # 1 <u_mode_trap_table-0x8000003>
 800b9e0:	00200293          	li	t0,2
 800b9e4:	fe5214e3          	bne	tp,t0,800b9cc <test_25+0x4>
 800b9e8:	00200e93          	li	t4,2
 800b9ec:	01900193          	li	gp,25
 800b9f0:	01d70463          	beq	a4,t4,800b9f8 <test_26>
 800b9f4:	7040606f          	j	80120f8 <fail>

000000000800b9f8 <test_26>:
  TEST_RR_SRC12_BYPASS( 26, 1, 1, subw, 3, 14, 11 );
 800b9f8:	00000213          	li	tp,0
 800b9fc:	00e00093          	li	ra,14
 800ba00:	00000013          	nop
 800ba04:	00b00113          	li	sp,11
 800ba08:	00000013          	nop
 800ba0c:	4020873b          	subw	a4,ra,sp
 800ba10:	00120213          	addi	tp,tp,1 # 1 <u_mode_trap_table-0x8000003>
 800ba14:	00200293          	li	t0,2
 800ba18:	fe5212e3          	bne	tp,t0,800b9fc <test_26+0x4>
 800ba1c:	00300e93          	li	t4,3
 800ba20:	01a00193          	li	gp,26
 800ba24:	01d70463          	beq	a4,t4,800ba2c <test_27>
 800ba28:	6d00606f          	j	80120f8 <fail>

000000000800ba2c <test_27>:
  TEST_RR_SRC12_BYPASS( 27, 2, 0, subw, 4, 15, 11 );
 800ba2c:	00000213          	li	tp,0
 800ba30:	00f00093          	li	ra,15
 800ba34:	00000013          	nop
 800ba38:	00000013          	nop
 800ba3c:	00b00113          	li	sp,11
 800ba40:	4020873b          	subw	a4,ra,sp
 800ba44:	00120213          	addi	tp,tp,1 # 1 <u_mode_trap_table-0x8000003>
 800ba48:	00200293          	li	t0,2
 800ba4c:	fe5212e3          	bne	tp,t0,800ba30 <test_27+0x4>
 800ba50:	00400e93          	li	t4,4
 800ba54:	01b00193          	li	gp,27
 800ba58:	01d70463          	beq	a4,t4,800ba60 <test_28>
 800ba5c:	69c0606f          	j	80120f8 <fail>

000000000800ba60 <test_28>:

  TEST_RR_SRC21_BYPASS( 28, 0, 0, subw, 2, 13, 11 );
 800ba60:	00000213          	li	tp,0
 800ba64:	00b00113          	li	sp,11
 800ba68:	00d00093          	li	ra,13
 800ba6c:	4020873b          	subw	a4,ra,sp
 800ba70:	00120213          	addi	tp,tp,1 # 1 <u_mode_trap_table-0x8000003>
 800ba74:	00200293          	li	t0,2
 800ba78:	fe5216e3          	bne	tp,t0,800ba64 <test_28+0x4>
 800ba7c:	00200e93          	li	t4,2
 800ba80:	01c00193          	li	gp,28
 800ba84:	01d70463          	beq	a4,t4,800ba8c <test_29>
 800ba88:	6700606f          	j	80120f8 <fail>

000000000800ba8c <test_29>:
  TEST_RR_SRC21_BYPASS( 29, 0, 1, subw, 3, 14, 11 );
 800ba8c:	00000213          	li	tp,0
 800ba90:	00b00113          	li	sp,11
 800ba94:	00e00093          	li	ra,14
 800ba98:	00000013          	nop
 800ba9c:	4020873b          	subw	a4,ra,sp
 800baa0:	00120213          	addi	tp,tp,1 # 1 <u_mode_trap_table-0x8000003>
 800baa4:	00200293          	li	t0,2
 800baa8:	fe5214e3          	bne	tp,t0,800ba90 <test_29+0x4>
 800baac:	00300e93          	li	t4,3
 800bab0:	01d00193          	li	gp,29
 800bab4:	01d70463          	beq	a4,t4,800babc <test_30>
 800bab8:	6400606f          	j	80120f8 <fail>

000000000800babc <test_30>:
  TEST_RR_SRC21_BYPASS( 30, 0, 2, subw, 4, 15, 11 );
 800babc:	00000213          	li	tp,0
 800bac0:	00b00113          	li	sp,11
 800bac4:	00f00093          	li	ra,15
 800bac8:	00000013          	nop
 800bacc:	00000013          	nop
 800bad0:	4020873b          	subw	a4,ra,sp
 800bad4:	00120213          	addi	tp,tp,1 # 1 <u_mode_trap_table-0x8000003>
 800bad8:	00200293          	li	t0,2
 800badc:	fe5212e3          	bne	tp,t0,800bac0 <test_30+0x4>
 800bae0:	00400e93          	li	t4,4
 800bae4:	01e00193          	li	gp,30
 800bae8:	01d70463          	beq	a4,t4,800baf0 <test_31>
 800baec:	60c0606f          	j	80120f8 <fail>

000000000800baf0 <test_31>:
  TEST_RR_SRC21_BYPASS( 31, 1, 0, subw, 2, 13, 11 );
 800baf0:	00000213          	li	tp,0
 800baf4:	00b00113          	li	sp,11
 800baf8:	00000013          	nop
 800bafc:	00d00093          	li	ra,13
 800bb00:	4020873b          	subw	a4,ra,sp
 800bb04:	00120213          	addi	tp,tp,1 # 1 <u_mode_trap_table-0x8000003>
 800bb08:	00200293          	li	t0,2
 800bb0c:	fe5214e3          	bne	tp,t0,800baf4 <test_31+0x4>
 800bb10:	00200e93          	li	t4,2
 800bb14:	01f00193          	li	gp,31
 800bb18:	01d70463          	beq	a4,t4,800bb20 <test_32>
 800bb1c:	5dc0606f          	j	80120f8 <fail>

000000000800bb20 <test_32>:
  TEST_RR_SRC21_BYPASS( 32, 1, 1, subw, 3, 14, 11 );
 800bb20:	00000213          	li	tp,0
 800bb24:	00b00113          	li	sp,11
 800bb28:	00000013          	nop
 800bb2c:	00e00093          	li	ra,14
 800bb30:	00000013          	nop
 800bb34:	4020873b          	subw	a4,ra,sp
 800bb38:	00120213          	addi	tp,tp,1 # 1 <u_mode_trap_table-0x8000003>
 800bb3c:	00200293          	li	t0,2
 800bb40:	fe5212e3          	bne	tp,t0,800bb24 <test_32+0x4>
 800bb44:	00300e93          	li	t4,3
 800bb48:	02000193          	li	gp,32
 800bb4c:	01d70463          	beq	a4,t4,800bb54 <test_33>
 800bb50:	5a80606f          	j	80120f8 <fail>

000000000800bb54 <test_33>:
  TEST_RR_SRC21_BYPASS( 33, 2, 0, subw, 4, 15, 11 );
 800bb54:	00000213          	li	tp,0
 800bb58:	00b00113          	li	sp,11
 800bb5c:	00000013          	nop
 800bb60:	00000013          	nop
 800bb64:	00f00093          	li	ra,15
 800bb68:	4020873b          	subw	a4,ra,sp
 800bb6c:	00120213          	addi	tp,tp,1 # 1 <u_mode_trap_table-0x8000003>
 800bb70:	00200293          	li	t0,2
 800bb74:	fe5212e3          	bne	tp,t0,800bb58 <test_33+0x4>
 800bb78:	00400e93          	li	t4,4
 800bb7c:	02100193          	li	gp,33
 800bb80:	01d70463          	beq	a4,t4,800bb88 <test_34>
 800bb84:	5740606f          	j	80120f8 <fail>

000000000800bb88 <test_34>:

  TEST_RR_ZEROSRC1( 34, subw, 15, -15 );
 800bb88:	ff100093          	li	ra,-15
 800bb8c:	4010013b          	negw	sp,ra
 800bb90:	00f00e93          	li	t4,15
 800bb94:	02200193          	li	gp,34
 800bb98:	01d10463          	beq	sp,t4,800bba0 <test_35>
 800bb9c:	55c0606f          	j	80120f8 <fail>

000000000800bba0 <test_35>:
  TEST_RR_ZEROSRC2( 35, subw, 32, 32 );
 800bba0:	02000093          	li	ra,32
 800bba4:	4000813b          	subw	sp,ra,zero
 800bba8:	02000e93          	li	t4,32
 800bbac:	02300193          	li	gp,35
 800bbb0:	01d10463          	beq	sp,t4,800bbb8 <test_36>
 800bbb4:	5440606f          	j	80120f8 <fail>

000000000800bbb8 <test_36>:
  TEST_RR_ZEROSRC12( 36, subw, 0 );
 800bbb8:	400000bb          	negw	ra,zero
 800bbbc:	00000e93          	li	t4,0
 800bbc0:	02400193          	li	gp,36
 800bbc4:	01d08463          	beq	ra,t4,800bbcc <test_37>
 800bbc8:	5300606f          	j	80120f8 <fail>

000000000800bbcc <test_37>:
  TEST_RR_ZERODEST( 37, subw, 16, 30 );
 800bbcc:	01000093          	li	ra,16
 800bbd0:	01e00113          	li	sp,30
 800bbd4:	4020803b          	subw	zero,ra,sp
 800bbd8:	00000e93          	li	t4,0
 800bbdc:	02500193          	li	gp,37
 800bbe0:	01d00463          	beq	zero,t4,800bbe8 <test_37+0x1c>
 800bbe4:	5140606f          	j	80120f8 <fail>

  TEST_PASSFAIL

RVTEST_CODE_END
 800bbe8:	c0001073          	unimp

000000000800bbec <test_2>:

  #-------------------------------------------------------------
  # Logical tests
  #-------------------------------------------------------------

  TEST_RR_OP( 2, xor, 0xf00ff00f, 0xff00ff00, 0x0f0f0f0f );
 800bbec:	000100b7          	lui	ra,0x10
 800bbf0:	f010809b          	addiw	ra,ra,-255
 800bbf4:	01009093          	slli	ra,ra,0x10
 800bbf8:	f0008093          	addi	ra,ra,-256 # ff00 <u_mode_trap_table-0x7ff0104>
 800bbfc:	0f0f1137          	lui	sp,0xf0f1
 800bc00:	f0f1011b          	addiw	sp,sp,-241
 800bc04:	0020c733          	xor	a4,ra,sp
 800bc08:	000f0eb7          	lui	t4,0xf0
 800bc0c:	0ffe8e9b          	addiw	t4,t4,255
 800bc10:	00ce9e93          	slli	t4,t4,0xc
 800bc14:	00fe8e93          	addi	t4,t4,15 # f000f <u_mode_trap_table-0x7f0fff5>
 800bc18:	00200193          	li	gp,2
 800bc1c:	01d70463          	beq	a4,t4,800bc24 <test_3>
 800bc20:	4d80606f          	j	80120f8 <fail>

000000000800bc24 <test_3>:
  TEST_RR_OP( 3, xor, 0xff00ff00, 0x0ff00ff0, 0xf0f0f0f0 );
 800bc24:	0ff010b7          	lui	ra,0xff01
 800bc28:	ff00809b          	addiw	ra,ra,-16
 800bc2c:	000f1137          	lui	sp,0xf1
 800bc30:	f0f1011b          	addiw	sp,sp,-241
 800bc34:	00c11113          	slli	sp,sp,0xc
 800bc38:	0f010113          	addi	sp,sp,240 # f10f0 <u_mode_trap_table-0x7f0ef14>
 800bc3c:	0020c733          	xor	a4,ra,sp
 800bc40:	00010eb7          	lui	t4,0x10
 800bc44:	f01e8e9b          	addiw	t4,t4,-255
 800bc48:	010e9e93          	slli	t4,t4,0x10
 800bc4c:	f00e8e93          	addi	t4,t4,-256 # ff00 <u_mode_trap_table-0x7ff0104>
 800bc50:	00300193          	li	gp,3
 800bc54:	01d70463          	beq	a4,t4,800bc5c <test_4>
 800bc58:	4a00606f          	j	80120f8 <fail>

000000000800bc5c <test_4>:
  TEST_RR_OP( 4, xor, 0x0ff00ff0, 0x00ff00ff, 0x0f0f0f0f );
 800bc5c:	00ff00b7          	lui	ra,0xff0
 800bc60:	0ff0809b          	addiw	ra,ra,255
 800bc64:	0f0f1137          	lui	sp,0xf0f1
 800bc68:	f0f1011b          	addiw	sp,sp,-241
 800bc6c:	0020c733          	xor	a4,ra,sp
 800bc70:	0ff01eb7          	lui	t4,0xff01
 800bc74:	ff0e8e9b          	addiw	t4,t4,-16
 800bc78:	00400193          	li	gp,4
 800bc7c:	01d70463          	beq	a4,t4,800bc84 <test_5>
 800bc80:	4780606f          	j	80120f8 <fail>

000000000800bc84 <test_5>:
  TEST_RR_OP( 5, xor, 0x00ff00ff, 0xf00ff00f, 0xf0f0f0f0 );
 800bc84:	000f00b7          	lui	ra,0xf0
 800bc88:	0ff0809b          	addiw	ra,ra,255
 800bc8c:	00c09093          	slli	ra,ra,0xc
 800bc90:	00f08093          	addi	ra,ra,15 # f000f <u_mode_trap_table-0x7f0fff5>
 800bc94:	000f1137          	lui	sp,0xf1
 800bc98:	f0f1011b          	addiw	sp,sp,-241
 800bc9c:	00c11113          	slli	sp,sp,0xc
 800bca0:	0f010113          	addi	sp,sp,240 # f10f0 <u_mode_trap_table-0x7f0ef14>
 800bca4:	0020c733          	xor	a4,ra,sp
 800bca8:	00ff0eb7          	lui	t4,0xff0
 800bcac:	0ffe8e9b          	addiw	t4,t4,255
 800bcb0:	00500193          	li	gp,5
 800bcb4:	01d70463          	beq	a4,t4,800bcbc <test_6>
 800bcb8:	4400606f          	j	80120f8 <fail>

000000000800bcbc <test_6>:

  #-------------------------------------------------------------
  # Source/Destination tests
  #-------------------------------------------------------------

  TEST_RR_SRC1_EQ_DEST( 6, xor, 0xf00ff00f, 0xff00ff00, 0x0f0f0f0f );
 800bcbc:	000100b7          	lui	ra,0x10
 800bcc0:	f010809b          	addiw	ra,ra,-255
 800bcc4:	01009093          	slli	ra,ra,0x10
 800bcc8:	f0008093          	addi	ra,ra,-256 # ff00 <u_mode_trap_table-0x7ff0104>
 800bccc:	0f0f1137          	lui	sp,0xf0f1
 800bcd0:	f0f1011b          	addiw	sp,sp,-241
 800bcd4:	0020c0b3          	xor	ra,ra,sp
 800bcd8:	000f0eb7          	lui	t4,0xf0
 800bcdc:	0ffe8e9b          	addiw	t4,t4,255
 800bce0:	00ce9e93          	slli	t4,t4,0xc
 800bce4:	00fe8e93          	addi	t4,t4,15 # f000f <u_mode_trap_table-0x7f0fff5>
 800bce8:	00600193          	li	gp,6
 800bcec:	01d08463          	beq	ra,t4,800bcf4 <test_7>
 800bcf0:	4080606f          	j	80120f8 <fail>

000000000800bcf4 <test_7>:
  TEST_RR_SRC2_EQ_DEST( 7, xor, 0xf00ff00f, 0xff00ff00, 0x0f0f0f0f );
 800bcf4:	000100b7          	lui	ra,0x10
 800bcf8:	f010809b          	addiw	ra,ra,-255
 800bcfc:	01009093          	slli	ra,ra,0x10
 800bd00:	f0008093          	addi	ra,ra,-256 # ff00 <u_mode_trap_table-0x7ff0104>
 800bd04:	0f0f1137          	lui	sp,0xf0f1
 800bd08:	f0f1011b          	addiw	sp,sp,-241
 800bd0c:	0020c133          	xor	sp,ra,sp
 800bd10:	000f0eb7          	lui	t4,0xf0
 800bd14:	0ffe8e9b          	addiw	t4,t4,255
 800bd18:	00ce9e93          	slli	t4,t4,0xc
 800bd1c:	00fe8e93          	addi	t4,t4,15 # f000f <u_mode_trap_table-0x7f0fff5>
 800bd20:	00700193          	li	gp,7
 800bd24:	01d10463          	beq	sp,t4,800bd2c <test_8>
 800bd28:	3d00606f          	j	80120f8 <fail>

000000000800bd2c <test_8>:
  TEST_RR_SRC12_EQ_DEST( 8, xor, 0x00000000, 0xff00ff00 );
 800bd2c:	000100b7          	lui	ra,0x10
 800bd30:	f010809b          	addiw	ra,ra,-255
 800bd34:	01009093          	slli	ra,ra,0x10
 800bd38:	f0008093          	addi	ra,ra,-256 # ff00 <u_mode_trap_table-0x7ff0104>
 800bd3c:	0010c0b3          	xor	ra,ra,ra
 800bd40:	00000e93          	li	t4,0
 800bd44:	00800193          	li	gp,8
 800bd48:	01d08463          	beq	ra,t4,800bd50 <test_9>
 800bd4c:	3ac0606f          	j	80120f8 <fail>

000000000800bd50 <test_9>:

  #-------------------------------------------------------------
  # Bypassing tests
  #-------------------------------------------------------------

  TEST_RR_DEST_BYPASS( 9,  0, xor, 0xf00ff00f, 0xff00ff00, 0x0f0f0f0f );
 800bd50:	00000213          	li	tp,0
 800bd54:	000100b7          	lui	ra,0x10
 800bd58:	f010809b          	addiw	ra,ra,-255
 800bd5c:	01009093          	slli	ra,ra,0x10
 800bd60:	f0008093          	addi	ra,ra,-256 # ff00 <u_mode_trap_table-0x7ff0104>
 800bd64:	0f0f1137          	lui	sp,0xf0f1
 800bd68:	f0f1011b          	addiw	sp,sp,-241
 800bd6c:	0020c733          	xor	a4,ra,sp
 800bd70:	00070313          	mv	t1,a4
 800bd74:	00120213          	addi	tp,tp,1 # 1 <u_mode_trap_table-0x8000003>
 800bd78:	00200293          	li	t0,2
 800bd7c:	fc521ce3          	bne	tp,t0,800bd54 <test_9+0x4>
 800bd80:	000f0eb7          	lui	t4,0xf0
 800bd84:	0ffe8e9b          	addiw	t4,t4,255
 800bd88:	00ce9e93          	slli	t4,t4,0xc
 800bd8c:	00fe8e93          	addi	t4,t4,15 # f000f <u_mode_trap_table-0x7f0fff5>
 800bd90:	00900193          	li	gp,9
 800bd94:	01d30463          	beq	t1,t4,800bd9c <test_10>
 800bd98:	3600606f          	j	80120f8 <fail>

000000000800bd9c <test_10>:
  TEST_RR_DEST_BYPASS( 10, 1, xor, 0xff00ff00, 0x0ff00ff0, 0xf0f0f0f0 );
 800bd9c:	00000213          	li	tp,0
 800bda0:	0ff010b7          	lui	ra,0xff01
 800bda4:	ff00809b          	addiw	ra,ra,-16
 800bda8:	000f1137          	lui	sp,0xf1
 800bdac:	f0f1011b          	addiw	sp,sp,-241
 800bdb0:	00c11113          	slli	sp,sp,0xc
 800bdb4:	0f010113          	addi	sp,sp,240 # f10f0 <u_mode_trap_table-0x7f0ef14>
 800bdb8:	0020c733          	xor	a4,ra,sp
 800bdbc:	00000013          	nop
 800bdc0:	00070313          	mv	t1,a4
 800bdc4:	00120213          	addi	tp,tp,1 # 1 <u_mode_trap_table-0x8000003>
 800bdc8:	00200293          	li	t0,2
 800bdcc:	fc521ae3          	bne	tp,t0,800bda0 <test_10+0x4>
 800bdd0:	00010eb7          	lui	t4,0x10
 800bdd4:	f01e8e9b          	addiw	t4,t4,-255
 800bdd8:	010e9e93          	slli	t4,t4,0x10
 800bddc:	f00e8e93          	addi	t4,t4,-256 # ff00 <u_mode_trap_table-0x7ff0104>
 800bde0:	00a00193          	li	gp,10
 800bde4:	01d30463          	beq	t1,t4,800bdec <test_11>
 800bde8:	3100606f          	j	80120f8 <fail>

000000000800bdec <test_11>:
  TEST_RR_DEST_BYPASS( 11, 2, xor, 0x0ff00ff0, 0x00ff00ff, 0x0f0f0f0f );
 800bdec:	00000213          	li	tp,0
 800bdf0:	00ff00b7          	lui	ra,0xff0
 800bdf4:	0ff0809b          	addiw	ra,ra,255
 800bdf8:	0f0f1137          	lui	sp,0xf0f1
 800bdfc:	f0f1011b          	addiw	sp,sp,-241
 800be00:	0020c733          	xor	a4,ra,sp
 800be04:	00000013          	nop
 800be08:	00000013          	nop
 800be0c:	00070313          	mv	t1,a4
 800be10:	00120213          	addi	tp,tp,1 # 1 <u_mode_trap_table-0x8000003>
 800be14:	00200293          	li	t0,2
 800be18:	fc521ce3          	bne	tp,t0,800bdf0 <test_11+0x4>
 800be1c:	0ff01eb7          	lui	t4,0xff01
 800be20:	ff0e8e9b          	addiw	t4,t4,-16
 800be24:	00b00193          	li	gp,11
 800be28:	01d30463          	beq	t1,t4,800be30 <test_12>
 800be2c:	2cc0606f          	j	80120f8 <fail>

000000000800be30 <test_12>:

  TEST_RR_SRC12_BYPASS( 12, 0, 0, xor, 0xf00ff00f, 0xff00ff00, 0x0f0f0f0f );
 800be30:	00000213          	li	tp,0
 800be34:	000100b7          	lui	ra,0x10
 800be38:	f010809b          	addiw	ra,ra,-255
 800be3c:	01009093          	slli	ra,ra,0x10
 800be40:	f0008093          	addi	ra,ra,-256 # ff00 <u_mode_trap_table-0x7ff0104>
 800be44:	0f0f1137          	lui	sp,0xf0f1
 800be48:	f0f1011b          	addiw	sp,sp,-241
 800be4c:	0020c733          	xor	a4,ra,sp
 800be50:	00120213          	addi	tp,tp,1 # 1 <u_mode_trap_table-0x8000003>
 800be54:	00200293          	li	t0,2
 800be58:	fc521ee3          	bne	tp,t0,800be34 <test_12+0x4>
 800be5c:	000f0eb7          	lui	t4,0xf0
 800be60:	0ffe8e9b          	addiw	t4,t4,255
 800be64:	00ce9e93          	slli	t4,t4,0xc
 800be68:	00fe8e93          	addi	t4,t4,15 # f000f <u_mode_trap_table-0x7f0fff5>
 800be6c:	00c00193          	li	gp,12
 800be70:	01d70463          	beq	a4,t4,800be78 <test_13>
 800be74:	2840606f          	j	80120f8 <fail>

000000000800be78 <test_13>:
  TEST_RR_SRC12_BYPASS( 13, 0, 1, xor, 0xff00ff00, 0x0ff00ff0, 0xf0f0f0f0 );
 800be78:	00000213          	li	tp,0
 800be7c:	0ff010b7          	lui	ra,0xff01
 800be80:	ff00809b          	addiw	ra,ra,-16
 800be84:	000f1137          	lui	sp,0xf1
 800be88:	f0f1011b          	addiw	sp,sp,-241
 800be8c:	00c11113          	slli	sp,sp,0xc
 800be90:	0f010113          	addi	sp,sp,240 # f10f0 <u_mode_trap_table-0x7f0ef14>
 800be94:	00000013          	nop
 800be98:	0020c733          	xor	a4,ra,sp
 800be9c:	00120213          	addi	tp,tp,1 # 1 <u_mode_trap_table-0x8000003>
 800bea0:	00200293          	li	t0,2
 800bea4:	fc521ce3          	bne	tp,t0,800be7c <test_13+0x4>
 800bea8:	00010eb7          	lui	t4,0x10
 800beac:	f01e8e9b          	addiw	t4,t4,-255
 800beb0:	010e9e93          	slli	t4,t4,0x10
 800beb4:	f00e8e93          	addi	t4,t4,-256 # ff00 <u_mode_trap_table-0x7ff0104>
 800beb8:	00d00193          	li	gp,13
 800bebc:	01d70463          	beq	a4,t4,800bec4 <test_14>
 800bec0:	2380606f          	j	80120f8 <fail>

000000000800bec4 <test_14>:
  TEST_RR_SRC12_BYPASS( 14, 0, 2, xor, 0x0ff00ff0, 0x00ff00ff, 0x0f0f0f0f );
 800bec4:	00000213          	li	tp,0
 800bec8:	00ff00b7          	lui	ra,0xff0
 800becc:	0ff0809b          	addiw	ra,ra,255
 800bed0:	0f0f1137          	lui	sp,0xf0f1
 800bed4:	f0f1011b          	addiw	sp,sp,-241
 800bed8:	00000013          	nop
 800bedc:	00000013          	nop
 800bee0:	0020c733          	xor	a4,ra,sp
 800bee4:	00120213          	addi	tp,tp,1 # 1 <u_mode_trap_table-0x8000003>
 800bee8:	00200293          	li	t0,2
 800beec:	fc521ee3          	bne	tp,t0,800bec8 <test_14+0x4>
 800bef0:	0ff01eb7          	lui	t4,0xff01
 800bef4:	ff0e8e9b          	addiw	t4,t4,-16
 800bef8:	00e00193          	li	gp,14
 800befc:	01d70463          	beq	a4,t4,800bf04 <test_15>
 800bf00:	1f80606f          	j	80120f8 <fail>

000000000800bf04 <test_15>:
  TEST_RR_SRC12_BYPASS( 15, 1, 0, xor, 0xf00ff00f, 0xff00ff00, 0x0f0f0f0f );
 800bf04:	00000213          	li	tp,0
 800bf08:	000100b7          	lui	ra,0x10
 800bf0c:	f010809b          	addiw	ra,ra,-255
 800bf10:	01009093          	slli	ra,ra,0x10
 800bf14:	f0008093          	addi	ra,ra,-256 # ff00 <u_mode_trap_table-0x7ff0104>
 800bf18:	00000013          	nop
 800bf1c:	0f0f1137          	lui	sp,0xf0f1
 800bf20:	f0f1011b          	addiw	sp,sp,-241
 800bf24:	0020c733          	xor	a4,ra,sp
 800bf28:	00120213          	addi	tp,tp,1 # 1 <u_mode_trap_table-0x8000003>
 800bf2c:	00200293          	li	t0,2
 800bf30:	fc521ce3          	bne	tp,t0,800bf08 <test_15+0x4>
 800bf34:	000f0eb7          	lui	t4,0xf0
 800bf38:	0ffe8e9b          	addiw	t4,t4,255
 800bf3c:	00ce9e93          	slli	t4,t4,0xc
 800bf40:	00fe8e93          	addi	t4,t4,15 # f000f <u_mode_trap_table-0x7f0fff5>
 800bf44:	00f00193          	li	gp,15
 800bf48:	01d70463          	beq	a4,t4,800bf50 <test_16>
 800bf4c:	1ac0606f          	j	80120f8 <fail>

000000000800bf50 <test_16>:
  TEST_RR_SRC12_BYPASS( 16, 1, 1, xor, 0xff00ff00, 0x0ff00ff0, 0xf0f0f0f0 );
 800bf50:	00000213          	li	tp,0
 800bf54:	0ff010b7          	lui	ra,0xff01
 800bf58:	ff00809b          	addiw	ra,ra,-16
 800bf5c:	00000013          	nop
 800bf60:	000f1137          	lui	sp,0xf1
 800bf64:	f0f1011b          	addiw	sp,sp,-241
 800bf68:	00c11113          	slli	sp,sp,0xc
 800bf6c:	0f010113          	addi	sp,sp,240 # f10f0 <u_mode_trap_table-0x7f0ef14>
 800bf70:	00000013          	nop
 800bf74:	0020c733          	xor	a4,ra,sp
 800bf78:	00120213          	addi	tp,tp,1 # 1 <u_mode_trap_table-0x8000003>
 800bf7c:	00200293          	li	t0,2
 800bf80:	fc521ae3          	bne	tp,t0,800bf54 <test_16+0x4>
 800bf84:	00010eb7          	lui	t4,0x10
 800bf88:	f01e8e9b          	addiw	t4,t4,-255
 800bf8c:	010e9e93          	slli	t4,t4,0x10
 800bf90:	f00e8e93          	addi	t4,t4,-256 # ff00 <u_mode_trap_table-0x7ff0104>
 800bf94:	01000193          	li	gp,16
 800bf98:	01d70463          	beq	a4,t4,800bfa0 <test_17>
 800bf9c:	15c0606f          	j	80120f8 <fail>

000000000800bfa0 <test_17>:
  TEST_RR_SRC12_BYPASS( 17, 2, 0, xor, 0x0ff00ff0, 0x00ff00ff, 0x0f0f0f0f );
 800bfa0:	00000213          	li	tp,0
 800bfa4:	00ff00b7          	lui	ra,0xff0
 800bfa8:	0ff0809b          	addiw	ra,ra,255
 800bfac:	00000013          	nop
 800bfb0:	00000013          	nop
 800bfb4:	0f0f1137          	lui	sp,0xf0f1
 800bfb8:	f0f1011b          	addiw	sp,sp,-241
 800bfbc:	0020c733          	xor	a4,ra,sp
 800bfc0:	00120213          	addi	tp,tp,1 # 1 <u_mode_trap_table-0x8000003>
 800bfc4:	00200293          	li	t0,2
 800bfc8:	fc521ee3          	bne	tp,t0,800bfa4 <test_17+0x4>
 800bfcc:	0ff01eb7          	lui	t4,0xff01
 800bfd0:	ff0e8e9b          	addiw	t4,t4,-16
 800bfd4:	01100193          	li	gp,17
 800bfd8:	01d70463          	beq	a4,t4,800bfe0 <test_18>
 800bfdc:	11c0606f          	j	80120f8 <fail>

000000000800bfe0 <test_18>:

  TEST_RR_SRC21_BYPASS( 18, 0, 0, xor, 0xf00ff00f, 0xff00ff00, 0x0f0f0f0f );
 800bfe0:	00000213          	li	tp,0
 800bfe4:	0f0f1137          	lui	sp,0xf0f1
 800bfe8:	f0f1011b          	addiw	sp,sp,-241
 800bfec:	000100b7          	lui	ra,0x10
 800bff0:	f010809b          	addiw	ra,ra,-255
 800bff4:	01009093          	slli	ra,ra,0x10
 800bff8:	f0008093          	addi	ra,ra,-256 # ff00 <u_mode_trap_table-0x7ff0104>
 800bffc:	0020c733          	xor	a4,ra,sp
 800c000:	00120213          	addi	tp,tp,1 # 1 <u_mode_trap_table-0x8000003>
 800c004:	00200293          	li	t0,2
 800c008:	fc521ee3          	bne	tp,t0,800bfe4 <test_18+0x4>
 800c00c:	000f0eb7          	lui	t4,0xf0
 800c010:	0ffe8e9b          	addiw	t4,t4,255
 800c014:	00ce9e93          	slli	t4,t4,0xc
 800c018:	00fe8e93          	addi	t4,t4,15 # f000f <u_mode_trap_table-0x7f0fff5>
 800c01c:	01200193          	li	gp,18
 800c020:	01d70463          	beq	a4,t4,800c028 <test_19>
 800c024:	0d40606f          	j	80120f8 <fail>

000000000800c028 <test_19>:
  TEST_RR_SRC21_BYPASS( 19, 0, 1, xor, 0xff00ff00, 0x0ff00ff0, 0xf0f0f0f0 );
 800c028:	00000213          	li	tp,0
 800c02c:	000f1137          	lui	sp,0xf1
 800c030:	f0f1011b          	addiw	sp,sp,-241
 800c034:	00c11113          	slli	sp,sp,0xc
 800c038:	0f010113          	addi	sp,sp,240 # f10f0 <u_mode_trap_table-0x7f0ef14>
 800c03c:	0ff010b7          	lui	ra,0xff01
 800c040:	ff00809b          	addiw	ra,ra,-16
 800c044:	00000013          	nop
 800c048:	0020c733          	xor	a4,ra,sp
 800c04c:	00120213          	addi	tp,tp,1 # 1 <u_mode_trap_table-0x8000003>
 800c050:	00200293          	li	t0,2
 800c054:	fc521ce3          	bne	tp,t0,800c02c <test_19+0x4>
 800c058:	00010eb7          	lui	t4,0x10
 800c05c:	f01e8e9b          	addiw	t4,t4,-255
 800c060:	010e9e93          	slli	t4,t4,0x10
 800c064:	f00e8e93          	addi	t4,t4,-256 # ff00 <u_mode_trap_table-0x7ff0104>
 800c068:	01300193          	li	gp,19
 800c06c:	01d70463          	beq	a4,t4,800c074 <test_20>
 800c070:	0880606f          	j	80120f8 <fail>

000000000800c074 <test_20>:
  TEST_RR_SRC21_BYPASS( 20, 0, 2, xor, 0x0ff00ff0, 0x00ff00ff, 0x0f0f0f0f );
 800c074:	00000213          	li	tp,0
 800c078:	0f0f1137          	lui	sp,0xf0f1
 800c07c:	f0f1011b          	addiw	sp,sp,-241
 800c080:	00ff00b7          	lui	ra,0xff0
 800c084:	0ff0809b          	addiw	ra,ra,255
 800c088:	00000013          	nop
 800c08c:	00000013          	nop
 800c090:	0020c733          	xor	a4,ra,sp
 800c094:	00120213          	addi	tp,tp,1 # 1 <u_mode_trap_table-0x8000003>
 800c098:	00200293          	li	t0,2
 800c09c:	fc521ee3          	bne	tp,t0,800c078 <test_20+0x4>
 800c0a0:	0ff01eb7          	lui	t4,0xff01
 800c0a4:	ff0e8e9b          	addiw	t4,t4,-16
 800c0a8:	01400193          	li	gp,20
 800c0ac:	01d70463          	beq	a4,t4,800c0b4 <test_21>
 800c0b0:	0480606f          	j	80120f8 <fail>

000000000800c0b4 <test_21>:
  TEST_RR_SRC21_BYPASS( 21, 1, 0, xor, 0xf00ff00f, 0xff00ff00, 0x0f0f0f0f );
 800c0b4:	00000213          	li	tp,0
 800c0b8:	0f0f1137          	lui	sp,0xf0f1
 800c0bc:	f0f1011b          	addiw	sp,sp,-241
 800c0c0:	00000013          	nop
 800c0c4:	000100b7          	lui	ra,0x10
 800c0c8:	f010809b          	addiw	ra,ra,-255
 800c0cc:	01009093          	slli	ra,ra,0x10
 800c0d0:	f0008093          	addi	ra,ra,-256 # ff00 <u_mode_trap_table-0x7ff0104>
 800c0d4:	0020c733          	xor	a4,ra,sp
 800c0d8:	00120213          	addi	tp,tp,1 # 1 <u_mode_trap_table-0x8000003>
 800c0dc:	00200293          	li	t0,2
 800c0e0:	fc521ce3          	bne	tp,t0,800c0b8 <test_21+0x4>
 800c0e4:	000f0eb7          	lui	t4,0xf0
 800c0e8:	0ffe8e9b          	addiw	t4,t4,255
 800c0ec:	00ce9e93          	slli	t4,t4,0xc
 800c0f0:	00fe8e93          	addi	t4,t4,15 # f000f <u_mode_trap_table-0x7f0fff5>
 800c0f4:	01500193          	li	gp,21
 800c0f8:	01d70463          	beq	a4,t4,800c100 <test_22>
 800c0fc:	7fd0506f          	j	80120f8 <fail>

000000000800c100 <test_22>:
  TEST_RR_SRC21_BYPASS( 22, 1, 1, xor, 0xff00ff00, 0x0ff00ff0, 0xf0f0f0f0 );
 800c100:	00000213          	li	tp,0
 800c104:	000f1137          	lui	sp,0xf1
 800c108:	f0f1011b          	addiw	sp,sp,-241
 800c10c:	00c11113          	slli	sp,sp,0xc
 800c110:	0f010113          	addi	sp,sp,240 # f10f0 <u_mode_trap_table-0x7f0ef14>
 800c114:	00000013          	nop
 800c118:	0ff010b7          	lui	ra,0xff01
 800c11c:	ff00809b          	addiw	ra,ra,-16
 800c120:	00000013          	nop
 800c124:	0020c733          	xor	a4,ra,sp
 800c128:	00120213          	addi	tp,tp,1 # 1 <u_mode_trap_table-0x8000003>
 800c12c:	00200293          	li	t0,2
 800c130:	fc521ae3          	bne	tp,t0,800c104 <test_22+0x4>
 800c134:	00010eb7          	lui	t4,0x10
 800c138:	f01e8e9b          	addiw	t4,t4,-255
 800c13c:	010e9e93          	slli	t4,t4,0x10
 800c140:	f00e8e93          	addi	t4,t4,-256 # ff00 <u_mode_trap_table-0x7ff0104>
 800c144:	01600193          	li	gp,22
 800c148:	01d70463          	beq	a4,t4,800c150 <test_23>
 800c14c:	7ad0506f          	j	80120f8 <fail>

000000000800c150 <test_23>:
  TEST_RR_SRC21_BYPASS( 23, 2, 0, xor, 0x0ff00ff0, 0x00ff00ff, 0x0f0f0f0f );
 800c150:	00000213          	li	tp,0
 800c154:	0f0f1137          	lui	sp,0xf0f1
 800c158:	f0f1011b          	addiw	sp,sp,-241
 800c15c:	00000013          	nop
 800c160:	00000013          	nop
 800c164:	00ff00b7          	lui	ra,0xff0
 800c168:	0ff0809b          	addiw	ra,ra,255
 800c16c:	0020c733          	xor	a4,ra,sp
 800c170:	00120213          	addi	tp,tp,1 # 1 <u_mode_trap_table-0x8000003>
 800c174:	00200293          	li	t0,2
 800c178:	fc521ee3          	bne	tp,t0,800c154 <test_23+0x4>
 800c17c:	0ff01eb7          	lui	t4,0xff01
 800c180:	ff0e8e9b          	addiw	t4,t4,-16
 800c184:	01700193          	li	gp,23
 800c188:	01d70463          	beq	a4,t4,800c190 <test_24>
 800c18c:	76d0506f          	j	80120f8 <fail>

000000000800c190 <test_24>:

  TEST_RR_ZEROSRC1( 24, xor, 0xff00ff00, 0xff00ff00 );
 800c190:	000100b7          	lui	ra,0x10
 800c194:	f010809b          	addiw	ra,ra,-255
 800c198:	01009093          	slli	ra,ra,0x10
 800c19c:	f0008093          	addi	ra,ra,-256 # ff00 <u_mode_trap_table-0x7ff0104>
 800c1a0:	00104133          	xor	sp,zero,ra
 800c1a4:	00010eb7          	lui	t4,0x10
 800c1a8:	f01e8e9b          	addiw	t4,t4,-255
 800c1ac:	010e9e93          	slli	t4,t4,0x10
 800c1b0:	f00e8e93          	addi	t4,t4,-256 # ff00 <u_mode_trap_table-0x7ff0104>
 800c1b4:	01800193          	li	gp,24
 800c1b8:	01d10463          	beq	sp,t4,800c1c0 <test_25>
 800c1bc:	73d0506f          	j	80120f8 <fail>

000000000800c1c0 <test_25>:
  TEST_RR_ZEROSRC2( 25, xor, 0x00ff00ff, 0x00ff00ff );
 800c1c0:	00ff00b7          	lui	ra,0xff0
 800c1c4:	0ff0809b          	addiw	ra,ra,255
 800c1c8:	0000c133          	xor	sp,ra,zero
 800c1cc:	00ff0eb7          	lui	t4,0xff0
 800c1d0:	0ffe8e9b          	addiw	t4,t4,255
 800c1d4:	01900193          	li	gp,25
 800c1d8:	01d10463          	beq	sp,t4,800c1e0 <test_26>
 800c1dc:	71d0506f          	j	80120f8 <fail>

000000000800c1e0 <test_26>:
  TEST_RR_ZEROSRC12( 26, xor, 0 );
 800c1e0:	000040b3          	xor	ra,zero,zero
 800c1e4:	00000e93          	li	t4,0
 800c1e8:	01a00193          	li	gp,26
 800c1ec:	01d08463          	beq	ra,t4,800c1f4 <test_27>
 800c1f0:	7090506f          	j	80120f8 <fail>

000000000800c1f4 <test_27>:
  TEST_RR_ZERODEST( 27, xor, 0x11111111, 0x22222222 );
 800c1f4:	111110b7          	lui	ra,0x11111
 800c1f8:	1110809b          	addiw	ra,ra,273
 800c1fc:	22222137          	lui	sp,0x22222
 800c200:	2221011b          	addiw	sp,sp,546
 800c204:	0020c033          	xor	zero,ra,sp
 800c208:	00000e93          	li	t4,0
 800c20c:	01b00193          	li	gp,27
 800c210:	01d00463          	beq	zero,t4,800c218 <test_27+0x24>
 800c214:	6e50506f          	j	80120f8 <fail>

  TEST_PASSFAIL

RVTEST_CODE_END
 800c218:	c0001073          	unimp

000000000800c21c <test_2>:

  #-------------------------------------------------------------
  # Logical tests
  #-------------------------------------------------------------

  TEST_IMM_OP( 2, xori, 0xffffffffff00f00f, 0x0000000000ff0f00, 0xf0f );
 800c21c:	00ff10b7          	lui	ra,0xff1
 800c220:	f000809b          	addiw	ra,ra,-256
 800c224:	f0f0c713          	xori	a4,ra,-241
 800c228:	ff00feb7          	lui	t4,0xff00f
 800c22c:	00fe8e9b          	addiw	t4,t4,15
 800c230:	00200193          	li	gp,2
 800c234:	01d70463          	beq	a4,t4,800c23c <test_3>
 800c238:	6c10506f          	j	80120f8 <fail>

000000000800c23c <test_3>:
  TEST_IMM_OP( 3, xori, 0x000000000ff00f00, 0x000000000ff00ff0, 0x0f0 );
 800c23c:	0ff010b7          	lui	ra,0xff01
 800c240:	ff00809b          	addiw	ra,ra,-16
 800c244:	0f00c713          	xori	a4,ra,240
 800c248:	0ff01eb7          	lui	t4,0xff01
 800c24c:	f00e8e9b          	addiw	t4,t4,-256
 800c250:	00300193          	li	gp,3
 800c254:	01d70463          	beq	a4,t4,800c25c <test_4>
 800c258:	6a10506f          	j	80120f8 <fail>

000000000800c25c <test_4>:
  TEST_IMM_OP( 4, xori, 0x0000000000ff0ff0, 0x0000000000ff08ff, 0x70f );
 800c25c:	00ff10b7          	lui	ra,0xff1
 800c260:	8ff0809b          	addiw	ra,ra,-1793
 800c264:	70f0c713          	xori	a4,ra,1807
 800c268:	00ff1eb7          	lui	t4,0xff1
 800c26c:	ff0e8e9b          	addiw	t4,t4,-16
 800c270:	00400193          	li	gp,4
 800c274:	01d70463          	beq	a4,t4,800c27c <test_5>
 800c278:	6810506f          	j	80120f8 <fail>

000000000800c27c <test_5>:
  TEST_IMM_OP( 5, xori, 0xfffffffff00ff0ff, 0xfffffffff00ff00f, 0x0f0 );
 800c27c:	f00ff0b7          	lui	ra,0xf00ff
 800c280:	00f0809b          	addiw	ra,ra,15
 800c284:	0f00c713          	xori	a4,ra,240
 800c288:	f00ffeb7          	lui	t4,0xf00ff
 800c28c:	0ffe8e9b          	addiw	t4,t4,255
 800c290:	00500193          	li	gp,5
 800c294:	01d70463          	beq	a4,t4,800c29c <test_6>
 800c298:	6610506f          	j	80120f8 <fail>

000000000800c29c <test_6>:

  #-------------------------------------------------------------
  # Source/Destination tests
  #-------------------------------------------------------------

  TEST_IMM_SRC1_EQ_DEST( 6, xori, 0xffffffffff00f00f, 0xffffffffff00f700, 0x70f );
 800c29c:	ff00f0b7          	lui	ra,0xff00f
 800c2a0:	7000809b          	addiw	ra,ra,1792
 800c2a4:	70f0c093          	xori	ra,ra,1807
 800c2a8:	ff00feb7          	lui	t4,0xff00f
 800c2ac:	00fe8e9b          	addiw	t4,t4,15
 800c2b0:	00600193          	li	gp,6
 800c2b4:	01d08463          	beq	ra,t4,800c2bc <test_7>
 800c2b8:	6410506f          	j	80120f8 <fail>

000000000800c2bc <test_7>:

   #-------------------------------------------------------------
  # Bypassing tests
  #-------------------------------------------------------------

  TEST_IMM_DEST_BYPASS( 7,  0, xori, 0x000000000ff00f00, 0x000000000ff00ff0, 0x0f0 );
 800c2bc:	00000213          	li	tp,0
 800c2c0:	0ff010b7          	lui	ra,0xff01
 800c2c4:	ff00809b          	addiw	ra,ra,-16
 800c2c8:	0f00c713          	xori	a4,ra,240
 800c2cc:	00070313          	mv	t1,a4
 800c2d0:	00120213          	addi	tp,tp,1 # 1 <u_mode_trap_table-0x8000003>
 800c2d4:	00200293          	li	t0,2
 800c2d8:	fe5214e3          	bne	tp,t0,800c2c0 <test_7+0x4>
 800c2dc:	0ff01eb7          	lui	t4,0xff01
 800c2e0:	f00e8e9b          	addiw	t4,t4,-256
 800c2e4:	00700193          	li	gp,7
 800c2e8:	01d30463          	beq	t1,t4,800c2f0 <test_8>
 800c2ec:	60d0506f          	j	80120f8 <fail>

000000000800c2f0 <test_8>:
  TEST_IMM_DEST_BYPASS( 8,  1, xori, 0x0000000000ff0ff0, 0x0000000000ff08ff, 0x70f );
 800c2f0:	00000213          	li	tp,0
 800c2f4:	00ff10b7          	lui	ra,0xff1
 800c2f8:	8ff0809b          	addiw	ra,ra,-1793
 800c2fc:	70f0c713          	xori	a4,ra,1807
 800c300:	00000013          	nop
 800c304:	00070313          	mv	t1,a4
 800c308:	00120213          	addi	tp,tp,1 # 1 <u_mode_trap_table-0x8000003>
 800c30c:	00200293          	li	t0,2
 800c310:	fe5212e3          	bne	tp,t0,800c2f4 <test_8+0x4>
 800c314:	00ff1eb7          	lui	t4,0xff1
 800c318:	ff0e8e9b          	addiw	t4,t4,-16
 800c31c:	00800193          	li	gp,8
 800c320:	01d30463          	beq	t1,t4,800c328 <test_9>
 800c324:	5d50506f          	j	80120f8 <fail>

000000000800c328 <test_9>:
  TEST_IMM_DEST_BYPASS( 9,  2, xori, 0xfffffffff00ff0ff, 0xfffffffff00ff00f, 0x0f0 );
 800c328:	00000213          	li	tp,0
 800c32c:	f00ff0b7          	lui	ra,0xf00ff
 800c330:	00f0809b          	addiw	ra,ra,15
 800c334:	0f00c713          	xori	a4,ra,240
 800c338:	00000013          	nop
 800c33c:	00000013          	nop
 800c340:	00070313          	mv	t1,a4
 800c344:	00120213          	addi	tp,tp,1 # 1 <u_mode_trap_table-0x8000003>
 800c348:	00200293          	li	t0,2
 800c34c:	fe5210e3          	bne	tp,t0,800c32c <test_9+0x4>
 800c350:	f00ffeb7          	lui	t4,0xf00ff
 800c354:	0ffe8e9b          	addiw	t4,t4,255
 800c358:	00900193          	li	gp,9
 800c35c:	01d30463          	beq	t1,t4,800c364 <test_10>
 800c360:	5990506f          	j	80120f8 <fail>

000000000800c364 <test_10>:

  TEST_IMM_SRC1_BYPASS( 10, 0, xori, 0x000000000ff00f00, 0x000000000ff00ff0, 0x0f0 );
 800c364:	00000213          	li	tp,0
 800c368:	0ff010b7          	lui	ra,0xff01
 800c36c:	ff00809b          	addiw	ra,ra,-16
 800c370:	0f00c713          	xori	a4,ra,240
 800c374:	00120213          	addi	tp,tp,1 # 1 <u_mode_trap_table-0x8000003>
 800c378:	00200293          	li	t0,2
 800c37c:	fe5216e3          	bne	tp,t0,800c368 <test_10+0x4>
 800c380:	0ff01eb7          	lui	t4,0xff01
 800c384:	f00e8e9b          	addiw	t4,t4,-256
 800c388:	00a00193          	li	gp,10
 800c38c:	01d70463          	beq	a4,t4,800c394 <test_11>
 800c390:	5690506f          	j	80120f8 <fail>

000000000800c394 <test_11>:
  TEST_IMM_SRC1_BYPASS( 11, 1, xori, 0x0000000000ff0ff0, 0x0000000000ff0fff, 0x00f );
 800c394:	00000213          	li	tp,0
 800c398:	00ff10b7          	lui	ra,0xff1
 800c39c:	fff0809b          	addiw	ra,ra,-1
 800c3a0:	00000013          	nop
 800c3a4:	00f0c713          	xori	a4,ra,15
 800c3a8:	00120213          	addi	tp,tp,1 # 1 <u_mode_trap_table-0x8000003>
 800c3ac:	00200293          	li	t0,2
 800c3b0:	fe5214e3          	bne	tp,t0,800c398 <test_11+0x4>
 800c3b4:	00ff1eb7          	lui	t4,0xff1
 800c3b8:	ff0e8e9b          	addiw	t4,t4,-16
 800c3bc:	00b00193          	li	gp,11
 800c3c0:	01d70463          	beq	a4,t4,800c3c8 <test_12>
 800c3c4:	5350506f          	j	80120f8 <fail>

000000000800c3c8 <test_12>:
  TEST_IMM_SRC1_BYPASS( 12, 2, xori, 0xfffffffff00ff0ff, 0xfffffffff00ff00f, 0x0f0 );
 800c3c8:	00000213          	li	tp,0
 800c3cc:	f00ff0b7          	lui	ra,0xf00ff
 800c3d0:	00f0809b          	addiw	ra,ra,15
 800c3d4:	00000013          	nop
 800c3d8:	00000013          	nop
 800c3dc:	0f00c713          	xori	a4,ra,240
 800c3e0:	00120213          	addi	tp,tp,1 # 1 <u_mode_trap_table-0x8000003>
 800c3e4:	00200293          	li	t0,2
 800c3e8:	fe5212e3          	bne	tp,t0,800c3cc <test_12+0x4>
 800c3ec:	f00ffeb7          	lui	t4,0xf00ff
 800c3f0:	0ffe8e9b          	addiw	t4,t4,255
 800c3f4:	00c00193          	li	gp,12
 800c3f8:	01d70463          	beq	a4,t4,800c400 <test_13>
 800c3fc:	4fd0506f          	j	80120f8 <fail>

000000000800c400 <test_13>:

  TEST_IMM_ZEROSRC1( 13, xori, 0x0f0, 0x0f0 );
 800c400:	0f004093          	xori	ra,zero,240
 800c404:	0f000e93          	li	t4,240
 800c408:	00d00193          	li	gp,13
 800c40c:	01d08463          	beq	ra,t4,800c414 <test_14>
 800c410:	4e90506f          	j	80120f8 <fail>

000000000800c414 <test_14>:
  TEST_IMM_ZERODEST( 14, xori, 0x00ff00ff, 0x70f );
 800c414:	00ff00b7          	lui	ra,0xff0
 800c418:	0ff0809b          	addiw	ra,ra,255
 800c41c:	70f0c013          	xori	zero,ra,1807
 800c420:	00000e93          	li	t4,0
 800c424:	00e00193          	li	gp,14
 800c428:	01d00463          	beq	zero,t4,800c430 <test_14+0x1c>
 800c42c:	4cd0506f          	j	80120f8 <fail>

  TEST_PASSFAIL

RVTEST_CODE_END
 800c430:	c0001073          	unimp

000000000800c434 <test_2>:
#include "test_macros.h"

RVTEST_RV64U
RVTEST_CODE_BEGIN

  TEST_CASE(2, a4, 0xffffffff80000000, \
 800c434:	80000537          	lui	a0,0x80000
 800c438:	80000593          	li	a1,-2048
 800c43c:	00007697          	auipc	a3,0x7
 800c440:	19468693          	addi	a3,a3,404 # 80135d0 <amo_operand>
 800c444:	00a6a023          	sw	a0,0(a3)
 800c448:	00b6a72f          	amoadd.w	a4,a1,(a3)
 800c44c:	80000eb7          	lui	t4,0x80000
 800c450:	00200193          	li	gp,2
 800c454:	01d70463          	beq	a4,t4,800c45c <test_3>
 800c458:	4a10506f          	j	80120f8 <fail>

000000000800c45c <test_3>:
    la a3, amo_operand; \
    sw a0, 0(a3); \
    amoadd.w	a4, a1, 0(a3); \
  )

  TEST_CASE(3, a5, 0x000000007ffff800, lw a5, 0(a3))
 800c45c:	0006a783          	lw	a5,0(a3)
 800c460:	80000eb7          	lui	t4,0x80000
 800c464:	800e8e9b          	addiw	t4,t4,-2048
 800c468:	00300193          	li	gp,3
 800c46c:	01d78463          	beq	a5,t4,800c474 <test_4>
 800c470:	4890506f          	j	80120f8 <fail>

000000000800c474 <test_4>:

  # try again after a cache miss
  TEST_CASE(4, a4, 0x000000007ffff800, \
 800c474:	800005b7          	lui	a1,0x80000
 800c478:	00b6a72f          	amoadd.w	a4,a1,(a3)
 800c47c:	80000eb7          	lui	t4,0x80000
 800c480:	800e8e9b          	addiw	t4,t4,-2048
 800c484:	00400193          	li	gp,4
 800c488:	01d70463          	beq	a4,t4,800c490 <test_5>
 800c48c:	46d0506f          	j	80120f8 <fail>

000000000800c490 <test_5>:
    li  a1, 0xffffffff80000000; \
    amoadd.w a4, a1, 0(a3); \
  )

  TEST_CASE(5, a5, 0xfffffffffffff800, lw a5, 0(a3))
 800c490:	0006a783          	lw	a5,0(a3)
 800c494:	80000e93          	li	t4,-2048
 800c498:	00500193          	li	gp,5
 800c49c:	01d78463          	beq	a5,t4,800c4a4 <test_5+0x14>
 800c4a0:	4590506f          	j	80120f8 <fail>

  TEST_PASSFAIL

RVTEST_CODE_END
 800c4a4:	c0001073          	unimp

000000000800c4a8 <test_2>:
#include "test_macros.h"

RVTEST_RV64U
RVTEST_CODE_BEGIN

  TEST_CASE(2, a4, 0xffffffff80000000, \
 800c4a8:	80000537          	lui	a0,0x80000
 800c4ac:	80000593          	li	a1,-2048
 800c4b0:	00007697          	auipc	a3,0x7
 800c4b4:	12868693          	addi	a3,a3,296 # 80135d8 <amo_operand>
 800c4b8:	00a6a023          	sw	a0,0(a3)
 800c4bc:	20b6a72f          	amoxor.w	a4,a1,(a3)
 800c4c0:	80000eb7          	lui	t4,0x80000
 800c4c4:	00200193          	li	gp,2
 800c4c8:	01d70463          	beq	a4,t4,800c4d0 <test_3>
 800c4cc:	42d0506f          	j	80120f8 <fail>

000000000800c4d0 <test_3>:
    la a3, amo_operand; \
    sw a0, 0(a3); \
    amoxor.w	a4, a1, 0(a3); \
  )

  TEST_CASE(3, a5, 0x7ffff800, lw a5, 0(a3))
 800c4d0:	0006a783          	lw	a5,0(a3)
 800c4d4:	80000eb7          	lui	t4,0x80000
 800c4d8:	800e8e9b          	addiw	t4,t4,-2048
 800c4dc:	00300193          	li	gp,3
 800c4e0:	01d78463          	beq	a5,t4,800c4e8 <test_4>
 800c4e4:	4150506f          	j	80120f8 <fail>

000000000800c4e8 <test_4>:

  # try again after a cache miss
  TEST_CASE(4, a4, 0x7ffff800, \
 800c4e8:	0030059b          	addiw	a1,zero,3
 800c4ec:	01e59593          	slli	a1,a1,0x1e
 800c4f0:	00158593          	addi	a1,a1,1 # ffffffff80000001 <_end+0xffffffff77fec9a1>
 800c4f4:	20b6a72f          	amoxor.w	a4,a1,(a3)
 800c4f8:	80000eb7          	lui	t4,0x80000
 800c4fc:	800e8e9b          	addiw	t4,t4,-2048
 800c500:	00400193          	li	gp,4
 800c504:	01d70463          	beq	a4,t4,800c50c <test_5>
 800c508:	3f10506f          	j	80120f8 <fail>

000000000800c50c <test_5>:
    li  a1, 0xc0000001; \
    amoxor.w a4, a1, 0(a3); \
  )

  TEST_CASE(5, a5, 0xffffffffbffff801, lw a5, 0(a3))
 800c50c:	0006a783          	lw	a5,0(a3)
 800c510:	c0000eb7          	lui	t4,0xc0000
 800c514:	801e8e9b          	addiw	t4,t4,-2047
 800c518:	00500193          	li	gp,5
 800c51c:	01d78463          	beq	a5,t4,800c524 <test_5+0x18>
 800c520:	3d90506f          	j	80120f8 <fail>

  TEST_PASSFAIL

RVTEST_CODE_END
 800c524:	c0001073          	unimp

000000000800c528 <test_2>:
#include "test_macros.h"

RVTEST_RV64U
RVTEST_CODE_BEGIN

  TEST_CASE(2, a4, 0xffffffff80000000, \
 800c528:	80000537          	lui	a0,0x80000
 800c52c:	80000593          	li	a1,-2048
 800c530:	00007697          	auipc	a3,0x7
 800c534:	0b068693          	addi	a3,a3,176 # 80135e0 <amo_operand>
 800c538:	00a6a023          	sw	a0,0(a3)
 800c53c:	40b6a72f          	amoor.w	a4,a1,(a3)
 800c540:	80000eb7          	lui	t4,0x80000
 800c544:	00200193          	li	gp,2
 800c548:	01d70463          	beq	a4,t4,800c550 <test_3>
 800c54c:	3ad0506f          	j	80120f8 <fail>

000000000800c550 <test_3>:
    la a3, amo_operand; \
    sw a0, 0(a3); \
    amoor.w	a4, a1, 0(a3); \
  )

  TEST_CASE(3, a5, 0xfffffffffffff800, lw a5, 0(a3))
 800c550:	0006a783          	lw	a5,0(a3)
 800c554:	80000e93          	li	t4,-2048
 800c558:	00300193          	li	gp,3
 800c55c:	01d78463          	beq	a5,t4,800c564 <test_4>
 800c560:	3990506f          	j	80120f8 <fail>

000000000800c564 <test_4>:

  # try again after a cache miss
  TEST_CASE(4, a4, 0xfffffffffffff800, \
 800c564:	00100593          	li	a1,1
 800c568:	40b6a72f          	amoor.w	a4,a1,(a3)
 800c56c:	80000e93          	li	t4,-2048
 800c570:	00400193          	li	gp,4
 800c574:	01d70463          	beq	a4,t4,800c57c <test_5>
 800c578:	3810506f          	j	80120f8 <fail>

000000000800c57c <test_5>:
    li  a1, 1; \
    amoor.w a4, a1, 0(a3); \
  )

  TEST_CASE(5, a5, 0xfffffffffffff801, lw a5, 0(a3))
 800c57c:	0006a783          	lw	a5,0(a3)
 800c580:	80100e93          	li	t4,-2047
 800c584:	00500193          	li	gp,5
 800c588:	01d78463          	beq	a5,t4,800c590 <test_5+0x14>
 800c58c:	36d0506f          	j	80120f8 <fail>

  TEST_PASSFAIL

RVTEST_CODE_END
 800c590:	c0001073          	unimp

000000000800c594 <test_2>:
#include "test_macros.h"

RVTEST_RV64U
RVTEST_CODE_BEGIN

  TEST_CASE(2, a4, 0xffffffff80000000, \
 800c594:	80000537          	lui	a0,0x80000
 800c598:	80000593          	li	a1,-2048
 800c59c:	00007697          	auipc	a3,0x7
 800c5a0:	04c68693          	addi	a3,a3,76 # 80135e8 <amo_operand>
 800c5a4:	00a6a023          	sw	a0,0(a3)
 800c5a8:	60b6a72f          	amoand.w	a4,a1,(a3)
 800c5ac:	80000eb7          	lui	t4,0x80000
 800c5b0:	00200193          	li	gp,2
 800c5b4:	01d70463          	beq	a4,t4,800c5bc <test_3>
 800c5b8:	3410506f          	j	80120f8 <fail>

000000000800c5bc <test_3>:
    la a3, amo_operand; \
    sw a0, 0(a3); \
    amoand.w	a4, a1, 0(a3); \
  )

  TEST_CASE(3, a5, 0xffffffff80000000, lw a5, 0(a3))
 800c5bc:	0006a783          	lw	a5,0(a3)
 800c5c0:	80000eb7          	lui	t4,0x80000
 800c5c4:	00300193          	li	gp,3
 800c5c8:	01d78463          	beq	a5,t4,800c5d0 <test_4>
 800c5cc:	32d0506f          	j	80120f8 <fail>

000000000800c5d0 <test_4>:

  # try again after a cache miss
  TEST_CASE(4, a4, 0xffffffff80000000, \
 800c5d0:	0010059b          	addiw	a1,zero,1
 800c5d4:	01f59593          	slli	a1,a1,0x1f
 800c5d8:	60b6a72f          	amoand.w	a4,a1,(a3)
 800c5dc:	80000eb7          	lui	t4,0x80000
 800c5e0:	00400193          	li	gp,4
 800c5e4:	01d70463          	beq	a4,t4,800c5ec <test_5>
 800c5e8:	3110506f          	j	80120f8 <fail>

000000000800c5ec <test_5>:
    li  a1, 0x0000000080000000; \
    amoand.w a4, a1, 0(a3); \
  )

  TEST_CASE(5, a5, 0xffffffff80000000, lw a5, 0(a3))
 800c5ec:	0006a783          	lw	a5,0(a3)
 800c5f0:	80000eb7          	lui	t4,0x80000
 800c5f4:	00500193          	li	gp,5
 800c5f8:	01d78463          	beq	a5,t4,800c600 <test_5+0x14>
 800c5fc:	2fd0506f          	j	80120f8 <fail>

  TEST_PASSFAIL

RVTEST_CODE_END
 800c600:	c0001073          	unimp

000000000800c604 <test_2>:
#include "test_macros.h"

RVTEST_RV64U
RVTEST_CODE_BEGIN

  TEST_CASE(2, a4, 0xffffffff80000000, \
 800c604:	80000537          	lui	a0,0x80000
 800c608:	80000593          	li	a1,-2048
 800c60c:	00007697          	auipc	a3,0x7
 800c610:	fe468693          	addi	a3,a3,-28 # 80135f0 <amo_operand>
 800c614:	00a6a023          	sw	a0,0(a3)
 800c618:	80b6a72f          	amomin.w	a4,a1,(a3)
 800c61c:	80000eb7          	lui	t4,0x80000
 800c620:	00200193          	li	gp,2
 800c624:	01d70463          	beq	a4,t4,800c62c <test_3>
 800c628:	2d10506f          	j	80120f8 <fail>

000000000800c62c <test_3>:
    la a3, amo_operand; \
    sw a0, 0(a3); \
    amomin.w	a4, a1, 0(a3); \
  )

  TEST_CASE(3, a5, 0xffffffff80000000, lw a5, 0(a3))
 800c62c:	0006a783          	lw	a5,0(a3)
 800c630:	80000eb7          	lui	t4,0x80000
 800c634:	00300193          	li	gp,3
 800c638:	01d78463          	beq	a5,t4,800c640 <test_4>
 800c63c:	2bd0506f          	j	80120f8 <fail>

000000000800c640 <test_4>:

  TEST_CASE(4, a4, 0, \
 800c640:	fff00593          	li	a1,-1
 800c644:	0006a023          	sw	zero,0(a3)
 800c648:	80b6a72f          	amomin.w	a4,a1,(a3)
 800c64c:	00000e93          	li	t4,0
 800c650:	00400193          	li	gp,4
 800c654:	01d70463          	beq	a4,t4,800c65c <test_5>
 800c658:	2a10506f          	j	80120f8 <fail>

000000000800c65c <test_5>:
    li a1, 0xffffffffffffffff; \
    sw x0, 0(a3); \
    amomin.w	a4, a1, 0(a3); \
  )

  TEST_CASE(5, a5, 0xffffffffffffffff, lw a5, 0(a3))
 800c65c:	0006a783          	lw	a5,0(a3)
 800c660:	fff00e93          	li	t4,-1
 800c664:	00500193          	li	gp,5
 800c668:	01d78463          	beq	a5,t4,800c670 <test_5+0x14>
 800c66c:	28d0506f          	j	80120f8 <fail>

  TEST_PASSFAIL

RVTEST_CODE_END
 800c670:	c0001073          	unimp

000000000800c674 <test_2>:
#include "test_macros.h"

RVTEST_RV64U
RVTEST_CODE_BEGIN

  TEST_CASE(2, a4, 0xffffffff80000000, \
 800c674:	80000537          	lui	a0,0x80000
 800c678:	80000593          	li	a1,-2048
 800c67c:	00007697          	auipc	a3,0x7
 800c680:	f7c68693          	addi	a3,a3,-132 # 80135f8 <amo_operand>
 800c684:	00a6a023          	sw	a0,0(a3)
 800c688:	a0b6a72f          	amomax.w	a4,a1,(a3)
 800c68c:	80000eb7          	lui	t4,0x80000
 800c690:	00200193          	li	gp,2
 800c694:	01d70463          	beq	a4,t4,800c69c <test_3>
 800c698:	2610506f          	j	80120f8 <fail>

000000000800c69c <test_3>:
    la a3, amo_operand; \
    sw a0, 0(a3); \
    amomax.w	a4, a1, 0(a3); \
  )

  TEST_CASE(3, a5, 0xfffffffffffff800, lw a5, 0(a3))
 800c69c:	0006a783          	lw	a5,0(a3)
 800c6a0:	80000e93          	li	t4,-2048
 800c6a4:	00300193          	li	gp,3
 800c6a8:	01d78463          	beq	a5,t4,800c6b0 <test_4>
 800c6ac:	24d0506f          	j	80120f8 <fail>

000000000800c6b0 <test_4>:

  TEST_CASE(4, a4, 0, \
 800c6b0:	00100593          	li	a1,1
 800c6b4:	0006a023          	sw	zero,0(a3)
 800c6b8:	a0b6a72f          	amomax.w	a4,a1,(a3)
 800c6bc:	00000e93          	li	t4,0
 800c6c0:	00400193          	li	gp,4
 800c6c4:	01d70463          	beq	a4,t4,800c6cc <test_5>
 800c6c8:	2310506f          	j	80120f8 <fail>

000000000800c6cc <test_5>:
    li a1, 1; \
    sw x0, 0(a3); \
    amomax.w	a4, a1, 0(a3); \
  )

  TEST_CASE(5, a5, 1, lw a5, 0(a3))
 800c6cc:	0006a783          	lw	a5,0(a3)
 800c6d0:	00100e93          	li	t4,1
 800c6d4:	00500193          	li	gp,5
 800c6d8:	01d78463          	beq	a5,t4,800c6e0 <test_5+0x14>
 800c6dc:	21d0506f          	j	80120f8 <fail>

  TEST_PASSFAIL

RVTEST_CODE_END
 800c6e0:	c0001073          	unimp

000000000800c6e4 <test_2>:
#include "test_macros.h"

RVTEST_RV64U
RVTEST_CODE_BEGIN

  TEST_CASE(2, a4, 0xffffffff80000000, \
 800c6e4:	80000537          	lui	a0,0x80000
 800c6e8:	80000593          	li	a1,-2048
 800c6ec:	00007697          	auipc	a3,0x7
 800c6f0:	f1468693          	addi	a3,a3,-236 # 8013600 <amo_operand>
 800c6f4:	00a6a023          	sw	a0,0(a3)
 800c6f8:	c0b6a72f          	amominu.w	a4,a1,(a3)
 800c6fc:	80000eb7          	lui	t4,0x80000
 800c700:	00200193          	li	gp,2
 800c704:	01d70463          	beq	a4,t4,800c70c <test_3>
 800c708:	1f10506f          	j	80120f8 <fail>

000000000800c70c <test_3>:
    la a3, amo_operand; \
    sw a0, 0(a3); \
    amominu.w	a4, a1, 0(a3); \
  )

  TEST_CASE(3, a5, 0xffffffff80000000, lw a5, 0(a3))
 800c70c:	0006a783          	lw	a5,0(a3)
 800c710:	80000eb7          	lui	t4,0x80000
 800c714:	00300193          	li	gp,3
 800c718:	01d78463          	beq	a5,t4,800c720 <test_4>
 800c71c:	1dd0506f          	j	80120f8 <fail>

000000000800c720 <test_4>:

  TEST_CASE(4, a4, 0, \
 800c720:	fff00593          	li	a1,-1
 800c724:	0006a023          	sw	zero,0(a3)
 800c728:	c0b6a72f          	amominu.w	a4,a1,(a3)
 800c72c:	00000e93          	li	t4,0
 800c730:	00400193          	li	gp,4
 800c734:	01d70463          	beq	a4,t4,800c73c <test_5>
 800c738:	1c10506f          	j	80120f8 <fail>

000000000800c73c <test_5>:
    li a1, 0xffffffffffffffff; \
    sw x0, 0(a3); \
    amominu.w	a4, a1, 0(a3); \
  )

  TEST_CASE(5, a5, 0, lw a5, 0(a3))
 800c73c:	0006a783          	lw	a5,0(a3)
 800c740:	00000e93          	li	t4,0
 800c744:	00500193          	li	gp,5
 800c748:	01d78463          	beq	a5,t4,800c750 <test_5+0x14>
 800c74c:	1ad0506f          	j	80120f8 <fail>

  TEST_PASSFAIL

RVTEST_CODE_END
 800c750:	c0001073          	unimp

000000000800c754 <test_2>:
#include "test_macros.h"

RVTEST_RV64U
RVTEST_CODE_BEGIN

  TEST_CASE(2, a4, 0xffffffff80000000, \
 800c754:	80000537          	lui	a0,0x80000
 800c758:	80000593          	li	a1,-2048
 800c75c:	00007697          	auipc	a3,0x7
 800c760:	eac68693          	addi	a3,a3,-340 # 8013608 <amo_operand>
 800c764:	00a6a023          	sw	a0,0(a3)
 800c768:	e0b6a72f          	amomaxu.w	a4,a1,(a3)
 800c76c:	80000eb7          	lui	t4,0x80000
 800c770:	00200193          	li	gp,2
 800c774:	01d70463          	beq	a4,t4,800c77c <test_3>
 800c778:	1810506f          	j	80120f8 <fail>

000000000800c77c <test_3>:
    la a3, amo_operand; \
    sw a0, 0(a3); \
    amomaxu.w	a4, a1, 0(a3); \
  )

  TEST_CASE(3, a5, 0xfffffffffffff800, lw a5, 0(a3))
 800c77c:	0006a783          	lw	a5,0(a3)
 800c780:	80000e93          	li	t4,-2048
 800c784:	00300193          	li	gp,3
 800c788:	01d78463          	beq	a5,t4,800c790 <test_4>
 800c78c:	16d0506f          	j	80120f8 <fail>

000000000800c790 <test_4>:

  TEST_CASE(4, a4, 0, \
 800c790:	fff00593          	li	a1,-1
 800c794:	0006a023          	sw	zero,0(a3)
 800c798:	e0b6a72f          	amomaxu.w	a4,a1,(a3)
 800c79c:	00000e93          	li	t4,0
 800c7a0:	00400193          	li	gp,4
 800c7a4:	01d70463          	beq	a4,t4,800c7ac <test_5>
 800c7a8:	1510506f          	j	80120f8 <fail>

000000000800c7ac <test_5>:
    li a1, 0xffffffffffffffff; \
    sw x0, 0(a3); \
    amomaxu.w	a4, a1, 0(a3); \
  )

  TEST_CASE(5, a5, 0xffffffffffffffff, lw a5, 0(a3))
 800c7ac:	0006a783          	lw	a5,0(a3)
 800c7b0:	fff00e93          	li	t4,-1
 800c7b4:	00500193          	li	gp,5
 800c7b8:	01d78463          	beq	a5,t4,800c7c0 <test_5+0x14>
 800c7bc:	13d0506f          	j	80120f8 <fail>

  TEST_PASSFAIL

RVTEST_CODE_END
 800c7c0:	c0001073          	unimp

000000000800c7c4 <test_2>:
#include "test_macros.h"

RVTEST_RV64U
RVTEST_CODE_BEGIN

  TEST_CASE(2, a4, 0xffffffff80000000, \
 800c7c4:	80000537          	lui	a0,0x80000
 800c7c8:	80000593          	li	a1,-2048
 800c7cc:	00007697          	auipc	a3,0x7
 800c7d0:	e4468693          	addi	a3,a3,-444 # 8013610 <amo_operand>
 800c7d4:	00a6a023          	sw	a0,0(a3)
 800c7d8:	08b6a72f          	amoswap.w	a4,a1,(a3)
 800c7dc:	80000eb7          	lui	t4,0x80000
 800c7e0:	00200193          	li	gp,2
 800c7e4:	01d70463          	beq	a4,t4,800c7ec <test_3>
 800c7e8:	1110506f          	j	80120f8 <fail>

000000000800c7ec <test_3>:
    la a3, amo_operand; \
    sw a0, 0(a3); \
    amoswap.w	a4, a1, 0(a3); \
  )

  TEST_CASE(3, a5, 0xfffffffffffff800, lw a5, 0(a3))
 800c7ec:	0006a783          	lw	a5,0(a3)
 800c7f0:	80000e93          	li	t4,-2048
 800c7f4:	00300193          	li	gp,3
 800c7f8:	01d78463          	beq	a5,t4,800c800 <test_4>
 800c7fc:	0fd0506f          	j	80120f8 <fail>

000000000800c800 <test_4>:

  # try again after a cache miss
  TEST_CASE(4, a4, 0xfffffffffffff800, \
 800c800:	0010059b          	addiw	a1,zero,1
 800c804:	01f59593          	slli	a1,a1,0x1f
 800c808:	08b6a72f          	amoswap.w	a4,a1,(a3)
 800c80c:	80000e93          	li	t4,-2048
 800c810:	00400193          	li	gp,4
 800c814:	01d70463          	beq	a4,t4,800c81c <test_5>
 800c818:	0e10506f          	j	80120f8 <fail>

000000000800c81c <test_5>:
    li  a1, 0x0000000080000000; \
    amoswap.w a4, a1, 0(a3); \
  )

  TEST_CASE(5, a5, 0xffffffff80000000, lw a5, 0(a3))
 800c81c:	0006a783          	lw	a5,0(a3)
 800c820:	80000eb7          	lui	t4,0x80000
 800c824:	00500193          	li	gp,5
 800c828:	01d78463          	beq	a5,t4,800c830 <test_5+0x14>
 800c82c:	0cd0506f          	j	80120f8 <fail>

  TEST_PASSFAIL

RVTEST_CODE_END
 800c830:	c0001073          	unimp

000000000800c834 <test_2>:
#include "test_macros.h"

RVTEST_RV64U
RVTEST_CODE_BEGIN

  TEST_CASE(2, a4, 0xffffffff80000000, \
 800c834:	80000537          	lui	a0,0x80000
 800c838:	80000593          	li	a1,-2048
 800c83c:	00007697          	auipc	a3,0x7
 800c840:	ddc68693          	addi	a3,a3,-548 # 8013618 <amo_operand>
 800c844:	00a6b023          	sd	a0,0(a3)
 800c848:	00b6b72f          	amoadd.d	a4,a1,(a3)
 800c84c:	80000eb7          	lui	t4,0x80000
 800c850:	00200193          	li	gp,2
 800c854:	01d70463          	beq	a4,t4,800c85c <test_3>
 800c858:	0a10506f          	j	80120f8 <fail>

000000000800c85c <test_3>:
    la a3, amo_operand; \
    sd a0, 0(a3); \
    amoadd.d	a4, a1, 0(a3); \
  )

  TEST_CASE(3, a5, 0xffffffff7ffff800, ld a5, 0(a3))
 800c85c:	0006b783          	ld	a5,0(a3)
 800c860:	fff00e9b          	addiw	t4,zero,-1
 800c864:	01fe9e93          	slli	t4,t4,0x1f
 800c868:	800e8e93          	addi	t4,t4,-2048 # ffffffff7ffff800 <_end+0xffffffff77fec1a0>
 800c86c:	00300193          	li	gp,3
 800c870:	01d78463          	beq	a5,t4,800c878 <test_4>
 800c874:	0850506f          	j	80120f8 <fail>

000000000800c878 <test_4>:

  # try again after a cache miss
  TEST_CASE(4, a4, 0xffffffff7ffff800, \
 800c878:	00b6b72f          	amoadd.d	a4,a1,(a3)
 800c87c:	fff00e9b          	addiw	t4,zero,-1
 800c880:	01fe9e93          	slli	t4,t4,0x1f
 800c884:	800e8e93          	addi	t4,t4,-2048
 800c888:	00400193          	li	gp,4
 800c88c:	01d70463          	beq	a4,t4,800c894 <test_5>
 800c890:	0690506f          	j	80120f8 <fail>

000000000800c894 <test_5>:
    amoadd.d a4, a1, 0(a3); \
  )

  TEST_CASE(5, a5, 0xffffffff7ffff000, ld a5, 0(a3))
 800c894:	0006b783          	ld	a5,0(a3)
 800c898:	fff80eb7          	lui	t4,0xfff80
 800c89c:	fffe8e9b          	addiw	t4,t4,-1
 800c8a0:	00ce9e93          	slli	t4,t4,0xc
 800c8a4:	00500193          	li	gp,5
 800c8a8:	01d78463          	beq	a5,t4,800c8b0 <test_5+0x1c>
 800c8ac:	04d0506f          	j	80120f8 <fail>

  TEST_PASSFAIL

RVTEST_CODE_END
 800c8b0:	c0001073          	unimp

000000000800c8b4 <test_2>:
#include "test_macros.h"

RVTEST_RV64U
RVTEST_CODE_BEGIN

  TEST_CASE(2, a4, 0xffffffff80000000, \
 800c8b4:	80000537          	lui	a0,0x80000
 800c8b8:	80000593          	li	a1,-2048
 800c8bc:	00007697          	auipc	a3,0x7
 800c8c0:	d6468693          	addi	a3,a3,-668 # 8013620 <amo_operand>
 800c8c4:	00a6b023          	sd	a0,0(a3)
 800c8c8:	20b6b72f          	amoxor.d	a4,a1,(a3)
 800c8cc:	80000eb7          	lui	t4,0x80000
 800c8d0:	00200193          	li	gp,2
 800c8d4:	01d70463          	beq	a4,t4,800c8dc <test_3>
 800c8d8:	0210506f          	j	80120f8 <fail>

000000000800c8dc <test_3>:
    la a3, amo_operand; \
    sd a0, 0(a3); \
    amoxor.d	a4, a1, 0(a3); \
  )

  TEST_CASE(3, a5, 0x000000007ffff800, ld a5, 0(a3))
 800c8dc:	0006b783          	ld	a5,0(a3)
 800c8e0:	80000eb7          	lui	t4,0x80000
 800c8e4:	800e8e9b          	addiw	t4,t4,-2048
 800c8e8:	00300193          	li	gp,3
 800c8ec:	01d78463          	beq	a5,t4,800c8f4 <test_4>
 800c8f0:	0090506f          	j	80120f8 <fail>

000000000800c8f4 <test_4>:

  # try again after a cache miss
  TEST_CASE(4, a4, 0x000000007ffff800, \
 800c8f4:	00100593          	li	a1,1
 800c8f8:	20b6b72f          	amoxor.d	a4,a1,(a3)
 800c8fc:	80000eb7          	lui	t4,0x80000
 800c900:	800e8e9b          	addiw	t4,t4,-2048
 800c904:	00400193          	li	gp,4
 800c908:	01d70463          	beq	a4,t4,800c910 <test_5>
 800c90c:	7ec0506f          	j	80120f8 <fail>

000000000800c910 <test_5>:
    li  a1, 1; \
    amoxor.d a4, a1, 0(a3); \
  )

  TEST_CASE(5, a5, 0x000000007ffff801, ld a5, 0(a3))
 800c910:	0006b783          	ld	a5,0(a3)
 800c914:	80000eb7          	lui	t4,0x80000
 800c918:	801e8e9b          	addiw	t4,t4,-2047
 800c91c:	00500193          	li	gp,5
 800c920:	01d78463          	beq	a5,t4,800c928 <test_5+0x18>
 800c924:	7d40506f          	j	80120f8 <fail>

  TEST_PASSFAIL

RVTEST_CODE_END
 800c928:	c0001073          	unimp

000000000800c92c <test_2>:
#include "test_macros.h"

RVTEST_RV64U
RVTEST_CODE_BEGIN

  TEST_CASE(2, a4, 0xffffffff80000000, \
 800c92c:	80000537          	lui	a0,0x80000
 800c930:	80000593          	li	a1,-2048
 800c934:	00007697          	auipc	a3,0x7
 800c938:	cf468693          	addi	a3,a3,-780 # 8013628 <amo_operand>
 800c93c:	00a6b023          	sd	a0,0(a3)
 800c940:	40b6b72f          	amoor.d	a4,a1,(a3)
 800c944:	80000eb7          	lui	t4,0x80000
 800c948:	00200193          	li	gp,2
 800c94c:	01d70463          	beq	a4,t4,800c954 <test_3>
 800c950:	7a80506f          	j	80120f8 <fail>

000000000800c954 <test_3>:
    la a3, amo_operand; \
    sd a0, 0(a3); \
    amoor.d	a4, a1, 0(a3); \
  )

  TEST_CASE(3, a5, 0xfffffffffffff800, ld a5, 0(a3))
 800c954:	0006b783          	ld	a5,0(a3)
 800c958:	80000e93          	li	t4,-2048
 800c95c:	00300193          	li	gp,3
 800c960:	01d78463          	beq	a5,t4,800c968 <test_4>
 800c964:	7940506f          	j	80120f8 <fail>

000000000800c968 <test_4>:

  # try again after a cache miss
  TEST_CASE(4, a4, 0xfffffffffffff800, \
 800c968:	00100593          	li	a1,1
 800c96c:	40b6b72f          	amoor.d	a4,a1,(a3)
 800c970:	80000e93          	li	t4,-2048
 800c974:	00400193          	li	gp,4
 800c978:	01d70463          	beq	a4,t4,800c980 <test_5>
 800c97c:	77c0506f          	j	80120f8 <fail>

000000000800c980 <test_5>:
    li  a1, 1; \
    amoor.d a4, a1, 0(a3); \
  )

  TEST_CASE(5, a5, 0xfffffffffffff801, ld a5, 0(a3))
 800c980:	0006b783          	ld	a5,0(a3)
 800c984:	80100e93          	li	t4,-2047
 800c988:	00500193          	li	gp,5
 800c98c:	01d78463          	beq	a5,t4,800c994 <test_5+0x14>
 800c990:	7680506f          	j	80120f8 <fail>

  TEST_PASSFAIL

RVTEST_CODE_END
 800c994:	c0001073          	unimp

000000000800c998 <test_2>:
#include "test_macros.h"

RVTEST_RV64U
RVTEST_CODE_BEGIN

  TEST_CASE(2, a4, 0xffffffff80000000, \
 800c998:	80000537          	lui	a0,0x80000
 800c99c:	80000593          	li	a1,-2048
 800c9a0:	00007697          	auipc	a3,0x7
 800c9a4:	c9068693          	addi	a3,a3,-880 # 8013630 <amo_operand>
 800c9a8:	00a6b023          	sd	a0,0(a3)
 800c9ac:	60b6b72f          	amoand.d	a4,a1,(a3)
 800c9b0:	80000eb7          	lui	t4,0x80000
 800c9b4:	00200193          	li	gp,2
 800c9b8:	01d70463          	beq	a4,t4,800c9c0 <test_3>
 800c9bc:	73c0506f          	j	80120f8 <fail>

000000000800c9c0 <test_3>:
    la a3, amo_operand; \
    sd a0, 0(a3); \
    amoand.d	a4, a1, 0(a3); \
  )

  TEST_CASE(3, a5, 0xffffffff80000000, ld a5, 0(a3))
 800c9c0:	0006b783          	ld	a5,0(a3)
 800c9c4:	80000eb7          	lui	t4,0x80000
 800c9c8:	00300193          	li	gp,3
 800c9cc:	01d78463          	beq	a5,t4,800c9d4 <test_4>
 800c9d0:	7280506f          	j	80120f8 <fail>

000000000800c9d4 <test_4>:

  # try again after a cache miss
  TEST_CASE(4, a4, 0xffffffff80000000, \
 800c9d4:	0010059b          	addiw	a1,zero,1
 800c9d8:	01f59593          	slli	a1,a1,0x1f
 800c9dc:	60b6b72f          	amoand.d	a4,a1,(a3)
 800c9e0:	80000eb7          	lui	t4,0x80000
 800c9e4:	00400193          	li	gp,4
 800c9e8:	01d70463          	beq	a4,t4,800c9f0 <test_5>
 800c9ec:	70c0506f          	j	80120f8 <fail>

000000000800c9f0 <test_5>:
    li  a1, 0x0000000080000000; \
    amoand.d a4, a1, 0(a3); \
  )

  TEST_CASE(5, a5, 0x0000000080000000, ld a5, 0(a3))
 800c9f0:	0006b783          	ld	a5,0(a3)
 800c9f4:	00100e9b          	addiw	t4,zero,1
 800c9f8:	01fe9e93          	slli	t4,t4,0x1f
 800c9fc:	00500193          	li	gp,5
 800ca00:	01d78463          	beq	a5,t4,800ca08 <test_5+0x18>
 800ca04:	6f40506f          	j	80120f8 <fail>

  TEST_PASSFAIL

RVTEST_CODE_END
 800ca08:	c0001073          	unimp

000000000800ca0c <test_2>:
#include "test_macros.h"

RVTEST_RV64U
RVTEST_CODE_BEGIN

  TEST_CASE(2, a4, 0xffffffff80000000, \
 800ca0c:	80000537          	lui	a0,0x80000
 800ca10:	80000593          	li	a1,-2048
 800ca14:	00007697          	auipc	a3,0x7
 800ca18:	c2468693          	addi	a3,a3,-988 # 8013638 <amo_operand>
 800ca1c:	00a6b023          	sd	a0,0(a3)
 800ca20:	80b6b72f          	amomin.d	a4,a1,(a3)
 800ca24:	80000eb7          	lui	t4,0x80000
 800ca28:	00200193          	li	gp,2
 800ca2c:	01d70463          	beq	a4,t4,800ca34 <test_3>
 800ca30:	6c80506f          	j	80120f8 <fail>

000000000800ca34 <test_3>:
    la a3, amo_operand; \
    sd a0, 0(a3); \
    amomin.d	a4, a1, 0(a3); \
  )

  TEST_CASE(3, a5, 0xffffffff80000000, ld a5, 0(a3))
 800ca34:	0006b783          	ld	a5,0(a3)
 800ca38:	80000eb7          	lui	t4,0x80000
 800ca3c:	00300193          	li	gp,3
 800ca40:	01d78463          	beq	a5,t4,800ca48 <test_4>
 800ca44:	6b40506f          	j	80120f8 <fail>

000000000800ca48 <test_4>:

  TEST_CASE(4, a4, 0, \
 800ca48:	fff00593          	li	a1,-1
 800ca4c:	0006b023          	sd	zero,0(a3)
 800ca50:	80b6b72f          	amomin.d	a4,a1,(a3)
 800ca54:	00000e93          	li	t4,0
 800ca58:	00400193          	li	gp,4
 800ca5c:	01d70463          	beq	a4,t4,800ca64 <test_5>
 800ca60:	6980506f          	j	80120f8 <fail>

000000000800ca64 <test_5>:
    li a1, 0xffffffffffffffff; \
    sd x0, 0(a3); \
    amomin.d	a4, a1, 0(a3); \
  )

  TEST_CASE(5, a5, 0xffffffffffffffff, ld a5, 0(a3))
 800ca64:	0006b783          	ld	a5,0(a3)
 800ca68:	fff00e93          	li	t4,-1
 800ca6c:	00500193          	li	gp,5
 800ca70:	01d78463          	beq	a5,t4,800ca78 <test_5+0x14>
 800ca74:	6840506f          	j	80120f8 <fail>

  TEST_PASSFAIL

RVTEST_CODE_END
 800ca78:	c0001073          	unimp

000000000800ca7c <test_2>:
#include "test_macros.h"

RVTEST_RV64U
RVTEST_CODE_BEGIN

  TEST_CASE(2, a4, 0xffffffff80000000, \
 800ca7c:	80000537          	lui	a0,0x80000
 800ca80:	80000593          	li	a1,-2048
 800ca84:	00007697          	auipc	a3,0x7
 800ca88:	bbc68693          	addi	a3,a3,-1092 # 8013640 <amo_operand>
 800ca8c:	00a6b023          	sd	a0,0(a3)
 800ca90:	a0b6b72f          	amomax.d	a4,a1,(a3)
 800ca94:	80000eb7          	lui	t4,0x80000
 800ca98:	00200193          	li	gp,2
 800ca9c:	01d70463          	beq	a4,t4,800caa4 <test_3>
 800caa0:	6580506f          	j	80120f8 <fail>

000000000800caa4 <test_3>:
    la a3, amo_operand; \
    sd a0, 0(a3); \
    amomax.d	a4, a1, 0(a3); \
  )

  TEST_CASE(3, a5, 0xfffffffffffff800, ld a5, 0(a3))
 800caa4:	0006b783          	ld	a5,0(a3)
 800caa8:	80000e93          	li	t4,-2048
 800caac:	00300193          	li	gp,3
 800cab0:	01d78463          	beq	a5,t4,800cab8 <test_4>
 800cab4:	6440506f          	j	80120f8 <fail>

000000000800cab8 <test_4>:

  TEST_CASE(4, a4, 0, \
 800cab8:	00100593          	li	a1,1
 800cabc:	0006b023          	sd	zero,0(a3)
 800cac0:	a0b6b72f          	amomax.d	a4,a1,(a3)
 800cac4:	00000e93          	li	t4,0
 800cac8:	00400193          	li	gp,4
 800cacc:	01d70463          	beq	a4,t4,800cad4 <test_5>
 800cad0:	6280506f          	j	80120f8 <fail>

000000000800cad4 <test_5>:
    li a1, 1; \
    sd x0, 0(a3); \
    amomax.d	a4, a1, 0(a3); \
  )

  TEST_CASE(5, a5, 1, ld a5, 0(a3))
 800cad4:	0006b783          	ld	a5,0(a3)
 800cad8:	00100e93          	li	t4,1
 800cadc:	00500193          	li	gp,5
 800cae0:	01d78463          	beq	a5,t4,800cae8 <test_5+0x14>
 800cae4:	6140506f          	j	80120f8 <fail>

  TEST_PASSFAIL

RVTEST_CODE_END
 800cae8:	c0001073          	unimp

000000000800caec <test_2>:
#include "test_macros.h"

RVTEST_RV64U
RVTEST_CODE_BEGIN

  TEST_CASE(2, a4, 0xffffffff80000000, \
 800caec:	80000537          	lui	a0,0x80000
 800caf0:	80000593          	li	a1,-2048
 800caf4:	00007697          	auipc	a3,0x7
 800caf8:	b5468693          	addi	a3,a3,-1196 # 8013648 <amo_operand>
 800cafc:	00a6b023          	sd	a0,0(a3)
 800cb00:	c0b6b72f          	amominu.d	a4,a1,(a3)
 800cb04:	80000eb7          	lui	t4,0x80000
 800cb08:	00200193          	li	gp,2
 800cb0c:	01d70463          	beq	a4,t4,800cb14 <test_3>
 800cb10:	5e80506f          	j	80120f8 <fail>

000000000800cb14 <test_3>:
    la a3, amo_operand; \
    sd a0, 0(a3); \
    amominu.d	a4, a1, 0(a3); \
  )

  TEST_CASE(3, a5, 0xffffffff80000000, ld a5, 0(a3))
 800cb14:	0006b783          	ld	a5,0(a3)
 800cb18:	80000eb7          	lui	t4,0x80000
 800cb1c:	00300193          	li	gp,3
 800cb20:	01d78463          	beq	a5,t4,800cb28 <test_4>
 800cb24:	5d40506f          	j	80120f8 <fail>

000000000800cb28 <test_4>:

  TEST_CASE(4, a4, 0, \
 800cb28:	fff00593          	li	a1,-1
 800cb2c:	0006b023          	sd	zero,0(a3)
 800cb30:	c0b6b72f          	amominu.d	a4,a1,(a3)
 800cb34:	00000e93          	li	t4,0
 800cb38:	00400193          	li	gp,4
 800cb3c:	01d70463          	beq	a4,t4,800cb44 <test_5>
 800cb40:	5b80506f          	j	80120f8 <fail>

000000000800cb44 <test_5>:
    li a1, 0xffffffffffffffff; \
    sd x0, 0(a3); \
    amominu.d	a4, a1, 0(a3); \
  )

  TEST_CASE(5, a5, 0, ld a5, 0(a3))
 800cb44:	0006b783          	ld	a5,0(a3)
 800cb48:	00000e93          	li	t4,0
 800cb4c:	00500193          	li	gp,5
 800cb50:	01d78463          	beq	a5,t4,800cb58 <test_5+0x14>
 800cb54:	5a40506f          	j	80120f8 <fail>

  TEST_PASSFAIL

RVTEST_CODE_END
 800cb58:	c0001073          	unimp

000000000800cb5c <test_2>:
#include "test_macros.h"

RVTEST_RV64U
RVTEST_CODE_BEGIN

  TEST_CASE(2, a4, 0xffffffff80000000, \
 800cb5c:	80000537          	lui	a0,0x80000
 800cb60:	80000593          	li	a1,-2048
 800cb64:	00007697          	auipc	a3,0x7
 800cb68:	aec68693          	addi	a3,a3,-1300 # 8013650 <amo_operand>
 800cb6c:	00a6b023          	sd	a0,0(a3)
 800cb70:	e0b6b72f          	amomaxu.d	a4,a1,(a3)
 800cb74:	80000eb7          	lui	t4,0x80000
 800cb78:	00200193          	li	gp,2
 800cb7c:	01d70463          	beq	a4,t4,800cb84 <test_3>
 800cb80:	5780506f          	j	80120f8 <fail>

000000000800cb84 <test_3>:
    la a3, amo_operand; \
    sd a0, 0(a3); \
    amomaxu.d	a4, a1, 0(a3); \
  )

  TEST_CASE(3, a5, 0xfffffffffffff800, ld a5, 0(a3))
 800cb84:	0006b783          	ld	a5,0(a3)
 800cb88:	80000e93          	li	t4,-2048
 800cb8c:	00300193          	li	gp,3
 800cb90:	01d78463          	beq	a5,t4,800cb98 <test_4>
 800cb94:	5640506f          	j	80120f8 <fail>

000000000800cb98 <test_4>:

  TEST_CASE(4, a4, 0, \
 800cb98:	fff00593          	li	a1,-1
 800cb9c:	0006b023          	sd	zero,0(a3)
 800cba0:	e0b6b72f          	amomaxu.d	a4,a1,(a3)
 800cba4:	00000e93          	li	t4,0
 800cba8:	00400193          	li	gp,4
 800cbac:	01d70463          	beq	a4,t4,800cbb4 <test_5>
 800cbb0:	5480506f          	j	80120f8 <fail>

000000000800cbb4 <test_5>:
    li a1, 0xffffffffffffffff; \
    sd x0, 0(a3); \
    amomaxu.d	a4, a1, 0(a3); \
  )

  TEST_CASE(5, a5, 0xffffffffffffffff, ld a5, 0(a3))
 800cbb4:	0006b783          	ld	a5,0(a3)
 800cbb8:	fff00e93          	li	t4,-1
 800cbbc:	00500193          	li	gp,5
 800cbc0:	01d78463          	beq	a5,t4,800cbc8 <test_5+0x14>
 800cbc4:	5340506f          	j	80120f8 <fail>

  TEST_PASSFAIL

RVTEST_CODE_END
 800cbc8:	c0001073          	unimp

000000000800cbcc <test_2>:
#include "test_macros.h"

RVTEST_RV64U
RVTEST_CODE_BEGIN

  TEST_CASE(2, a4, 0xffffffff80000000, \
 800cbcc:	80000537          	lui	a0,0x80000
 800cbd0:	80000593          	li	a1,-2048
 800cbd4:	00007697          	auipc	a3,0x7
 800cbd8:	a8468693          	addi	a3,a3,-1404 # 8013658 <amo_operand>
 800cbdc:	00a6b023          	sd	a0,0(a3)
 800cbe0:	08b6b72f          	amoswap.d	a4,a1,(a3)
 800cbe4:	80000eb7          	lui	t4,0x80000
 800cbe8:	00200193          	li	gp,2
 800cbec:	01d70463          	beq	a4,t4,800cbf4 <test_3>
 800cbf0:	5080506f          	j	80120f8 <fail>

000000000800cbf4 <test_3>:
    la a3, amo_operand; \
    sd a0, 0(a3); \
    amoswap.d	a4, a1, 0(a3); \
  )

  TEST_CASE(3, a5, 0xfffffffffffff800, ld a5, 0(a3))
 800cbf4:	0006b783          	ld	a5,0(a3)
 800cbf8:	80000e93          	li	t4,-2048
 800cbfc:	00300193          	li	gp,3
 800cc00:	01d78463          	beq	a5,t4,800cc08 <test_4>
 800cc04:	4f40506f          	j	80120f8 <fail>

000000000800cc08 <test_4>:

  # try again after a cache miss
  TEST_CASE(4, a4, 0xfffffffffffff800, \
 800cc08:	0010059b          	addiw	a1,zero,1
 800cc0c:	01f59593          	slli	a1,a1,0x1f
 800cc10:	08b6b72f          	amoswap.d	a4,a1,(a3)
 800cc14:	80000e93          	li	t4,-2048
 800cc18:	00400193          	li	gp,4
 800cc1c:	01d70463          	beq	a4,t4,800cc24 <test_5>
 800cc20:	4d80506f          	j	80120f8 <fail>

000000000800cc24 <test_5>:
    li  a1, 0x0000000080000000; \
    amoswap.d a4, a1, 0(a3); \
  )

  TEST_CASE(5, a5, 0x0000000080000000, ld a5, 0(a3))
 800cc24:	0006b783          	ld	a5,0(a3)
 800cc28:	00100e9b          	addiw	t4,zero,1
 800cc2c:	01fe9e93          	slli	t4,t4,0x1f
 800cc30:	00500193          	li	gp,5
 800cc34:	01d78463          	beq	a5,t4,800cc3c <test_5+0x18>
 800cc38:	4c00506f          	j	80120f8 <fail>

  TEST_PASSFAIL

RVTEST_CODE_END
 800cc3c:	c0001073          	unimp

RVTEST_RV64U
RVTEST_CODE_BEGIN

# get a unique core id
la a0, coreid
 800cc40:	00006517          	auipc	a0,0x6
 800cc44:	51050513          	addi	a0,a0,1296 # 8013150 <coreid>
li a1, 1
 800cc48:	00100593          	li	a1,1
amoadd.w a2, a1, (a0)
 800cc4c:	00b5262f          	amoadd.w	a2,a1,(a0)

# for now, only run this on core 0
1:li a3, 1
 800cc50:	00100693          	li	a3,1
bgeu a2, a3, 1b
 800cc54:	fed67ee3          	bleu	a3,a2,800cc50 <test_5+0x2c>

1: lw a1, (a0)
 800cc58:	00052583          	lw	a1,0(a0)
bltu a1, a3, 1b
 800cc5c:	fed5eee3          	bltu	a1,a3,800cc58 <test_5+0x34>

000000000800cc60 <test_2>:

# make sure that sc without a reservation fails.
TEST_CASE( 2, a4, 1, \
 800cc60:	00006517          	auipc	a0,0x6
 800cc64:	4f850513          	addi	a0,a0,1272 # 8013158 <foo>
 800cc68:	000387b7          	lui	a5,0x38
 800cc6c:	ab77879b          	addiw	a5,a5,-1353
 800cc70:	00e79793          	slli	a5,a5,0xe
 800cc74:	eef78793          	addi	a5,a5,-273 # 37eef <u_mode_trap_table-0x7fc8115>
 800cc78:	18f5272f          	sc.w	a4,a5,(a0)
 800cc7c:	00100e93          	li	t4,1
 800cc80:	00200193          	li	gp,2
 800cc84:	01d70463          	beq	a4,t4,800cc8c <test_3>
 800cc88:	4700506f          	j	80120f8 <fail>

000000000800cc8c <test_3>:
  li a5, 0xdeadbeef; \
  sc.w a4, a5, (a0); \
)

# make sure the failing sc did not commit into memory
TEST_CASE( 3, a4, 0, \
 800cc8c:	00006717          	auipc	a4,0x6
 800cc90:	4cc72703          	lw	a4,1228(a4) # 8013158 <foo>
 800cc94:	00000e93          	li	t4,0
 800cc98:	00300193          	li	gp,3
 800cc9c:	01d70463          	beq	a4,t4,800cca4 <test_3+0x18>
 800cca0:	4580506f          	j	80120f8 <fail>
#)

#define LOG_ITERATIONS 10

# have each core add its coreid+1 to foo 1024 times
la a0, foo
 800cca4:	00006517          	auipc	a0,0x6
 800cca8:	4b450513          	addi	a0,a0,1204 # 8013158 <foo>
li a1, 1<<LOG_ITERATIONS
 800ccac:	40000593          	li	a1,1024
addi a2, a2, 1
 800ccb0:	00160613          	addi	a2,a2,1
1: lr.w a4, (a0)
 800ccb4:	1005272f          	lr.w	a4,(a0)
add a4, a4, a2
 800ccb8:	00c70733          	add	a4,a4,a2
sc.w a4, a4, (a0)
 800ccbc:	18e5272f          	sc.w	a4,a4,(a0)
bnez a4, 1b
 800ccc0:	fe071ae3          	bnez	a4,800ccb4 <test_3+0x28>
add a1, a1, -1
 800ccc4:	fff58593          	addi	a1,a1,-1
bnez a1, 1b
 800ccc8:	fe0596e3          	bnez	a1,800ccb4 <test_3+0x28>

# wait for all cores to finish
la a0, barrier
 800cccc:	00006517          	auipc	a0,0x6
 800ccd0:	48850513          	addi	a0,a0,1160 # 8013154 <barrier>
li a1, 1
 800ccd4:	00100593          	li	a1,1
amoadd.w x0, a1, (a0)
 800ccd8:	00b5202f          	amoadd.w	zero,a1,(a0)
1: lw a1, (a0)
 800ccdc:	00052583          	lw	a1,0(a0)
blt a1, a3, 1b
 800cce0:	fed5cee3          	blt	a1,a3,800ccdc <test_3+0x50>
fence
 800cce4:	0ff0000f          	fence

000000000800cce8 <test_5>:

# expected result is 512*ncores*(ncores+1)
TEST_CASE( 5, a0, 0, \
 800cce8:	00006517          	auipc	a0,0x6
 800ccec:	47052503          	lw	a0,1136(a0) # 8013158 <foo>
 800ccf0:	00969593          	slli	a1,a3,0x9
 800ccf4:	40b50533          	sub	a0,a0,a1
 800ccf8:	fff68693          	addi	a3,a3,-1
 800ccfc:	fe06dce3          	bgez	a3,800ccf4 <test_5+0xc>
 800cd00:	00000e93          	li	t4,0
 800cd04:	00500193          	li	gp,5
 800cd08:	01d50463          	beq	a0,t4,800cd10 <test_6>
 800cd0c:	3ec0506f          	j	80120f8 <fail>

000000000800cd10 <test_6>:
  addi a3, a3, -1; \
  bgez a3, 1b
)

# make sure that sc-after-successful-sc fails.
TEST_CASE( 6, a1, 1, \
 800cd10:	00006517          	auipc	a0,0x6
 800cd14:	44850513          	addi	a0,a0,1096 # 8013158 <foo>
 800cd18:	100525af          	lr.w	a1,(a0)
 800cd1c:	180525af          	sc.w	a1,zero,(a0)
 800cd20:	fe059ce3          	bnez	a1,800cd18 <test_6+0x8>
 800cd24:	180525af          	sc.w	a1,zero,(a0)
 800cd28:	00100e93          	li	t4,1
 800cd2c:	00600193          	li	gp,6
 800cd30:	01d58463          	beq	a1,t4,800cd38 <test_6+0x28>
 800cd34:	3c40506f          	j	80120f8 <fail>
  sc.w a1, x0, (a0)
)

TEST_PASSFAIL

RVTEST_CODE_END
 800cd38:	c0001073          	unimp
	...

  #define RVC_TEST_CASE(n, r, v, code...) \
    TEST_CASE (n, r, v, .option push; .option rvc; code; .align 2; .option pop)

  // Make sure fetching a 4-byte instruction across a page boundary works.
  li TESTNUM, 2
 800d000:	00200193          	li	gp,2
  li a1, 666
 800d004:	29a00593          	li	a1,666

000000000800d008 <test_2>:
  TEST_CASE (2, a1, 667, \
 800d008:	7f70106f          	j	800effe <data+0x1fee>
 800d00c:	00000013          	nop

000000000800d010 <data>:
 800d010:	3210                	fld	fa2,32(a2)
 800d012:	7654                	ld	a3,168(a2)
 800d014:	ba98                	fsd	fa4,48(a3)
 800d016:	fedc                	sd	a5,184(a3)
 800d018:	3210                	fld	fa2,32(a2)
 800d01a:	7654                	ld	a3,168(a2)
 800d01c:	ba98                	fsd	fa4,48(a3)
 800d01e:	fedc                	sd	a5,184(a3)
 800d020:	00000013          	nop
 800d024:	00000013          	nop
 800d028:	00000013          	nop
 800d02c:	00000013          	nop
 800d030:	00000013          	nop
 800d034:	00000013          	nop
 800d038:	00000013          	nop
 800d03c:	00000013          	nop
 800d040:	00000013          	nop
 800d044:	00000013          	nop
 800d048:	00000013          	nop
 800d04c:	00000013          	nop
 800d050:	00000013          	nop
 800d054:	00000013          	nop
 800d058:	00000013          	nop
 800d05c:	00000013          	nop
 800d060:	00000013          	nop
 800d064:	00000013          	nop
 800d068:	00000013          	nop
 800d06c:	00000013          	nop
 800d070:	00000013          	nop
 800d074:	00000013          	nop
 800d078:	00000013          	nop
 800d07c:	00000013          	nop
 800d080:	00000013          	nop
 800d084:	00000013          	nop
 800d088:	00000013          	nop
 800d08c:	00000013          	nop
 800d090:	00000013          	nop
 800d094:	00000013          	nop
 800d098:	00000013          	nop
 800d09c:	00000013          	nop
 800d0a0:	00000013          	nop
 800d0a4:	00000013          	nop
 800d0a8:	00000013          	nop
 800d0ac:	00000013          	nop
 800d0b0:	00000013          	nop
 800d0b4:	00000013          	nop
 800d0b8:	00000013          	nop
 800d0bc:	00000013          	nop
 800d0c0:	00000013          	nop
 800d0c4:	00000013          	nop
 800d0c8:	00000013          	nop
 800d0cc:	00000013          	nop
 800d0d0:	00000013          	nop
 800d0d4:	00000013          	nop
 800d0d8:	00000013          	nop
 800d0dc:	00000013          	nop
 800d0e0:	00000013          	nop
 800d0e4:	00000013          	nop
 800d0e8:	00000013          	nop
 800d0ec:	00000013          	nop
 800d0f0:	00000013          	nop
 800d0f4:	00000013          	nop
 800d0f8:	00000013          	nop
 800d0fc:	00000013          	nop
 800d100:	00000013          	nop
 800d104:	00000013          	nop
 800d108:	00000013          	nop
 800d10c:	00000013          	nop
 800d110:	00000013          	nop
 800d114:	00000013          	nop
 800d118:	00000013          	nop
 800d11c:	00000013          	nop
 800d120:	00000013          	nop
 800d124:	00000013          	nop
 800d128:	00000013          	nop
 800d12c:	00000013          	nop
 800d130:	00000013          	nop
 800d134:	00000013          	nop
 800d138:	00000013          	nop
 800d13c:	00000013          	nop
 800d140:	00000013          	nop
 800d144:	00000013          	nop
 800d148:	00000013          	nop
 800d14c:	00000013          	nop
 800d150:	00000013          	nop
 800d154:	00000013          	nop
 800d158:	00000013          	nop
 800d15c:	00000013          	nop
 800d160:	00000013          	nop
 800d164:	00000013          	nop
 800d168:	00000013          	nop
 800d16c:	00000013          	nop
 800d170:	00000013          	nop
 800d174:	00000013          	nop
 800d178:	00000013          	nop
 800d17c:	00000013          	nop
 800d180:	00000013          	nop
 800d184:	00000013          	nop
 800d188:	00000013          	nop
 800d18c:	00000013          	nop
 800d190:	00000013          	nop
 800d194:	00000013          	nop
 800d198:	00000013          	nop
 800d19c:	00000013          	nop
 800d1a0:	00000013          	nop
 800d1a4:	00000013          	nop
 800d1a8:	00000013          	nop
 800d1ac:	00000013          	nop
 800d1b0:	00000013          	nop
 800d1b4:	00000013          	nop
 800d1b8:	00000013          	nop
 800d1bc:	00000013          	nop
 800d1c0:	00000013          	nop
 800d1c4:	00000013          	nop
 800d1c8:	00000013          	nop
 800d1cc:	00000013          	nop
 800d1d0:	00000013          	nop
 800d1d4:	00000013          	nop
 800d1d8:	00000013          	nop
 800d1dc:	00000013          	nop
 800d1e0:	00000013          	nop
 800d1e4:	00000013          	nop
 800d1e8:	00000013          	nop
 800d1ec:	00000013          	nop
 800d1f0:	00000013          	nop
 800d1f4:	00000013          	nop
 800d1f8:	00000013          	nop
 800d1fc:	00000013          	nop
 800d200:	00000013          	nop
 800d204:	00000013          	nop
 800d208:	00000013          	nop
 800d20c:	00000013          	nop
 800d210:	00000013          	nop
 800d214:	00000013          	nop
 800d218:	00000013          	nop
 800d21c:	00000013          	nop
 800d220:	00000013          	nop
 800d224:	00000013          	nop
 800d228:	00000013          	nop
 800d22c:	00000013          	nop
 800d230:	00000013          	nop
 800d234:	00000013          	nop
 800d238:	00000013          	nop
 800d23c:	00000013          	nop
 800d240:	00000013          	nop
 800d244:	00000013          	nop
 800d248:	00000013          	nop
 800d24c:	00000013          	nop
 800d250:	00000013          	nop
 800d254:	00000013          	nop
 800d258:	00000013          	nop
 800d25c:	00000013          	nop
 800d260:	00000013          	nop
 800d264:	00000013          	nop
 800d268:	00000013          	nop
 800d26c:	00000013          	nop
 800d270:	00000013          	nop
 800d274:	00000013          	nop
 800d278:	00000013          	nop
 800d27c:	00000013          	nop
 800d280:	00000013          	nop
 800d284:	00000013          	nop
 800d288:	00000013          	nop
 800d28c:	00000013          	nop
 800d290:	00000013          	nop
 800d294:	00000013          	nop
 800d298:	00000013          	nop
 800d29c:	00000013          	nop
 800d2a0:	00000013          	nop
 800d2a4:	00000013          	nop
 800d2a8:	00000013          	nop
 800d2ac:	00000013          	nop
 800d2b0:	00000013          	nop
 800d2b4:	00000013          	nop
 800d2b8:	00000013          	nop
 800d2bc:	00000013          	nop
 800d2c0:	00000013          	nop
 800d2c4:	00000013          	nop
 800d2c8:	00000013          	nop
 800d2cc:	00000013          	nop
 800d2d0:	00000013          	nop
 800d2d4:	00000013          	nop
 800d2d8:	00000013          	nop
 800d2dc:	00000013          	nop
 800d2e0:	00000013          	nop
 800d2e4:	00000013          	nop
 800d2e8:	00000013          	nop
 800d2ec:	00000013          	nop
 800d2f0:	00000013          	nop
 800d2f4:	00000013          	nop
 800d2f8:	00000013          	nop
 800d2fc:	00000013          	nop
 800d300:	00000013          	nop
 800d304:	00000013          	nop
 800d308:	00000013          	nop
 800d30c:	00000013          	nop
 800d310:	00000013          	nop
 800d314:	00000013          	nop
 800d318:	00000013          	nop
 800d31c:	00000013          	nop
 800d320:	00000013          	nop
 800d324:	00000013          	nop
 800d328:	00000013          	nop
 800d32c:	00000013          	nop
 800d330:	00000013          	nop
 800d334:	00000013          	nop
 800d338:	00000013          	nop
 800d33c:	00000013          	nop
 800d340:	00000013          	nop
 800d344:	00000013          	nop
 800d348:	00000013          	nop
 800d34c:	00000013          	nop
 800d350:	00000013          	nop
 800d354:	00000013          	nop
 800d358:	00000013          	nop
 800d35c:	00000013          	nop
 800d360:	00000013          	nop
 800d364:	00000013          	nop
 800d368:	00000013          	nop
 800d36c:	00000013          	nop
 800d370:	00000013          	nop
 800d374:	00000013          	nop
 800d378:	00000013          	nop
 800d37c:	00000013          	nop
 800d380:	00000013          	nop
 800d384:	00000013          	nop
 800d388:	00000013          	nop
 800d38c:	00000013          	nop
 800d390:	00000013          	nop
 800d394:	00000013          	nop
 800d398:	00000013          	nop
 800d39c:	00000013          	nop
 800d3a0:	00000013          	nop
 800d3a4:	00000013          	nop
 800d3a8:	00000013          	nop
 800d3ac:	00000013          	nop
 800d3b0:	00000013          	nop
 800d3b4:	00000013          	nop
 800d3b8:	00000013          	nop
 800d3bc:	00000013          	nop
 800d3c0:	00000013          	nop
 800d3c4:	00000013          	nop
 800d3c8:	00000013          	nop
 800d3cc:	00000013          	nop
 800d3d0:	00000013          	nop
 800d3d4:	00000013          	nop
 800d3d8:	00000013          	nop
 800d3dc:	00000013          	nop
 800d3e0:	00000013          	nop
 800d3e4:	00000013          	nop
 800d3e8:	00000013          	nop
 800d3ec:	00000013          	nop
 800d3f0:	00000013          	nop
 800d3f4:	00000013          	nop
 800d3f8:	00000013          	nop
 800d3fc:	00000013          	nop
 800d400:	00000013          	nop
 800d404:	00000013          	nop
 800d408:	00000013          	nop
 800d40c:	00000013          	nop
 800d410:	00000013          	nop
 800d414:	00000013          	nop
 800d418:	00000013          	nop
 800d41c:	00000013          	nop
 800d420:	00000013          	nop
 800d424:	00000013          	nop
 800d428:	00000013          	nop
 800d42c:	00000013          	nop
 800d430:	00000013          	nop
 800d434:	00000013          	nop
 800d438:	00000013          	nop
 800d43c:	00000013          	nop
 800d440:	00000013          	nop
 800d444:	00000013          	nop
 800d448:	00000013          	nop
 800d44c:	00000013          	nop
 800d450:	00000013          	nop
 800d454:	00000013          	nop
 800d458:	00000013          	nop
 800d45c:	00000013          	nop
 800d460:	00000013          	nop
 800d464:	00000013          	nop
 800d468:	00000013          	nop
 800d46c:	00000013          	nop
 800d470:	00000013          	nop
 800d474:	00000013          	nop
 800d478:	00000013          	nop
 800d47c:	00000013          	nop
 800d480:	00000013          	nop
 800d484:	00000013          	nop
 800d488:	00000013          	nop
 800d48c:	00000013          	nop
 800d490:	00000013          	nop
 800d494:	00000013          	nop
 800d498:	00000013          	nop
 800d49c:	00000013          	nop
 800d4a0:	00000013          	nop
 800d4a4:	00000013          	nop
 800d4a8:	00000013          	nop
 800d4ac:	00000013          	nop
 800d4b0:	00000013          	nop
 800d4b4:	00000013          	nop
 800d4b8:	00000013          	nop
 800d4bc:	00000013          	nop
 800d4c0:	00000013          	nop
 800d4c4:	00000013          	nop
 800d4c8:	00000013          	nop
 800d4cc:	00000013          	nop
 800d4d0:	00000013          	nop
 800d4d4:	00000013          	nop
 800d4d8:	00000013          	nop
 800d4dc:	00000013          	nop
 800d4e0:	00000013          	nop
 800d4e4:	00000013          	nop
 800d4e8:	00000013          	nop
 800d4ec:	00000013          	nop
 800d4f0:	00000013          	nop
 800d4f4:	00000013          	nop
 800d4f8:	00000013          	nop
 800d4fc:	00000013          	nop
 800d500:	00000013          	nop
 800d504:	00000013          	nop
 800d508:	00000013          	nop
 800d50c:	00000013          	nop
 800d510:	00000013          	nop
 800d514:	00000013          	nop
 800d518:	00000013          	nop
 800d51c:	00000013          	nop
 800d520:	00000013          	nop
 800d524:	00000013          	nop
 800d528:	00000013          	nop
 800d52c:	00000013          	nop
 800d530:	00000013          	nop
 800d534:	00000013          	nop
 800d538:	00000013          	nop
 800d53c:	00000013          	nop
 800d540:	00000013          	nop
 800d544:	00000013          	nop
 800d548:	00000013          	nop
 800d54c:	00000013          	nop
 800d550:	00000013          	nop
 800d554:	00000013          	nop
 800d558:	00000013          	nop
 800d55c:	00000013          	nop
 800d560:	00000013          	nop
 800d564:	00000013          	nop
 800d568:	00000013          	nop
 800d56c:	00000013          	nop
 800d570:	00000013          	nop
 800d574:	00000013          	nop
 800d578:	00000013          	nop
 800d57c:	00000013          	nop
 800d580:	00000013          	nop
 800d584:	00000013          	nop
 800d588:	00000013          	nop
 800d58c:	00000013          	nop
 800d590:	00000013          	nop
 800d594:	00000013          	nop
 800d598:	00000013          	nop
 800d59c:	00000013          	nop
 800d5a0:	00000013          	nop
 800d5a4:	00000013          	nop
 800d5a8:	00000013          	nop
 800d5ac:	00000013          	nop
 800d5b0:	00000013          	nop
 800d5b4:	00000013          	nop
 800d5b8:	00000013          	nop
 800d5bc:	00000013          	nop
 800d5c0:	00000013          	nop
 800d5c4:	00000013          	nop
 800d5c8:	00000013          	nop
 800d5cc:	00000013          	nop
 800d5d0:	00000013          	nop
 800d5d4:	00000013          	nop
 800d5d8:	00000013          	nop
 800d5dc:	00000013          	nop
 800d5e0:	00000013          	nop
 800d5e4:	00000013          	nop
 800d5e8:	00000013          	nop
 800d5ec:	00000013          	nop
 800d5f0:	00000013          	nop
 800d5f4:	00000013          	nop
 800d5f8:	00000013          	nop
 800d5fc:	00000013          	nop
 800d600:	00000013          	nop
 800d604:	00000013          	nop
 800d608:	00000013          	nop
 800d60c:	00000013          	nop
 800d610:	00000013          	nop
 800d614:	00000013          	nop
 800d618:	00000013          	nop
 800d61c:	00000013          	nop
 800d620:	00000013          	nop
 800d624:	00000013          	nop
 800d628:	00000013          	nop
 800d62c:	00000013          	nop
 800d630:	00000013          	nop
 800d634:	00000013          	nop
 800d638:	00000013          	nop
 800d63c:	00000013          	nop
 800d640:	00000013          	nop
 800d644:	00000013          	nop
 800d648:	00000013          	nop
 800d64c:	00000013          	nop
 800d650:	00000013          	nop
 800d654:	00000013          	nop
 800d658:	00000013          	nop
 800d65c:	00000013          	nop
 800d660:	00000013          	nop
 800d664:	00000013          	nop
 800d668:	00000013          	nop
 800d66c:	00000013          	nop
 800d670:	00000013          	nop
 800d674:	00000013          	nop
 800d678:	00000013          	nop
 800d67c:	00000013          	nop
 800d680:	00000013          	nop
 800d684:	00000013          	nop
 800d688:	00000013          	nop
 800d68c:	00000013          	nop
 800d690:	00000013          	nop
 800d694:	00000013          	nop
 800d698:	00000013          	nop
 800d69c:	00000013          	nop
 800d6a0:	00000013          	nop
 800d6a4:	00000013          	nop
 800d6a8:	00000013          	nop
 800d6ac:	00000013          	nop
 800d6b0:	00000013          	nop
 800d6b4:	00000013          	nop
 800d6b8:	00000013          	nop
 800d6bc:	00000013          	nop
 800d6c0:	00000013          	nop
 800d6c4:	00000013          	nop
 800d6c8:	00000013          	nop
 800d6cc:	00000013          	nop
 800d6d0:	00000013          	nop
 800d6d4:	00000013          	nop
 800d6d8:	00000013          	nop
 800d6dc:	00000013          	nop
 800d6e0:	00000013          	nop
 800d6e4:	00000013          	nop
 800d6e8:	00000013          	nop
 800d6ec:	00000013          	nop
 800d6f0:	00000013          	nop
 800d6f4:	00000013          	nop
 800d6f8:	00000013          	nop
 800d6fc:	00000013          	nop
 800d700:	00000013          	nop
 800d704:	00000013          	nop
 800d708:	00000013          	nop
 800d70c:	00000013          	nop
 800d710:	00000013          	nop
 800d714:	00000013          	nop
 800d718:	00000013          	nop
 800d71c:	00000013          	nop
 800d720:	00000013          	nop
 800d724:	00000013          	nop
 800d728:	00000013          	nop
 800d72c:	00000013          	nop
 800d730:	00000013          	nop
 800d734:	00000013          	nop
 800d738:	00000013          	nop
 800d73c:	00000013          	nop
 800d740:	00000013          	nop
 800d744:	00000013          	nop
 800d748:	00000013          	nop
 800d74c:	00000013          	nop
 800d750:	00000013          	nop
 800d754:	00000013          	nop
 800d758:	00000013          	nop
 800d75c:	00000013          	nop
 800d760:	00000013          	nop
 800d764:	00000013          	nop
 800d768:	00000013          	nop
 800d76c:	00000013          	nop
 800d770:	00000013          	nop
 800d774:	00000013          	nop
 800d778:	00000013          	nop
 800d77c:	00000013          	nop
 800d780:	00000013          	nop
 800d784:	00000013          	nop
 800d788:	00000013          	nop
 800d78c:	00000013          	nop
 800d790:	00000013          	nop
 800d794:	00000013          	nop
 800d798:	00000013          	nop
 800d79c:	00000013          	nop
 800d7a0:	00000013          	nop
 800d7a4:	00000013          	nop
 800d7a8:	00000013          	nop
 800d7ac:	00000013          	nop
 800d7b0:	00000013          	nop
 800d7b4:	00000013          	nop
 800d7b8:	00000013          	nop
 800d7bc:	00000013          	nop
 800d7c0:	00000013          	nop
 800d7c4:	00000013          	nop
 800d7c8:	00000013          	nop
 800d7cc:	00000013          	nop
 800d7d0:	00000013          	nop
 800d7d4:	00000013          	nop
 800d7d8:	00000013          	nop
 800d7dc:	00000013          	nop
 800d7e0:	00000013          	nop
 800d7e4:	00000013          	nop
 800d7e8:	00000013          	nop
 800d7ec:	00000013          	nop
 800d7f0:	00000013          	nop
 800d7f4:	00000013          	nop
 800d7f8:	00000013          	nop
 800d7fc:	00000013          	nop
 800d800:	00000013          	nop
 800d804:	00000013          	nop
 800d808:	00000013          	nop
 800d80c:	00000013          	nop
 800d810:	00000013          	nop
 800d814:	00000013          	nop
 800d818:	00000013          	nop
 800d81c:	00000013          	nop
 800d820:	00000013          	nop
 800d824:	00000013          	nop
 800d828:	00000013          	nop
 800d82c:	00000013          	nop
 800d830:	00000013          	nop
 800d834:	00000013          	nop
 800d838:	00000013          	nop
 800d83c:	00000013          	nop
 800d840:	00000013          	nop
 800d844:	00000013          	nop
 800d848:	00000013          	nop
 800d84c:	00000013          	nop
 800d850:	00000013          	nop
 800d854:	00000013          	nop
 800d858:	00000013          	nop
 800d85c:	00000013          	nop
 800d860:	00000013          	nop
 800d864:	00000013          	nop
 800d868:	00000013          	nop
 800d86c:	00000013          	nop
 800d870:	00000013          	nop
 800d874:	00000013          	nop
 800d878:	00000013          	nop
 800d87c:	00000013          	nop
 800d880:	00000013          	nop
 800d884:	00000013          	nop
 800d888:	00000013          	nop
 800d88c:	00000013          	nop
 800d890:	00000013          	nop
 800d894:	00000013          	nop
 800d898:	00000013          	nop
 800d89c:	00000013          	nop
 800d8a0:	00000013          	nop
 800d8a4:	00000013          	nop
 800d8a8:	00000013          	nop
 800d8ac:	00000013          	nop
 800d8b0:	00000013          	nop
 800d8b4:	00000013          	nop
 800d8b8:	00000013          	nop
 800d8bc:	00000013          	nop
 800d8c0:	00000013          	nop
 800d8c4:	00000013          	nop
 800d8c8:	00000013          	nop
 800d8cc:	00000013          	nop
 800d8d0:	00000013          	nop
 800d8d4:	00000013          	nop
 800d8d8:	00000013          	nop
 800d8dc:	00000013          	nop
 800d8e0:	00000013          	nop
 800d8e4:	00000013          	nop
 800d8e8:	00000013          	nop
 800d8ec:	00000013          	nop
 800d8f0:	00000013          	nop
 800d8f4:	00000013          	nop
 800d8f8:	00000013          	nop
 800d8fc:	00000013          	nop
 800d900:	00000013          	nop
 800d904:	00000013          	nop
 800d908:	00000013          	nop
 800d90c:	00000013          	nop
 800d910:	00000013          	nop
 800d914:	00000013          	nop
 800d918:	00000013          	nop
 800d91c:	00000013          	nop
 800d920:	00000013          	nop
 800d924:	00000013          	nop
 800d928:	00000013          	nop
 800d92c:	00000013          	nop
 800d930:	00000013          	nop
 800d934:	00000013          	nop
 800d938:	00000013          	nop
 800d93c:	00000013          	nop
 800d940:	00000013          	nop
 800d944:	00000013          	nop
 800d948:	00000013          	nop
 800d94c:	00000013          	nop
 800d950:	00000013          	nop
 800d954:	00000013          	nop
 800d958:	00000013          	nop
 800d95c:	00000013          	nop
 800d960:	00000013          	nop
 800d964:	00000013          	nop
 800d968:	00000013          	nop
 800d96c:	00000013          	nop
 800d970:	00000013          	nop
 800d974:	00000013          	nop
 800d978:	00000013          	nop
 800d97c:	00000013          	nop
 800d980:	00000013          	nop
 800d984:	00000013          	nop
 800d988:	00000013          	nop
 800d98c:	00000013          	nop
 800d990:	00000013          	nop
 800d994:	00000013          	nop
 800d998:	00000013          	nop
 800d99c:	00000013          	nop
 800d9a0:	00000013          	nop
 800d9a4:	00000013          	nop
 800d9a8:	00000013          	nop
 800d9ac:	00000013          	nop
 800d9b0:	00000013          	nop
 800d9b4:	00000013          	nop
 800d9b8:	00000013          	nop
 800d9bc:	00000013          	nop
 800d9c0:	00000013          	nop
 800d9c4:	00000013          	nop
 800d9c8:	00000013          	nop
 800d9cc:	00000013          	nop
 800d9d0:	00000013          	nop
 800d9d4:	00000013          	nop
 800d9d8:	00000013          	nop
 800d9dc:	00000013          	nop
 800d9e0:	00000013          	nop
 800d9e4:	00000013          	nop
 800d9e8:	00000013          	nop
 800d9ec:	00000013          	nop
 800d9f0:	00000013          	nop
 800d9f4:	00000013          	nop
 800d9f8:	00000013          	nop
 800d9fc:	00000013          	nop
 800da00:	00000013          	nop
 800da04:	00000013          	nop
 800da08:	00000013          	nop
 800da0c:	00000013          	nop
 800da10:	00000013          	nop
 800da14:	00000013          	nop
 800da18:	00000013          	nop
 800da1c:	00000013          	nop
 800da20:	00000013          	nop
 800da24:	00000013          	nop
 800da28:	00000013          	nop
 800da2c:	00000013          	nop
 800da30:	00000013          	nop
 800da34:	00000013          	nop
 800da38:	00000013          	nop
 800da3c:	00000013          	nop
 800da40:	00000013          	nop
 800da44:	00000013          	nop
 800da48:	00000013          	nop
 800da4c:	00000013          	nop
 800da50:	00000013          	nop
 800da54:	00000013          	nop
 800da58:	00000013          	nop
 800da5c:	00000013          	nop
 800da60:	00000013          	nop
 800da64:	00000013          	nop
 800da68:	00000013          	nop
 800da6c:	00000013          	nop
 800da70:	00000013          	nop
 800da74:	00000013          	nop
 800da78:	00000013          	nop
 800da7c:	00000013          	nop
 800da80:	00000013          	nop
 800da84:	00000013          	nop
 800da88:	00000013          	nop
 800da8c:	00000013          	nop
 800da90:	00000013          	nop
 800da94:	00000013          	nop
 800da98:	00000013          	nop
 800da9c:	00000013          	nop
 800daa0:	00000013          	nop
 800daa4:	00000013          	nop
 800daa8:	00000013          	nop
 800daac:	00000013          	nop
 800dab0:	00000013          	nop
 800dab4:	00000013          	nop
 800dab8:	00000013          	nop
 800dabc:	00000013          	nop
 800dac0:	00000013          	nop
 800dac4:	00000013          	nop
 800dac8:	00000013          	nop
 800dacc:	00000013          	nop
 800dad0:	00000013          	nop
 800dad4:	00000013          	nop
 800dad8:	00000013          	nop
 800dadc:	00000013          	nop
 800dae0:	00000013          	nop
 800dae4:	00000013          	nop
 800dae8:	00000013          	nop
 800daec:	00000013          	nop
 800daf0:	00000013          	nop
 800daf4:	00000013          	nop
 800daf8:	00000013          	nop
 800dafc:	00000013          	nop
 800db00:	00000013          	nop
 800db04:	00000013          	nop
 800db08:	00000013          	nop
 800db0c:	00000013          	nop
 800db10:	00000013          	nop
 800db14:	00000013          	nop
 800db18:	00000013          	nop
 800db1c:	00000013          	nop
 800db20:	00000013          	nop
 800db24:	00000013          	nop
 800db28:	00000013          	nop
 800db2c:	00000013          	nop
 800db30:	00000013          	nop
 800db34:	00000013          	nop
 800db38:	00000013          	nop
 800db3c:	00000013          	nop
 800db40:	00000013          	nop
 800db44:	00000013          	nop
 800db48:	00000013          	nop
 800db4c:	00000013          	nop
 800db50:	00000013          	nop
 800db54:	00000013          	nop
 800db58:	00000013          	nop
 800db5c:	00000013          	nop
 800db60:	00000013          	nop
 800db64:	00000013          	nop
 800db68:	00000013          	nop
 800db6c:	00000013          	nop
 800db70:	00000013          	nop
 800db74:	00000013          	nop
 800db78:	00000013          	nop
 800db7c:	00000013          	nop
 800db80:	00000013          	nop
 800db84:	00000013          	nop
 800db88:	00000013          	nop
 800db8c:	00000013          	nop
 800db90:	00000013          	nop
 800db94:	00000013          	nop
 800db98:	00000013          	nop
 800db9c:	00000013          	nop
 800dba0:	00000013          	nop
 800dba4:	00000013          	nop
 800dba8:	00000013          	nop
 800dbac:	00000013          	nop
 800dbb0:	00000013          	nop
 800dbb4:	00000013          	nop
 800dbb8:	00000013          	nop
 800dbbc:	00000013          	nop
 800dbc0:	00000013          	nop
 800dbc4:	00000013          	nop
 800dbc8:	00000013          	nop
 800dbcc:	00000013          	nop
 800dbd0:	00000013          	nop
 800dbd4:	00000013          	nop
 800dbd8:	00000013          	nop
 800dbdc:	00000013          	nop
 800dbe0:	00000013          	nop
 800dbe4:	00000013          	nop
 800dbe8:	00000013          	nop
 800dbec:	00000013          	nop
 800dbf0:	00000013          	nop
 800dbf4:	00000013          	nop
 800dbf8:	00000013          	nop
 800dbfc:	00000013          	nop
 800dc00:	00000013          	nop
 800dc04:	00000013          	nop
 800dc08:	00000013          	nop
 800dc0c:	00000013          	nop
 800dc10:	00000013          	nop
 800dc14:	00000013          	nop
 800dc18:	00000013          	nop
 800dc1c:	00000013          	nop
 800dc20:	00000013          	nop
 800dc24:	00000013          	nop
 800dc28:	00000013          	nop
 800dc2c:	00000013          	nop
 800dc30:	00000013          	nop
 800dc34:	00000013          	nop
 800dc38:	00000013          	nop
 800dc3c:	00000013          	nop
 800dc40:	00000013          	nop
 800dc44:	00000013          	nop
 800dc48:	00000013          	nop
 800dc4c:	00000013          	nop
 800dc50:	00000013          	nop
 800dc54:	00000013          	nop
 800dc58:	00000013          	nop
 800dc5c:	00000013          	nop
 800dc60:	00000013          	nop
 800dc64:	00000013          	nop
 800dc68:	00000013          	nop
 800dc6c:	00000013          	nop
 800dc70:	00000013          	nop
 800dc74:	00000013          	nop
 800dc78:	00000013          	nop
 800dc7c:	00000013          	nop
 800dc80:	00000013          	nop
 800dc84:	00000013          	nop
 800dc88:	00000013          	nop
 800dc8c:	00000013          	nop
 800dc90:	00000013          	nop
 800dc94:	00000013          	nop
 800dc98:	00000013          	nop
 800dc9c:	00000013          	nop
 800dca0:	00000013          	nop
 800dca4:	00000013          	nop
 800dca8:	00000013          	nop
 800dcac:	00000013          	nop
 800dcb0:	00000013          	nop
 800dcb4:	00000013          	nop
 800dcb8:	00000013          	nop
 800dcbc:	00000013          	nop
 800dcc0:	00000013          	nop
 800dcc4:	00000013          	nop
 800dcc8:	00000013          	nop
 800dccc:	00000013          	nop
 800dcd0:	00000013          	nop
 800dcd4:	00000013          	nop
 800dcd8:	00000013          	nop
 800dcdc:	00000013          	nop
 800dce0:	00000013          	nop
 800dce4:	00000013          	nop
 800dce8:	00000013          	nop
 800dcec:	00000013          	nop
 800dcf0:	00000013          	nop
 800dcf4:	00000013          	nop
 800dcf8:	00000013          	nop
 800dcfc:	00000013          	nop
 800dd00:	00000013          	nop
 800dd04:	00000013          	nop
 800dd08:	00000013          	nop
 800dd0c:	00000013          	nop
 800dd10:	00000013          	nop
 800dd14:	00000013          	nop
 800dd18:	00000013          	nop
 800dd1c:	00000013          	nop
 800dd20:	00000013          	nop
 800dd24:	00000013          	nop
 800dd28:	00000013          	nop
 800dd2c:	00000013          	nop
 800dd30:	00000013          	nop
 800dd34:	00000013          	nop
 800dd38:	00000013          	nop
 800dd3c:	00000013          	nop
 800dd40:	00000013          	nop
 800dd44:	00000013          	nop
 800dd48:	00000013          	nop
 800dd4c:	00000013          	nop
 800dd50:	00000013          	nop
 800dd54:	00000013          	nop
 800dd58:	00000013          	nop
 800dd5c:	00000013          	nop
 800dd60:	00000013          	nop
 800dd64:	00000013          	nop
 800dd68:	00000013          	nop
 800dd6c:	00000013          	nop
 800dd70:	00000013          	nop
 800dd74:	00000013          	nop
 800dd78:	00000013          	nop
 800dd7c:	00000013          	nop
 800dd80:	00000013          	nop
 800dd84:	00000013          	nop
 800dd88:	00000013          	nop
 800dd8c:	00000013          	nop
 800dd90:	00000013          	nop
 800dd94:	00000013          	nop
 800dd98:	00000013          	nop
 800dd9c:	00000013          	nop
 800dda0:	00000013          	nop
 800dda4:	00000013          	nop
 800dda8:	00000013          	nop
 800ddac:	00000013          	nop
 800ddb0:	00000013          	nop
 800ddb4:	00000013          	nop
 800ddb8:	00000013          	nop
 800ddbc:	00000013          	nop
 800ddc0:	00000013          	nop
 800ddc4:	00000013          	nop
 800ddc8:	00000013          	nop
 800ddcc:	00000013          	nop
 800ddd0:	00000013          	nop
 800ddd4:	00000013          	nop
 800ddd8:	00000013          	nop
 800dddc:	00000013          	nop
 800dde0:	00000013          	nop
 800dde4:	00000013          	nop
 800dde8:	00000013          	nop
 800ddec:	00000013          	nop
 800ddf0:	00000013          	nop
 800ddf4:	00000013          	nop
 800ddf8:	00000013          	nop
 800ddfc:	00000013          	nop
 800de00:	00000013          	nop
 800de04:	00000013          	nop
 800de08:	00000013          	nop
 800de0c:	00000013          	nop
 800de10:	00000013          	nop
 800de14:	00000013          	nop
 800de18:	00000013          	nop
 800de1c:	00000013          	nop
 800de20:	00000013          	nop
 800de24:	00000013          	nop
 800de28:	00000013          	nop
 800de2c:	00000013          	nop
 800de30:	00000013          	nop
 800de34:	00000013          	nop
 800de38:	00000013          	nop
 800de3c:	00000013          	nop
 800de40:	00000013          	nop
 800de44:	00000013          	nop
 800de48:	00000013          	nop
 800de4c:	00000013          	nop
 800de50:	00000013          	nop
 800de54:	00000013          	nop
 800de58:	00000013          	nop
 800de5c:	00000013          	nop
 800de60:	00000013          	nop
 800de64:	00000013          	nop
 800de68:	00000013          	nop
 800de6c:	00000013          	nop
 800de70:	00000013          	nop
 800de74:	00000013          	nop
 800de78:	00000013          	nop
 800de7c:	00000013          	nop
 800de80:	00000013          	nop
 800de84:	00000013          	nop
 800de88:	00000013          	nop
 800de8c:	00000013          	nop
 800de90:	00000013          	nop
 800de94:	00000013          	nop
 800de98:	00000013          	nop
 800de9c:	00000013          	nop
 800dea0:	00000013          	nop
 800dea4:	00000013          	nop
 800dea8:	00000013          	nop
 800deac:	00000013          	nop
 800deb0:	00000013          	nop
 800deb4:	00000013          	nop
 800deb8:	00000013          	nop
 800debc:	00000013          	nop
 800dec0:	00000013          	nop
 800dec4:	00000013          	nop
 800dec8:	00000013          	nop
 800decc:	00000013          	nop
 800ded0:	00000013          	nop
 800ded4:	00000013          	nop
 800ded8:	00000013          	nop
 800dedc:	00000013          	nop
 800dee0:	00000013          	nop
 800dee4:	00000013          	nop
 800dee8:	00000013          	nop
 800deec:	00000013          	nop
 800def0:	00000013          	nop
 800def4:	00000013          	nop
 800def8:	00000013          	nop
 800defc:	00000013          	nop
 800df00:	00000013          	nop
 800df04:	00000013          	nop
 800df08:	00000013          	nop
 800df0c:	00000013          	nop
 800df10:	00000013          	nop
 800df14:	00000013          	nop
 800df18:	00000013          	nop
 800df1c:	00000013          	nop
 800df20:	00000013          	nop
 800df24:	00000013          	nop
 800df28:	00000013          	nop
 800df2c:	00000013          	nop
 800df30:	00000013          	nop
 800df34:	00000013          	nop
 800df38:	00000013          	nop
 800df3c:	00000013          	nop
 800df40:	00000013          	nop
 800df44:	00000013          	nop
 800df48:	00000013          	nop
 800df4c:	00000013          	nop
 800df50:	00000013          	nop
 800df54:	00000013          	nop
 800df58:	00000013          	nop
 800df5c:	00000013          	nop
 800df60:	00000013          	nop
 800df64:	00000013          	nop
 800df68:	00000013          	nop
 800df6c:	00000013          	nop
 800df70:	00000013          	nop
 800df74:	00000013          	nop
 800df78:	00000013          	nop
 800df7c:	00000013          	nop
 800df80:	00000013          	nop
 800df84:	00000013          	nop
 800df88:	00000013          	nop
 800df8c:	00000013          	nop
 800df90:	00000013          	nop
 800df94:	00000013          	nop
 800df98:	00000013          	nop
 800df9c:	00000013          	nop
 800dfa0:	00000013          	nop
 800dfa4:	00000013          	nop
 800dfa8:	00000013          	nop
 800dfac:	00000013          	nop
 800dfb0:	00000013          	nop
 800dfb4:	00000013          	nop
 800dfb8:	00000013          	nop
 800dfbc:	00000013          	nop
 800dfc0:	00000013          	nop
 800dfc4:	00000013          	nop
 800dfc8:	00000013          	nop
 800dfcc:	00000013          	nop
 800dfd0:	00000013          	nop
 800dfd4:	00000013          	nop
 800dfd8:	00000013          	nop
 800dfdc:	00000013          	nop
 800dfe0:	00000013          	nop
 800dfe4:	00000013          	nop
 800dfe8:	00000013          	nop
 800dfec:	00000013          	nop
 800dff0:	00000013          	nop
 800dff4:	00000013          	nop
 800dff8:	00000013          	nop
 800dffc:	00000013          	nop
	...
 800effc:	0000                	unimp
 800effe:	00158593          	addi	a1,a1,1
 800f002:	29b00e93          	li	t4,667
 800f006:	00200193          	li	gp,2
 800f00a:	01d58463          	beq	a1,t4,800f012 <data+0x2002>
 800f00e:	0ea0306f          	j	80120f8 <fail>
          .dword 0xfedcba9876543210; \
        .align 12; \
        .skip 4094; \
      1: addi a1, a1, 1)

  li sp, 0x1234
 800f012:	00001137          	lui	sp,0x1
 800f016:	2341011b          	addiw	sp,sp,564

000000000800f01a <test_3>:
  RVC_TEST_CASE (3, a0, 0x1234 + 1020, c.addi4spn a0, sp, 1020)
 800f01a:	1fe8                	addi	a0,sp,1020
 800f01c:	00001eb7          	lui	t4,0x1
 800f020:	630e8e9b          	addiw	t4,t4,1584
 800f024:	00300193          	li	gp,3
 800f028:	01d50463          	beq	a0,t4,800f030 <test_4>
 800f02c:	0cc0306f          	j	80120f8 <fail>

000000000800f030 <test_4>:
  RVC_TEST_CASE (4, sp, 0x1234 + 496, c.addi16sp sp, 496)
 800f030:	617d                	addi	sp,sp,496
 800f032:	0001                	nop
 800f034:	00001eb7          	lui	t4,0x1
 800f038:	424e8e9b          	addiw	t4,t4,1060
 800f03c:	00400193          	li	gp,4
 800f040:	01d10463          	beq	sp,t4,800f048 <test_5>
 800f044:	0b40306f          	j	80120f8 <fail>

000000000800f048 <test_5>:
  RVC_TEST_CASE (5, sp, 0x1234 + 496 - 512, c.addi16sp sp, -512)
 800f048:	7101                	addi	sp,sp,-512
 800f04a:	0001                	nop
 800f04c:	00001eb7          	lui	t4,0x1
 800f050:	224e8e9b          	addiw	t4,t4,548
 800f054:	00500193          	li	gp,5
 800f058:	01d10463          	beq	sp,t4,800f060 <test_5+0x18>
 800f05c:	09c0306f          	j	80120f8 <fail>

  la a1, data
 800f060:	ffffe597          	auipc	a1,0xffffe
 800f064:	fb058593          	addi	a1,a1,-80 # 800d010 <data>

000000000800f068 <test_6>:
  RVC_TEST_CASE (6, a2, 0xfffffffffedcba99, c.lw a0, 4(a1); addi a0, a0, 1; c.sw a0, 4(a1); c.lw a2, 4(a1))
 800f068:	41c8                	lw	a0,4(a1)
 800f06a:	0505                	addi	a0,a0,1
 800f06c:	c1c8                	sw	a0,4(a1)
 800f06e:	41d0                	lw	a2,4(a1)
 800f070:	fedcceb7          	lui	t4,0xfedcc
 800f074:	a99e8e9b          	addiw	t4,t4,-1383
 800f078:	00600193          	li	gp,6
 800f07c:	01d60463          	beq	a2,t4,800f084 <test_7>
 800f080:	0780306f          	j	80120f8 <fail>

000000000800f084 <test_7>:
#if __riscv_xlen == 64
  RVC_TEST_CASE (7, a2, 0xfedcba9976543211, c.ld a0, 0(a1); addi a0, a0, 1; c.sd a0, 0(a1); c.ld a2, 0(a1))
 800f084:	6188                	ld	a0,0(a1)
 800f086:	0505                	addi	a0,a0,1
 800f088:	e188                	sd	a0,0(a1)
 800f08a:	6190                	ld	a2,0(a1)
 800f08c:	fff6eeb7          	lui	t4,0xfff6e
 800f090:	5d5e8e9b          	addiw	t4,t4,1493
 800f094:	00ce9e93          	slli	t4,t4,0xc
 800f098:	cbbe8e93          	addi	t4,t4,-837 # fffffffffff6dcbb <_end+0xfffffffff7f5a65b>
 800f09c:	00de9e93          	slli	t4,t4,0xd
 800f0a0:	543e8e93          	addi	t4,t4,1347
 800f0a4:	00ce9e93          	slli	t4,t4,0xc
 800f0a8:	211e8e93          	addi	t4,t4,529
 800f0ac:	00700193          	li	gp,7
 800f0b0:	01d60463          	beq	a2,t4,800f0b8 <test_8>
 800f0b4:	0440306f          	j	80120f8 <fail>

000000000800f0b8 <test_8>:
#endif

  RVC_TEST_CASE (8, a0, -15, ori a0, x0, 1; c.addi a0, -16)
 800f0b8:	00106513          	ori	a0,zero,1
 800f0bc:	1541                	addi	a0,a0,-16
 800f0be:	0001                	nop
 800f0c0:	ff100e93          	li	t4,-15
 800f0c4:	00800193          	li	gp,8
 800f0c8:	01d50463          	beq	a0,t4,800f0d0 <test_9>
 800f0cc:	02c0306f          	j	80120f8 <fail>

000000000800f0d0 <test_9>:
  RVC_TEST_CASE (9, a5, -16, ori a5, x0, 1; c.li a5, -16)
 800f0d0:	00106793          	ori	a5,zero,1
 800f0d4:	57c1                	li	a5,-16
 800f0d6:	0001                	nop
 800f0d8:	ff000e93          	li	t4,-16
 800f0dc:	00900193          	li	gp,9
 800f0e0:	01d78463          	beq	a5,t4,800f0e8 <test_10>
 800f0e4:	0140306f          	j	80120f8 <fail>

000000000800f0e8 <test_10>:
#if __riscv_xlen == 64
  RVC_TEST_CASE (10, a0, 0x76543210, ld a0, (a1); c.addiw a0, -1)
 800f0e8:	0005b503          	ld	a0,0(a1)
 800f0ec:	357d                	addiw	a0,a0,-1
 800f0ee:	0001                	nop
 800f0f0:	76543eb7          	lui	t4,0x76543
 800f0f4:	210e8e9b          	addiw	t4,t4,528
 800f0f8:	00a00193          	li	gp,10
 800f0fc:	01d50463          	beq	a0,t4,800f104 <test_11>
 800f100:	7f90206f          	j	80120f8 <fail>

000000000800f104 <test_11>:
#endif

  RVC_TEST_CASE (11, s0, 0xffffffffffffffe1, c.lui s0, 0xfffe1; c.srai s0, 12)
 800f104:	7405                	lui	s0,0xfffe1
 800f106:	8431                	srai	s0,s0,0xc
 800f108:	fe100e93          	li	t4,-31
 800f10c:	00b00193          	li	gp,11
 800f110:	01d40463          	beq	s0,t4,800f118 <test_12>
 800f114:	7e50206f          	j	80120f8 <fail>

000000000800f118 <test_12>:
#if __riscv_xlen == 64
  RVC_TEST_CASE (12, s0, 0x000fffffffffffe1, c.lui s0, 0xfffe1; c.srli s0, 12)
 800f118:	7405                	lui	s0,0xfffe1
 800f11a:	8031                	srli	s0,s0,0xc
 800f11c:	00100e9b          	addiw	t4,zero,1
 800f120:	034e9e93          	slli	t4,t4,0x34
 800f124:	fe1e8e93          	addi	t4,t4,-31 # 76542fe1 <_end+0x6e52f981>
 800f128:	00c00193          	li	gp,12
 800f12c:	01d40463          	beq	s0,t4,800f134 <test_14>
 800f130:	7c90206f          	j	80120f8 <fail>

000000000800f134 <test_14>:
#else
  RVC_TEST_CASE (12, s0, 0x000fffe1, c.lui s0, 0xfffe1; c.srli s0, 12)
#endif
  RVC_TEST_CASE (14, s0, ~0x11, c.li s0, -2; c.andi s0, ~0x10)
 800f134:	5479                	li	s0,-2
 800f136:	983d                	andi	s0,s0,-17
 800f138:	fee00e93          	li	t4,-18
 800f13c:	00e00193          	li	gp,14
 800f140:	01d40463          	beq	s0,t4,800f148 <test_15>
 800f144:	7b50206f          	j	80120f8 <fail>

000000000800f148 <test_15>:
  RVC_TEST_CASE (15, s1, 14, li s1, 20; li a0, 6; c.sub s1, a0)
 800f148:	44d1                	li	s1,20
 800f14a:	4519                	li	a0,6
 800f14c:	8c89                	sub	s1,s1,a0
 800f14e:	0001                	nop
 800f150:	00e00e93          	li	t4,14
 800f154:	00f00193          	li	gp,15
 800f158:	01d48463          	beq	s1,t4,800f160 <test_16>
 800f15c:	79d0206f          	j	80120f8 <fail>

000000000800f160 <test_16>:
  RVC_TEST_CASE (16, s1, 18, li s1, 20; li a0, 6; c.xor s1, a0)
 800f160:	44d1                	li	s1,20
 800f162:	4519                	li	a0,6
 800f164:	8ca9                	xor	s1,s1,a0
 800f166:	0001                	nop
 800f168:	01200e93          	li	t4,18
 800f16c:	01000193          	li	gp,16
 800f170:	01d48463          	beq	s1,t4,800f178 <test_17>
 800f174:	7850206f          	j	80120f8 <fail>

000000000800f178 <test_17>:
  RVC_TEST_CASE (17, s1, 22, li s1, 20; li a0, 6; c.or s1, a0)
 800f178:	44d1                	li	s1,20
 800f17a:	4519                	li	a0,6
 800f17c:	8cc9                	or	s1,s1,a0
 800f17e:	0001                	nop
 800f180:	01600e93          	li	t4,22
 800f184:	01100193          	li	gp,17
 800f188:	01d48463          	beq	s1,t4,800f190 <test_18>
 800f18c:	76d0206f          	j	80120f8 <fail>

000000000800f190 <test_18>:
  RVC_TEST_CASE (18, s1,  4, li s1, 20; li a0, 6; c.and s1, a0)
 800f190:	44d1                	li	s1,20
 800f192:	4519                	li	a0,6
 800f194:	8ce9                	and	s1,s1,a0
 800f196:	0001                	nop
 800f198:	00400e93          	li	t4,4
 800f19c:	01200193          	li	gp,18
 800f1a0:	01d48463          	beq	s1,t4,800f1a8 <test_19>
 800f1a4:	7550206f          	j	80120f8 <fail>

000000000800f1a8 <test_19>:
#if __riscv_xlen == 64
  RVC_TEST_CASE (19, s1, 0xffffffff80000000, li s1, 0x7fffffff; li a0, -1; c.subw s1, a0)
 800f1a8:	800004b7          	lui	s1,0x80000
 800f1ac:	fff4849b          	addiw	s1,s1,-1
 800f1b0:	557d                	li	a0,-1
 800f1b2:	9c89                	subw	s1,s1,a0
 800f1b4:	80000eb7          	lui	t4,0x80000
 800f1b8:	01300193          	li	gp,19
 800f1bc:	01d48463          	beq	s1,t4,800f1c4 <test_20>
 800f1c0:	7390206f          	j	80120f8 <fail>

000000000800f1c4 <test_20>:
  RVC_TEST_CASE (20, s1, 0xffffffff80000000, li s1, 0x7fffffff; li a0, 1; c.addw s1, a0)
 800f1c4:	800004b7          	lui	s1,0x80000
 800f1c8:	fff4849b          	addiw	s1,s1,-1
 800f1cc:	4505                	li	a0,1
 800f1ce:	9ca9                	addw	s1,s1,a0
 800f1d0:	80000eb7          	lui	t4,0x80000
 800f1d4:	01400193          	li	gp,20
 800f1d8:	01d48463          	beq	s1,t4,800f1e0 <test_21>
 800f1dc:	71d0206f          	j	80120f8 <fail>

000000000800f1e0 <test_21>:
#endif
  RVC_TEST_CASE (21, s0, 0x12340, li s0, 0x1234; c.slli s0, 4)
 800f1e0:	00001437          	lui	s0,0x1
 800f1e4:	2344041b          	addiw	s0,s0,564
 800f1e8:	0412                	slli	s0,s0,0x4
 800f1ea:	0001                	nop
 800f1ec:	00012eb7          	lui	t4,0x12
 800f1f0:	340e8e9b          	addiw	t4,t4,832
 800f1f4:	01500193          	li	gp,21
 800f1f8:	01d40463          	beq	s0,t4,800f200 <test_30>
 800f1fc:	6fd0206f          	j	80120f8 <fail>

000000000800f200 <test_30>:

  RVC_TEST_CASE (30, ra, 0, \
 800f200:	4081                	li	ra,0
 800f202:	a011                	j	800f206 <test_30+0x6>
 800f204:	a011                	j	800f208 <test_30+0x8>
 800f206:	a019                	j	800f20c <test_30+0xc>
 800f208:	6f10206f          	j	80120f8 <fail>
 800f20c:	00000e93          	li	t4,0
 800f210:	01e00193          	li	gp,30
 800f214:	01d08463          	beq	ra,t4,800f21c <test_31>
 800f218:	6e10206f          	j	80120f8 <fail>

000000000800f21c <test_31>:
        c.j 2f; \
      1:c.j 1f; \
      2:j fail; \
      1:)

  RVC_TEST_CASE (31, x0, 0, \
 800f21c:	4501                	li	a0,0
 800f21e:	c111                	beqz	a0,800f222 <test_31+0x6>
 800f220:	a011                	j	800f224 <test_31+0x8>
 800f222:	a019                	j	800f228 <test_31+0xc>
 800f224:	6d50206f          	j	80120f8 <fail>
 800f228:	00000e93          	li	t4,0
 800f22c:	01f00193          	li	gp,31
 800f230:	01d00463          	beq	zero,t4,800f238 <test_32>
 800f234:	6c50206f          	j	80120f8 <fail>

000000000800f238 <test_32>:
        c.j 2f; \
      1:c.j 1f; \
      2:j fail; \
      1:)

  RVC_TEST_CASE (32, x0, 0, \
 800f238:	4505                	li	a0,1
 800f23a:	e111                	bnez	a0,800f23e <test_32+0x6>
 800f23c:	a011                	j	800f240 <test_32+0x8>
 800f23e:	a019                	j	800f244 <test_32+0xc>
 800f240:	6b90206f          	j	80120f8 <fail>
 800f244:	00000e93          	li	t4,0
 800f248:	02000193          	li	gp,32
 800f24c:	01d00463          	beq	zero,t4,800f254 <test_33>
 800f250:	6a90206f          	j	80120f8 <fail>

000000000800f254 <test_33>:
        c.j 2f; \
      1:c.j 1f; \
      2:j fail; \
      1:)

  RVC_TEST_CASE (33, x0, 0, \
 800f254:	4505                	li	a0,1
 800f256:	c111                	beqz	a0,800f25a <test_33+0x6>
 800f258:	a019                	j	800f25e <test_33+0xa>
 800f25a:	69f0206f          	j	80120f8 <fail>
 800f25e:	0001                	nop
 800f260:	00000e93          	li	t4,0
 800f264:	02100193          	li	gp,33
 800f268:	01d00463          	beq	zero,t4,800f270 <test_34>
 800f26c:	68d0206f          	j	80120f8 <fail>

000000000800f270 <test_34>:
        c.beqz a0, 1f; \
        c.j 2f; \
      1:c.j fail; \
      2:)

  RVC_TEST_CASE (34, x0, 0, \
 800f270:	4501                	li	a0,0
 800f272:	e111                	bnez	a0,800f276 <test_34+0x6>
 800f274:	a019                	j	800f27a <test_34+0xa>
 800f276:	6830206f          	j	80120f8 <fail>
 800f27a:	0001                	nop
 800f27c:	00000e93          	li	t4,0
 800f280:	02200193          	li	gp,34
 800f284:	01d00463          	beq	zero,t4,800f28c <test_35>
 800f288:	6710206f          	j	80120f8 <fail>

000000000800f28c <test_35>:
        c.bnez a0, 1f; \
        c.j 2f; \
      1:c.j fail; \
      2:)

  RVC_TEST_CASE (35, ra, 0, \
 800f28c:	00000297          	auipc	t0,0x0
 800f290:	00e28293          	addi	t0,t0,14 # 800f29a <test_35+0xe>
 800f294:	4081                	li	ra,0
 800f296:	8282                	jr	t0
 800f298:	a011                	j	800f29c <test_35+0x10>
 800f29a:	a019                	j	800f2a0 <test_35+0x14>
 800f29c:	65d0206f          	j	80120f8 <fail>
 800f2a0:	00000e93          	li	t4,0
 800f2a4:	02300193          	li	gp,35
 800f2a8:	01d08463          	beq	ra,t4,800f2b0 <test_36>
 800f2ac:	64d0206f          	j	80120f8 <fail>

000000000800f2b0 <test_36>:
        c.j 2f; \
      1:c.j 1f; \
      2:j fail; \
      1:)

  RVC_TEST_CASE (36, ra, -2, \
 800f2b0:	00000297          	auipc	t0,0x0
 800f2b4:	00e28293          	addi	t0,t0,14 # 800f2be <test_36+0xe>
 800f2b8:	4081                	li	ra,0
 800f2ba:	9282                	jalr	t0
 800f2bc:	a011                	j	800f2c0 <test_36+0x10>
 800f2be:	a019                	j	800f2c4 <test_36+0x14>
 800f2c0:	6390206f          	j	80120f8 <fail>
 800f2c4:	405080b3          	sub	ra,ra,t0
 800f2c8:	ffe00e93          	li	t4,-2
 800f2cc:	02400193          	li	gp,36
 800f2d0:	01d08463          	beq	ra,t4,800f2d8 <test_36+0x28>
 800f2d4:	6250206f          	j	80120f8 <fail>
      1:c.j 1f; \
      2:j fail; \
      1:sub ra, ra, t0)
#endif

  la sp, data
 800f2d8:	ffffe117          	auipc	sp,0xffffe
 800f2dc:	d3810113          	addi	sp,sp,-712 # 800d010 <data>

000000000800f2e0 <test_40>:
  RVC_TEST_CASE (40, a2, 0xfffffffffedcba99, c.lwsp a0, 12(sp); addi a0, a0, 1; c.swsp a0, 12(sp); c.lwsp a2, 12(sp))
 800f2e0:	4532                	lw	a0,12(sp)
 800f2e2:	0505                	addi	a0,a0,1
 800f2e4:	c62a                	sw	a0,12(sp)
 800f2e6:	4632                	lw	a2,12(sp)
 800f2e8:	fedcceb7          	lui	t4,0xfedcc
 800f2ec:	a99e8e9b          	addiw	t4,t4,-1383
 800f2f0:	02800193          	li	gp,40
 800f2f4:	01d60463          	beq	a2,t4,800f2fc <test_41>
 800f2f8:	6010206f          	j	80120f8 <fail>

000000000800f2fc <test_41>:
#if __riscv_xlen == 64
  RVC_TEST_CASE (41, a2, 0xfedcba9976543211, c.ldsp a0, 8(sp); addi a0, a0, 1; c.sdsp a0, 8(sp); c.ldsp a2, 8(sp))
 800f2fc:	6522                	ld	a0,8(sp)
 800f2fe:	0505                	addi	a0,a0,1
 800f300:	e42a                	sd	a0,8(sp)
 800f302:	6622                	ld	a2,8(sp)
 800f304:	fff6eeb7          	lui	t4,0xfff6e
 800f308:	5d5e8e9b          	addiw	t4,t4,1493
 800f30c:	00ce9e93          	slli	t4,t4,0xc
 800f310:	cbbe8e93          	addi	t4,t4,-837 # fffffffffff6dcbb <_end+0xfffffffff7f5a65b>
 800f314:	00de9e93          	slli	t4,t4,0xd
 800f318:	543e8e93          	addi	t4,t4,1347
 800f31c:	00ce9e93          	slli	t4,t4,0xc
 800f320:	211e8e93          	addi	t4,t4,529
 800f324:	02900193          	li	gp,41
 800f328:	01d60463          	beq	a2,t4,800f330 <test_42>
 800f32c:	5cd0206f          	j	80120f8 <fail>

000000000800f330 <test_42>:
#endif

  RVC_TEST_CASE (42, t0, 0x246, li a0, 0x123; c.mv t0, a0; c.add t0, a0)
 800f330:	12300513          	li	a0,291
 800f334:	82aa                	mv	t0,a0
 800f336:	92aa                	add	t0,t0,a0
 800f338:	24600e93          	li	t4,582
 800f33c:	02a00193          	li	gp,42
 800f340:	01d28463          	beq	t0,t4,800f348 <test_42+0x18>
 800f344:	5b50206f          	j	80120f8 <fail>

  .option pop

  TEST_PASSFAIL

RVTEST_CODE_END
 800f348:	c0001073          	unimp
	...

000000000800ffa0 <test_2>:

  #-------------------------------------------------------------
  # Arithmetic tests
  #-------------------------------------------------------------

  TEST_RR_OP( 2, div,  3,  20,   6 );
 800ffa0:	01400093          	li	ra,20
 800ffa4:	00600113          	li	sp,6
 800ffa8:	0220c733          	div	a4,ra,sp
 800ffac:	00300e93          	li	t4,3
 800ffb0:	00200193          	li	gp,2
 800ffb4:	01d70463          	beq	a4,t4,800ffbc <test_3>
 800ffb8:	1400206f          	j	80120f8 <fail>

000000000800ffbc <test_3>:
  TEST_RR_OP( 3, div, -3, -20,   6 );
 800ffbc:	fec00093          	li	ra,-20
 800ffc0:	00600113          	li	sp,6
 800ffc4:	0220c733          	div	a4,ra,sp
 800ffc8:	ffd00e93          	li	t4,-3
 800ffcc:	00300193          	li	gp,3
 800ffd0:	01d70463          	beq	a4,t4,800ffd8 <test_4>
 800ffd4:	1240206f          	j	80120f8 <fail>

000000000800ffd8 <test_4>:
  TEST_RR_OP( 4, div, -3,  20,  -6 );
 800ffd8:	01400093          	li	ra,20
 800ffdc:	ffa00113          	li	sp,-6
 800ffe0:	0220c733          	div	a4,ra,sp
 800ffe4:	ffd00e93          	li	t4,-3
 800ffe8:	00400193          	li	gp,4
 800ffec:	01d70463          	beq	a4,t4,800fff4 <test_5>
 800fff0:	1080206f          	j	80120f8 <fail>

000000000800fff4 <test_5>:
  TEST_RR_OP( 5, div,  3, -20,  -6 );
 800fff4:	fec00093          	li	ra,-20
 800fff8:	ffa00113          	li	sp,-6
 800fffc:	0220c733          	div	a4,ra,sp
 8010000:	00300e93          	li	t4,3
 8010004:	00500193          	li	gp,5
 8010008:	01d70463          	beq	a4,t4,8010010 <test_6>
 801000c:	0ec0206f          	j	80120f8 <fail>

0000000008010010 <test_6>:

  TEST_RR_OP( 6, div, -1<<63, -1<<63,  1 );
 8010010:	fff0009b          	addiw	ra,zero,-1
 8010014:	03f09093          	slli	ra,ra,0x3f
 8010018:	00100113          	li	sp,1
 801001c:	0220c733          	div	a4,ra,sp
 8010020:	fff00e9b          	addiw	t4,zero,-1
 8010024:	03fe9e93          	slli	t4,t4,0x3f
 8010028:	00600193          	li	gp,6
 801002c:	01d70463          	beq	a4,t4,8010034 <test_7>
 8010030:	0c80206f          	j	80120f8 <fail>

0000000008010034 <test_7>:
  TEST_RR_OP( 7, div, -1<<63, -1<<63, -1 );
 8010034:	fff0009b          	addiw	ra,zero,-1
 8010038:	03f09093          	slli	ra,ra,0x3f
 801003c:	fff00113          	li	sp,-1
 8010040:	0220c733          	div	a4,ra,sp
 8010044:	fff00e9b          	addiw	t4,zero,-1
 8010048:	03fe9e93          	slli	t4,t4,0x3f
 801004c:	00700193          	li	gp,7
 8010050:	01d70463          	beq	a4,t4,8010058 <test_8>
 8010054:	0a40206f          	j	80120f8 <fail>

0000000008010058 <test_8>:

  TEST_RR_OP( 8, div, -1, -1<<63, 0 );
 8010058:	fff0009b          	addiw	ra,zero,-1
 801005c:	03f09093          	slli	ra,ra,0x3f
 8010060:	00000113          	li	sp,0
 8010064:	0220c733          	div	a4,ra,sp
 8010068:	fff00e93          	li	t4,-1
 801006c:	00800193          	li	gp,8
 8010070:	01d70463          	beq	a4,t4,8010078 <test_9>
 8010074:	0840206f          	j	80120f8 <fail>

0000000008010078 <test_9>:
  TEST_RR_OP( 9, div, -1,      1, 0 );
 8010078:	00100093          	li	ra,1
 801007c:	00000113          	li	sp,0
 8010080:	0220c733          	div	a4,ra,sp
 8010084:	fff00e93          	li	t4,-1
 8010088:	00900193          	li	gp,9
 801008c:	01d70463          	beq	a4,t4,8010094 <test_10>
 8010090:	0680206f          	j	80120f8 <fail>

0000000008010094 <test_10>:
  TEST_RR_OP(10, div, -1,      0, 0 );
 8010094:	00000093          	li	ra,0
 8010098:	00000113          	li	sp,0
 801009c:	0220c733          	div	a4,ra,sp
 80100a0:	fff00e93          	li	t4,-1
 80100a4:	00a00193          	li	gp,10
 80100a8:	01d70463          	beq	a4,t4,80100b0 <test_10+0x1c>
 80100ac:	04c0206f          	j	80120f8 <fail>

  TEST_PASSFAIL

RVTEST_CODE_END
 80100b0:	c0001073          	unimp

00000000080100b4 <test_2>:

  #-------------------------------------------------------------
  # Arithmetic tests
  #-------------------------------------------------------------

  TEST_RR_OP( 2, divu,                   3,  20,   6 );
 80100b4:	01400093          	li	ra,20
 80100b8:	00600113          	li	sp,6
 80100bc:	0220d733          	divu	a4,ra,sp
 80100c0:	00300e93          	li	t4,3
 80100c4:	00200193          	li	gp,2
 80100c8:	01d70463          	beq	a4,t4,80100d0 <test_3>
 80100cc:	02c0206f          	j	80120f8 <fail>

00000000080100d0 <test_3>:
  TEST_RR_OP( 3, divu, 3074457345618258599, -20,   6 );
 80100d0:	fec00093          	li	ra,-20
 80100d4:	00600113          	li	sp,6
 80100d8:	0220d733          	divu	a4,ra,sp
 80100dc:	02aabeb7          	lui	t4,0x2aab
 80100e0:	aabe8e9b          	addiw	t4,t4,-1365
 80100e4:	00ce9e93          	slli	t4,t4,0xc
 80100e8:	aabe8e93          	addi	t4,t4,-1365 # 2aaaaab <u_mode_trap_table-0x5555559>
 80100ec:	00ce9e93          	slli	t4,t4,0xc
 80100f0:	aabe8e93          	addi	t4,t4,-1365
 80100f4:	00ce9e93          	slli	t4,t4,0xc
 80100f8:	aa7e8e93          	addi	t4,t4,-1369
 80100fc:	00300193          	li	gp,3
 8010100:	01d70463          	beq	a4,t4,8010108 <test_4>
 8010104:	7f50106f          	j	80120f8 <fail>

0000000008010108 <test_4>:
  TEST_RR_OP( 4, divu,                   0,  20,  -6 );
 8010108:	01400093          	li	ra,20
 801010c:	ffa00113          	li	sp,-6
 8010110:	0220d733          	divu	a4,ra,sp
 8010114:	00000e93          	li	t4,0
 8010118:	00400193          	li	gp,4
 801011c:	01d70463          	beq	a4,t4,8010124 <test_5>
 8010120:	7d90106f          	j	80120f8 <fail>

0000000008010124 <test_5>:
  TEST_RR_OP( 5, divu,                   0, -20,  -6 );
 8010124:	fec00093          	li	ra,-20
 8010128:	ffa00113          	li	sp,-6
 801012c:	0220d733          	divu	a4,ra,sp
 8010130:	00000e93          	li	t4,0
 8010134:	00500193          	li	gp,5
 8010138:	01d70463          	beq	a4,t4,8010140 <test_6>
 801013c:	7bd0106f          	j	80120f8 <fail>

0000000008010140 <test_6>:

  TEST_RR_OP( 6, divu, -1<<63, -1<<63,  1 );
 8010140:	fff0009b          	addiw	ra,zero,-1
 8010144:	03f09093          	slli	ra,ra,0x3f
 8010148:	00100113          	li	sp,1
 801014c:	0220d733          	divu	a4,ra,sp
 8010150:	fff00e9b          	addiw	t4,zero,-1
 8010154:	03fe9e93          	slli	t4,t4,0x3f
 8010158:	00600193          	li	gp,6
 801015c:	01d70463          	beq	a4,t4,8010164 <test_7>
 8010160:	7990106f          	j	80120f8 <fail>

0000000008010164 <test_7>:
  TEST_RR_OP( 7, divu,     0,  -1<<63, -1 );
 8010164:	fff0009b          	addiw	ra,zero,-1
 8010168:	03f09093          	slli	ra,ra,0x3f
 801016c:	fff00113          	li	sp,-1
 8010170:	0220d733          	divu	a4,ra,sp
 8010174:	00000e93          	li	t4,0
 8010178:	00700193          	li	gp,7
 801017c:	01d70463          	beq	a4,t4,8010184 <test_8>
 8010180:	7790106f          	j	80120f8 <fail>

0000000008010184 <test_8>:

  TEST_RR_OP( 8, divu, -1, -1<<63, 0 );
 8010184:	fff0009b          	addiw	ra,zero,-1
 8010188:	03f09093          	slli	ra,ra,0x3f
 801018c:	00000113          	li	sp,0
 8010190:	0220d733          	divu	a4,ra,sp
 8010194:	fff00e93          	li	t4,-1
 8010198:	00800193          	li	gp,8
 801019c:	01d70463          	beq	a4,t4,80101a4 <test_9>
 80101a0:	7590106f          	j	80120f8 <fail>

00000000080101a4 <test_9>:
  TEST_RR_OP( 9, divu, -1,      1, 0 );
 80101a4:	00100093          	li	ra,1
 80101a8:	00000113          	li	sp,0
 80101ac:	0220d733          	divu	a4,ra,sp
 80101b0:	fff00e93          	li	t4,-1
 80101b4:	00900193          	li	gp,9
 80101b8:	01d70463          	beq	a4,t4,80101c0 <test_10>
 80101bc:	73d0106f          	j	80120f8 <fail>

00000000080101c0 <test_10>:
  TEST_RR_OP(10, divu, -1,      0, 0 );
 80101c0:	00000093          	li	ra,0
 80101c4:	00000113          	li	sp,0
 80101c8:	0220d733          	divu	a4,ra,sp
 80101cc:	fff00e93          	li	t4,-1
 80101d0:	00a00193          	li	gp,10
 80101d4:	01d70463          	beq	a4,t4,80101dc <test_10+0x1c>
 80101d8:	7210106f          	j	80120f8 <fail>

  TEST_PASSFAIL

RVTEST_CODE_END
 80101dc:	c0001073          	unimp

00000000080101e0 <test_2>:

  #-------------------------------------------------------------
  # Arithmetic tests
  #-------------------------------------------------------------

  TEST_RR_OP( 2, divuw,         3,  20,   6 );
 80101e0:	01400093          	li	ra,20
 80101e4:	00600113          	li	sp,6
 80101e8:	0220d73b          	divuw	a4,ra,sp
 80101ec:	00300e93          	li	t4,3
 80101f0:	00200193          	li	gp,2
 80101f4:	01d70463          	beq	a4,t4,80101fc <test_3>
 80101f8:	7010106f          	j	80120f8 <fail>

00000000080101fc <test_3>:
  TEST_RR_OP( 3, divuw, 715827879, -20 << 32 >> 32,   6 );
 80101fc:	0010009b          	addiw	ra,zero,1
 8010200:	02009093          	slli	ra,ra,0x20
 8010204:	fec08093          	addi	ra,ra,-20 # feffec <u_mode_trap_table-0x7010018>
 8010208:	00600113          	li	sp,6
 801020c:	0220d73b          	divuw	a4,ra,sp
 8010210:	2aaabeb7          	lui	t4,0x2aaab
 8010214:	aa7e8e9b          	addiw	t4,t4,-1369
 8010218:	00300193          	li	gp,3
 801021c:	01d70463          	beq	a4,t4,8010224 <test_4>
 8010220:	6d90106f          	j	80120f8 <fail>

0000000008010224 <test_4>:
  TEST_RR_OP( 4, divuw,         0,  20,  -6 );
 8010224:	01400093          	li	ra,20
 8010228:	ffa00113          	li	sp,-6
 801022c:	0220d73b          	divuw	a4,ra,sp
 8010230:	00000e93          	li	t4,0
 8010234:	00400193          	li	gp,4
 8010238:	01d70463          	beq	a4,t4,8010240 <test_5>
 801023c:	6bd0106f          	j	80120f8 <fail>

0000000008010240 <test_5>:
  TEST_RR_OP( 5, divuw,         0, -20,  -6 );
 8010240:	fec00093          	li	ra,-20
 8010244:	ffa00113          	li	sp,-6
 8010248:	0220d73b          	divuw	a4,ra,sp
 801024c:	00000e93          	li	t4,0
 8010250:	00500193          	li	gp,5
 8010254:	01d70463          	beq	a4,t4,801025c <test_6>
 8010258:	6a10106f          	j	80120f8 <fail>

000000000801025c <test_6>:

  TEST_RR_OP( 6, divuw, -1<<31, -1<<31,  1 );
 801025c:	800000b7          	lui	ra,0x80000
 8010260:	00100113          	li	sp,1
 8010264:	0220d73b          	divuw	a4,ra,sp
 8010268:	80000eb7          	lui	t4,0x80000
 801026c:	00600193          	li	gp,6
 8010270:	01d70463          	beq	a4,t4,8010278 <test_7>
 8010274:	6850106f          	j	80120f8 <fail>

0000000008010278 <test_7>:
  TEST_RR_OP( 7, divuw, 0,      -1<<31, -1 );
 8010278:	800000b7          	lui	ra,0x80000
 801027c:	fff00113          	li	sp,-1
 8010280:	0220d73b          	divuw	a4,ra,sp
 8010284:	00000e93          	li	t4,0
 8010288:	00700193          	li	gp,7
 801028c:	01d70463          	beq	a4,t4,8010294 <test_8>
 8010290:	6690106f          	j	80120f8 <fail>

0000000008010294 <test_8>:

  TEST_RR_OP( 8, divuw, -1, -1<<31, 0 );
 8010294:	800000b7          	lui	ra,0x80000
 8010298:	00000113          	li	sp,0
 801029c:	0220d73b          	divuw	a4,ra,sp
 80102a0:	fff00e93          	li	t4,-1
 80102a4:	00800193          	li	gp,8
 80102a8:	01d70463          	beq	a4,t4,80102b0 <test_9>
 80102ac:	64d0106f          	j	80120f8 <fail>

00000000080102b0 <test_9>:
  TEST_RR_OP( 9, divuw, -1,      1, 0 );
 80102b0:	00100093          	li	ra,1
 80102b4:	00000113          	li	sp,0
 80102b8:	0220d73b          	divuw	a4,ra,sp
 80102bc:	fff00e93          	li	t4,-1
 80102c0:	00900193          	li	gp,9
 80102c4:	01d70463          	beq	a4,t4,80102cc <test_10>
 80102c8:	6310106f          	j	80120f8 <fail>

00000000080102cc <test_10>:
  TEST_RR_OP(10, divuw, -1,      0, 0 );
 80102cc:	00000093          	li	ra,0
 80102d0:	00000113          	li	sp,0
 80102d4:	0220d73b          	divuw	a4,ra,sp
 80102d8:	fff00e93          	li	t4,-1
 80102dc:	00a00193          	li	gp,10
 80102e0:	01d70463          	beq	a4,t4,80102e8 <test_10+0x1c>
 80102e4:	6150106f          	j	80120f8 <fail>

  TEST_PASSFAIL

RVTEST_CODE_END
 80102e8:	c0001073          	unimp

00000000080102ec <test_2>:

  #-------------------------------------------------------------
  # Arithmetic tests
  #-------------------------------------------------------------

  TEST_RR_OP( 2, divw,  3,  20,   6 );
 80102ec:	01400093          	li	ra,20
 80102f0:	00600113          	li	sp,6
 80102f4:	0220c73b          	divw	a4,ra,sp
 80102f8:	00300e93          	li	t4,3
 80102fc:	00200193          	li	gp,2
 8010300:	01d70463          	beq	a4,t4,8010308 <test_3>
 8010304:	5f50106f          	j	80120f8 <fail>

0000000008010308 <test_3>:
  TEST_RR_OP( 3, divw, -3, -20,   6 );
 8010308:	fec00093          	li	ra,-20
 801030c:	00600113          	li	sp,6
 8010310:	0220c73b          	divw	a4,ra,sp
 8010314:	ffd00e93          	li	t4,-3
 8010318:	00300193          	li	gp,3
 801031c:	01d70463          	beq	a4,t4,8010324 <test_4>
 8010320:	5d90106f          	j	80120f8 <fail>

0000000008010324 <test_4>:
  TEST_RR_OP( 4, divw, -3,  20,  -6 );
 8010324:	01400093          	li	ra,20
 8010328:	ffa00113          	li	sp,-6
 801032c:	0220c73b          	divw	a4,ra,sp
 8010330:	ffd00e93          	li	t4,-3
 8010334:	00400193          	li	gp,4
 8010338:	01d70463          	beq	a4,t4,8010340 <test_5>
 801033c:	5bd0106f          	j	80120f8 <fail>

0000000008010340 <test_5>:
  TEST_RR_OP( 5, divw,  3, -20,  -6 );
 8010340:	fec00093          	li	ra,-20
 8010344:	ffa00113          	li	sp,-6
 8010348:	0220c73b          	divw	a4,ra,sp
 801034c:	00300e93          	li	t4,3
 8010350:	00500193          	li	gp,5
 8010354:	01d70463          	beq	a4,t4,801035c <test_6>
 8010358:	5a10106f          	j	80120f8 <fail>

000000000801035c <test_6>:

  TEST_RR_OP( 6, divw, -1<<31, -1<<31,  1 );
 801035c:	800000b7          	lui	ra,0x80000
 8010360:	00100113          	li	sp,1
 8010364:	0220c73b          	divw	a4,ra,sp
 8010368:	80000eb7          	lui	t4,0x80000
 801036c:	00600193          	li	gp,6
 8010370:	01d70463          	beq	a4,t4,8010378 <test_7>
 8010374:	5850106f          	j	80120f8 <fail>

0000000008010378 <test_7>:
  TEST_RR_OP( 7, divw, -1<<31, -1<<31, -1 );
 8010378:	800000b7          	lui	ra,0x80000
 801037c:	fff00113          	li	sp,-1
 8010380:	0220c73b          	divw	a4,ra,sp
 8010384:	80000eb7          	lui	t4,0x80000
 8010388:	00700193          	li	gp,7
 801038c:	01d70463          	beq	a4,t4,8010394 <test_8>
 8010390:	5690106f          	j	80120f8 <fail>

0000000008010394 <test_8>:

  TEST_RR_OP( 8, divw, -1, -1<<31, 0 );
 8010394:	800000b7          	lui	ra,0x80000
 8010398:	00000113          	li	sp,0
 801039c:	0220c73b          	divw	a4,ra,sp
 80103a0:	fff00e93          	li	t4,-1
 80103a4:	00800193          	li	gp,8
 80103a8:	01d70463          	beq	a4,t4,80103b0 <test_9>
 80103ac:	54d0106f          	j	80120f8 <fail>

00000000080103b0 <test_9>:
  TEST_RR_OP( 9, divw, -1,      1, 0 );
 80103b0:	00100093          	li	ra,1
 80103b4:	00000113          	li	sp,0
 80103b8:	0220c73b          	divw	a4,ra,sp
 80103bc:	fff00e93          	li	t4,-1
 80103c0:	00900193          	li	gp,9
 80103c4:	01d70463          	beq	a4,t4,80103cc <test_10>
 80103c8:	5310106f          	j	80120f8 <fail>

00000000080103cc <test_10>:
  TEST_RR_OP(10, divw, -1,      0, 0 );
 80103cc:	00000093          	li	ra,0
 80103d0:	00000113          	li	sp,0
 80103d4:	0220c73b          	divw	a4,ra,sp
 80103d8:	fff00e93          	li	t4,-1
 80103dc:	00a00193          	li	gp,10
 80103e0:	01d70463          	beq	a4,t4,80103e8 <test_10+0x1c>
 80103e4:	5150106f          	j	80120f8 <fail>

  TEST_PASSFAIL

RVTEST_CODE_END
 80103e8:	c0001073          	unimp

00000000080103ec <test_32>:

  #-------------------------------------------------------------
  # Arithmetic tests
  #-------------------------------------------------------------

  TEST_RR_OP(32,  mul, 0x0000000000001200, 0x0000000000007e00, 0x6db6db6db6db6db7 );
 80103ec:	000080b7          	lui	ra,0x8
 80103f0:	e000809b          	addiw	ra,ra,-512
 80103f4:	06db7137          	lui	sp,0x6db7
 80103f8:	db71011b          	addiw	sp,sp,-585
 80103fc:	00c11113          	slli	sp,sp,0xc
 8010400:	db710113          	addi	sp,sp,-585 # 6db6db7 <u_mode_trap_table-0x124924d>
 8010404:	00c11113          	slli	sp,sp,0xc
 8010408:	db710113          	addi	sp,sp,-585
 801040c:	00c11113          	slli	sp,sp,0xc
 8010410:	db710113          	addi	sp,sp,-585
 8010414:	02208733          	mul	a4,ra,sp
 8010418:	00001eb7          	lui	t4,0x1
 801041c:	200e8e9b          	addiw	t4,t4,512
 8010420:	02000193          	li	gp,32
 8010424:	01d70463          	beq	a4,t4,801042c <test_33>
 8010428:	4d10106f          	j	80120f8 <fail>

000000000801042c <test_33>:
  TEST_RR_OP(33,  mul, 0x0000000000001240, 0x0000000000007fc0, 0x6db6db6db6db6db7 );
 801042c:	000080b7          	lui	ra,0x8
 8010430:	fc00809b          	addiw	ra,ra,-64
 8010434:	06db7137          	lui	sp,0x6db7
 8010438:	db71011b          	addiw	sp,sp,-585
 801043c:	00c11113          	slli	sp,sp,0xc
 8010440:	db710113          	addi	sp,sp,-585 # 6db6db7 <u_mode_trap_table-0x124924d>
 8010444:	00c11113          	slli	sp,sp,0xc
 8010448:	db710113          	addi	sp,sp,-585
 801044c:	00c11113          	slli	sp,sp,0xc
 8010450:	db710113          	addi	sp,sp,-585
 8010454:	02208733          	mul	a4,ra,sp
 8010458:	00001eb7          	lui	t4,0x1
 801045c:	240e8e9b          	addiw	t4,t4,576
 8010460:	02100193          	li	gp,33
 8010464:	01d70463          	beq	a4,t4,801046c <test_2>
 8010468:	4910106f          	j	80120f8 <fail>

000000000801046c <test_2>:

  TEST_RR_OP( 2,  mul, 0x00000000, 0x00000000, 0x00000000 );
 801046c:	00000093          	li	ra,0
 8010470:	00000113          	li	sp,0
 8010474:	02208733          	mul	a4,ra,sp
 8010478:	00000e93          	li	t4,0
 801047c:	00200193          	li	gp,2
 8010480:	01d70463          	beq	a4,t4,8010488 <test_3>
 8010484:	4750106f          	j	80120f8 <fail>

0000000008010488 <test_3>:
  TEST_RR_OP( 3,  mul, 0x00000001, 0x00000001, 0x00000001 );
 8010488:	00100093          	li	ra,1
 801048c:	00100113          	li	sp,1
 8010490:	02208733          	mul	a4,ra,sp
 8010494:	00100e93          	li	t4,1
 8010498:	00300193          	li	gp,3
 801049c:	01d70463          	beq	a4,t4,80104a4 <test_4>
 80104a0:	4590106f          	j	80120f8 <fail>

00000000080104a4 <test_4>:
  TEST_RR_OP( 4,  mul, 0x00000015, 0x00000003, 0x00000007 );
 80104a4:	00300093          	li	ra,3
 80104a8:	00700113          	li	sp,7
 80104ac:	02208733          	mul	a4,ra,sp
 80104b0:	01500e93          	li	t4,21
 80104b4:	00400193          	li	gp,4
 80104b8:	01d70463          	beq	a4,t4,80104c0 <test_5>
 80104bc:	43d0106f          	j	80120f8 <fail>

00000000080104c0 <test_5>:

  TEST_RR_OP( 5,  mul, 0x0000000000000000, 0x0000000000000000, 0xffffffffffff8000 );
 80104c0:	00000093          	li	ra,0
 80104c4:	ffff8137          	lui	sp,0xffff8
 80104c8:	02208733          	mul	a4,ra,sp
 80104cc:	00000e93          	li	t4,0
 80104d0:	00500193          	li	gp,5
 80104d4:	01d70463          	beq	a4,t4,80104dc <test_6>
 80104d8:	4210106f          	j	80120f8 <fail>

00000000080104dc <test_6>:
  TEST_RR_OP( 6,  mul, 0x0000000000000000, 0xffffffff80000000, 0x00000000 );
 80104dc:	800000b7          	lui	ra,0x80000
 80104e0:	00000113          	li	sp,0
 80104e4:	02208733          	mul	a4,ra,sp
 80104e8:	00000e93          	li	t4,0
 80104ec:	00600193          	li	gp,6
 80104f0:	01d70463          	beq	a4,t4,80104f8 <test_7>
 80104f4:	4050106f          	j	80120f8 <fail>

00000000080104f8 <test_7>:
  TEST_RR_OP( 7,  mul, 0x0000400000000000, 0xffffffff80000000, 0xffffffffffff8000 );
 80104f8:	800000b7          	lui	ra,0x80000
 80104fc:	ffff8137          	lui	sp,0xffff8
 8010500:	02208733          	mul	a4,ra,sp
 8010504:	00100e9b          	addiw	t4,zero,1
 8010508:	02ee9e93          	slli	t4,t4,0x2e
 801050c:	00700193          	li	gp,7
 8010510:	01d70463          	beq	a4,t4,8010518 <test_30>
 8010514:	3e50106f          	j	80120f8 <fail>

0000000008010518 <test_30>:

  TEST_RR_OP(30,  mul, 0x000000000000ff7f, 0xaaaaaaaaaaaaaaab, 0x000000000002fe7d );
 8010518:	faaab0b7          	lui	ra,0xfaaab
 801051c:	aab0809b          	addiw	ra,ra,-1365
 8010520:	00c09093          	slli	ra,ra,0xc
 8010524:	aab08093          	addi	ra,ra,-1365 # fffffffffaaaaaab <_end+0xfffffffff2a9744b>
 8010528:	00c09093          	slli	ra,ra,0xc
 801052c:	aab08093          	addi	ra,ra,-1365
 8010530:	00c09093          	slli	ra,ra,0xc
 8010534:	aab08093          	addi	ra,ra,-1365
 8010538:	00030137          	lui	sp,0x30
 801053c:	e7d1011b          	addiw	sp,sp,-387
 8010540:	02208733          	mul	a4,ra,sp
 8010544:	00010eb7          	lui	t4,0x10
 8010548:	f7fe8e9b          	addiw	t4,t4,-129
 801054c:	01e00193          	li	gp,30
 8010550:	01d70463          	beq	a4,t4,8010558 <test_31>
 8010554:	3a50106f          	j	80120f8 <fail>

0000000008010558 <test_31>:
  TEST_RR_OP(31,  mul, 0x000000000000ff7f, 0x000000000002fe7d, 0xaaaaaaaaaaaaaaab );
 8010558:	000300b7          	lui	ra,0x30
 801055c:	e7d0809b          	addiw	ra,ra,-387
 8010560:	faaab137          	lui	sp,0xfaaab
 8010564:	aab1011b          	addiw	sp,sp,-1365
 8010568:	00c11113          	slli	sp,sp,0xc
 801056c:	aab10113          	addi	sp,sp,-1365 # fffffffffaaaaaab <_end+0xfffffffff2a9744b>
 8010570:	00c11113          	slli	sp,sp,0xc
 8010574:	aab10113          	addi	sp,sp,-1365
 8010578:	00c11113          	slli	sp,sp,0xc
 801057c:	aab10113          	addi	sp,sp,-1365
 8010580:	02208733          	mul	a4,ra,sp
 8010584:	00010eb7          	lui	t4,0x10
 8010588:	f7fe8e9b          	addiw	t4,t4,-129
 801058c:	01f00193          	li	gp,31
 8010590:	01d70463          	beq	a4,t4,8010598 <test_8>
 8010594:	3650106f          	j	80120f8 <fail>

0000000008010598 <test_8>:

  #-------------------------------------------------------------
  # Source/Destination tests
  #-------------------------------------------------------------

  TEST_RR_SRC1_EQ_DEST( 8, mul, 143, 13, 11 );
 8010598:	00d00093          	li	ra,13
 801059c:	00b00113          	li	sp,11
 80105a0:	022080b3          	mul	ra,ra,sp
 80105a4:	08f00e93          	li	t4,143
 80105a8:	00800193          	li	gp,8
 80105ac:	01d08463          	beq	ra,t4,80105b4 <test_9>
 80105b0:	3490106f          	j	80120f8 <fail>

00000000080105b4 <test_9>:
  TEST_RR_SRC2_EQ_DEST( 9, mul, 154, 14, 11 );
 80105b4:	00e00093          	li	ra,14
 80105b8:	00b00113          	li	sp,11
 80105bc:	02208133          	mul	sp,ra,sp
 80105c0:	09a00e93          	li	t4,154
 80105c4:	00900193          	li	gp,9
 80105c8:	01d10463          	beq	sp,t4,80105d0 <test_10>
 80105cc:	32d0106f          	j	80120f8 <fail>

00000000080105d0 <test_10>:
  TEST_RR_SRC12_EQ_DEST( 10, mul, 169, 13 );
 80105d0:	00d00093          	li	ra,13
 80105d4:	021080b3          	mul	ra,ra,ra
 80105d8:	0a900e93          	li	t4,169
 80105dc:	00a00193          	li	gp,10
 80105e0:	01d08463          	beq	ra,t4,80105e8 <test_11>
 80105e4:	3150106f          	j	80120f8 <fail>

00000000080105e8 <test_11>:

  #-------------------------------------------------------------
  # Bypassing tests
  #-------------------------------------------------------------

  TEST_RR_DEST_BYPASS( 11, 0, mul, 143, 13, 11 );
 80105e8:	00000213          	li	tp,0
 80105ec:	00d00093          	li	ra,13
 80105f0:	00b00113          	li	sp,11
 80105f4:	02208733          	mul	a4,ra,sp
 80105f8:	00070313          	mv	t1,a4
 80105fc:	00120213          	addi	tp,tp,1 # 1 <u_mode_trap_table-0x8000003>
 8010600:	00200293          	li	t0,2
 8010604:	fe5214e3          	bne	tp,t0,80105ec <test_11+0x4>
 8010608:	08f00e93          	li	t4,143
 801060c:	00b00193          	li	gp,11
 8010610:	01d30463          	beq	t1,t4,8010618 <test_12>
 8010614:	2e50106f          	j	80120f8 <fail>

0000000008010618 <test_12>:
  TEST_RR_DEST_BYPASS( 12, 1, mul, 154, 14, 11 );
 8010618:	00000213          	li	tp,0
 801061c:	00e00093          	li	ra,14
 8010620:	00b00113          	li	sp,11
 8010624:	02208733          	mul	a4,ra,sp
 8010628:	00000013          	nop
 801062c:	00070313          	mv	t1,a4
 8010630:	00120213          	addi	tp,tp,1 # 1 <u_mode_trap_table-0x8000003>
 8010634:	00200293          	li	t0,2
 8010638:	fe5212e3          	bne	tp,t0,801061c <test_12+0x4>
 801063c:	09a00e93          	li	t4,154
 8010640:	00c00193          	li	gp,12
 8010644:	01d30463          	beq	t1,t4,801064c <test_13>
 8010648:	2b10106f          	j	80120f8 <fail>

000000000801064c <test_13>:
  TEST_RR_DEST_BYPASS( 13, 2, mul, 165, 15, 11 );
 801064c:	00000213          	li	tp,0
 8010650:	00f00093          	li	ra,15
 8010654:	00b00113          	li	sp,11
 8010658:	02208733          	mul	a4,ra,sp
 801065c:	00000013          	nop
 8010660:	00000013          	nop
 8010664:	00070313          	mv	t1,a4
 8010668:	00120213          	addi	tp,tp,1 # 1 <u_mode_trap_table-0x8000003>
 801066c:	00200293          	li	t0,2
 8010670:	fe5210e3          	bne	tp,t0,8010650 <test_13+0x4>
 8010674:	0a500e93          	li	t4,165
 8010678:	00d00193          	li	gp,13
 801067c:	01d30463          	beq	t1,t4,8010684 <test_14>
 8010680:	2790106f          	j	80120f8 <fail>

0000000008010684 <test_14>:

  TEST_RR_SRC12_BYPASS( 14, 0, 0, mul, 143, 13, 11 );
 8010684:	00000213          	li	tp,0
 8010688:	00d00093          	li	ra,13
 801068c:	00b00113          	li	sp,11
 8010690:	02208733          	mul	a4,ra,sp
 8010694:	00120213          	addi	tp,tp,1 # 1 <u_mode_trap_table-0x8000003>
 8010698:	00200293          	li	t0,2
 801069c:	fe5216e3          	bne	tp,t0,8010688 <test_14+0x4>
 80106a0:	08f00e93          	li	t4,143
 80106a4:	00e00193          	li	gp,14
 80106a8:	01d70463          	beq	a4,t4,80106b0 <test_15>
 80106ac:	24d0106f          	j	80120f8 <fail>

00000000080106b0 <test_15>:
  TEST_RR_SRC12_BYPASS( 15, 0, 1, mul, 154, 14, 11 );
 80106b0:	00000213          	li	tp,0
 80106b4:	00e00093          	li	ra,14
 80106b8:	00b00113          	li	sp,11
 80106bc:	00000013          	nop
 80106c0:	02208733          	mul	a4,ra,sp
 80106c4:	00120213          	addi	tp,tp,1 # 1 <u_mode_trap_table-0x8000003>
 80106c8:	00200293          	li	t0,2
 80106cc:	fe5214e3          	bne	tp,t0,80106b4 <test_15+0x4>
 80106d0:	09a00e93          	li	t4,154
 80106d4:	00f00193          	li	gp,15
 80106d8:	01d70463          	beq	a4,t4,80106e0 <test_16>
 80106dc:	21d0106f          	j	80120f8 <fail>

00000000080106e0 <test_16>:
  TEST_RR_SRC12_BYPASS( 16, 0, 2, mul, 165, 15, 11 );
 80106e0:	00000213          	li	tp,0
 80106e4:	00f00093          	li	ra,15
 80106e8:	00b00113          	li	sp,11
 80106ec:	00000013          	nop
 80106f0:	00000013          	nop
 80106f4:	02208733          	mul	a4,ra,sp
 80106f8:	00120213          	addi	tp,tp,1 # 1 <u_mode_trap_table-0x8000003>
 80106fc:	00200293          	li	t0,2
 8010700:	fe5212e3          	bne	tp,t0,80106e4 <test_16+0x4>
 8010704:	0a500e93          	li	t4,165
 8010708:	01000193          	li	gp,16
 801070c:	01d70463          	beq	a4,t4,8010714 <test_17>
 8010710:	1e90106f          	j	80120f8 <fail>

0000000008010714 <test_17>:
  TEST_RR_SRC12_BYPASS( 17, 1, 0, mul, 143, 13, 11 );
 8010714:	00000213          	li	tp,0
 8010718:	00d00093          	li	ra,13
 801071c:	00000013          	nop
 8010720:	00b00113          	li	sp,11
 8010724:	02208733          	mul	a4,ra,sp
 8010728:	00120213          	addi	tp,tp,1 # 1 <u_mode_trap_table-0x8000003>
 801072c:	00200293          	li	t0,2
 8010730:	fe5214e3          	bne	tp,t0,8010718 <test_17+0x4>
 8010734:	08f00e93          	li	t4,143
 8010738:	01100193          	li	gp,17
 801073c:	01d70463          	beq	a4,t4,8010744 <test_18>
 8010740:	1b90106f          	j	80120f8 <fail>

0000000008010744 <test_18>:
  TEST_RR_SRC12_BYPASS( 18, 1, 1, mul, 154, 14, 11 );
 8010744:	00000213          	li	tp,0
 8010748:	00e00093          	li	ra,14
 801074c:	00000013          	nop
 8010750:	00b00113          	li	sp,11
 8010754:	00000013          	nop
 8010758:	02208733          	mul	a4,ra,sp
 801075c:	00120213          	addi	tp,tp,1 # 1 <u_mode_trap_table-0x8000003>
 8010760:	00200293          	li	t0,2
 8010764:	fe5212e3          	bne	tp,t0,8010748 <test_18+0x4>
 8010768:	09a00e93          	li	t4,154
 801076c:	01200193          	li	gp,18
 8010770:	01d70463          	beq	a4,t4,8010778 <test_19>
 8010774:	1850106f          	j	80120f8 <fail>

0000000008010778 <test_19>:
  TEST_RR_SRC12_BYPASS( 19, 2, 0, mul, 165, 15, 11 );
 8010778:	00000213          	li	tp,0
 801077c:	00f00093          	li	ra,15
 8010780:	00000013          	nop
 8010784:	00000013          	nop
 8010788:	00b00113          	li	sp,11
 801078c:	02208733          	mul	a4,ra,sp
 8010790:	00120213          	addi	tp,tp,1 # 1 <u_mode_trap_table-0x8000003>
 8010794:	00200293          	li	t0,2
 8010798:	fe5212e3          	bne	tp,t0,801077c <test_19+0x4>
 801079c:	0a500e93          	li	t4,165
 80107a0:	01300193          	li	gp,19
 80107a4:	01d70463          	beq	a4,t4,80107ac <test_20>
 80107a8:	1510106f          	j	80120f8 <fail>

00000000080107ac <test_20>:

  TEST_RR_SRC21_BYPASS( 20, 0, 0, mul, 143, 13, 11 );
 80107ac:	00000213          	li	tp,0
 80107b0:	00b00113          	li	sp,11
 80107b4:	00d00093          	li	ra,13
 80107b8:	02208733          	mul	a4,ra,sp
 80107bc:	00120213          	addi	tp,tp,1 # 1 <u_mode_trap_table-0x8000003>
 80107c0:	00200293          	li	t0,2
 80107c4:	fe5216e3          	bne	tp,t0,80107b0 <test_20+0x4>
 80107c8:	08f00e93          	li	t4,143
 80107cc:	01400193          	li	gp,20
 80107d0:	01d70463          	beq	a4,t4,80107d8 <test_21>
 80107d4:	1250106f          	j	80120f8 <fail>

00000000080107d8 <test_21>:
  TEST_RR_SRC21_BYPASS( 21, 0, 1, mul, 154, 14, 11 );
 80107d8:	00000213          	li	tp,0
 80107dc:	00b00113          	li	sp,11
 80107e0:	00e00093          	li	ra,14
 80107e4:	00000013          	nop
 80107e8:	02208733          	mul	a4,ra,sp
 80107ec:	00120213          	addi	tp,tp,1 # 1 <u_mode_trap_table-0x8000003>
 80107f0:	00200293          	li	t0,2
 80107f4:	fe5214e3          	bne	tp,t0,80107dc <test_21+0x4>
 80107f8:	09a00e93          	li	t4,154
 80107fc:	01500193          	li	gp,21
 8010800:	01d70463          	beq	a4,t4,8010808 <test_22>
 8010804:	0f50106f          	j	80120f8 <fail>

0000000008010808 <test_22>:
  TEST_RR_SRC21_BYPASS( 22, 0, 2, mul, 165, 15, 11 );
 8010808:	00000213          	li	tp,0
 801080c:	00b00113          	li	sp,11
 8010810:	00f00093          	li	ra,15
 8010814:	00000013          	nop
 8010818:	00000013          	nop
 801081c:	02208733          	mul	a4,ra,sp
 8010820:	00120213          	addi	tp,tp,1 # 1 <u_mode_trap_table-0x8000003>
 8010824:	00200293          	li	t0,2
 8010828:	fe5212e3          	bne	tp,t0,801080c <test_22+0x4>
 801082c:	0a500e93          	li	t4,165
 8010830:	01600193          	li	gp,22
 8010834:	01d70463          	beq	a4,t4,801083c <test_23>
 8010838:	0c10106f          	j	80120f8 <fail>

000000000801083c <test_23>:
  TEST_RR_SRC21_BYPASS( 23, 1, 0, mul, 143, 13, 11 );
 801083c:	00000213          	li	tp,0
 8010840:	00b00113          	li	sp,11
 8010844:	00000013          	nop
 8010848:	00d00093          	li	ra,13
 801084c:	02208733          	mul	a4,ra,sp
 8010850:	00120213          	addi	tp,tp,1 # 1 <u_mode_trap_table-0x8000003>
 8010854:	00200293          	li	t0,2
 8010858:	fe5214e3          	bne	tp,t0,8010840 <test_23+0x4>
 801085c:	08f00e93          	li	t4,143
 8010860:	01700193          	li	gp,23
 8010864:	01d70463          	beq	a4,t4,801086c <test_24>
 8010868:	0910106f          	j	80120f8 <fail>

000000000801086c <test_24>:
  TEST_RR_SRC21_BYPASS( 24, 1, 1, mul, 154, 14, 11 );
 801086c:	00000213          	li	tp,0
 8010870:	00b00113          	li	sp,11
 8010874:	00000013          	nop
 8010878:	00e00093          	li	ra,14
 801087c:	00000013          	nop
 8010880:	02208733          	mul	a4,ra,sp
 8010884:	00120213          	addi	tp,tp,1 # 1 <u_mode_trap_table-0x8000003>
 8010888:	00200293          	li	t0,2
 801088c:	fe5212e3          	bne	tp,t0,8010870 <test_24+0x4>
 8010890:	09a00e93          	li	t4,154
 8010894:	01800193          	li	gp,24
 8010898:	01d70463          	beq	a4,t4,80108a0 <test_25>
 801089c:	05d0106f          	j	80120f8 <fail>

00000000080108a0 <test_25>:
  TEST_RR_SRC21_BYPASS( 25, 2, 0, mul, 165, 15, 11 );
 80108a0:	00000213          	li	tp,0
 80108a4:	00b00113          	li	sp,11
 80108a8:	00000013          	nop
 80108ac:	00000013          	nop
 80108b0:	00f00093          	li	ra,15
 80108b4:	02208733          	mul	a4,ra,sp
 80108b8:	00120213          	addi	tp,tp,1 # 1 <u_mode_trap_table-0x8000003>
 80108bc:	00200293          	li	t0,2
 80108c0:	fe5212e3          	bne	tp,t0,80108a4 <test_25+0x4>
 80108c4:	0a500e93          	li	t4,165
 80108c8:	01900193          	li	gp,25
 80108cc:	01d70463          	beq	a4,t4,80108d4 <test_26>
 80108d0:	0290106f          	j	80120f8 <fail>

00000000080108d4 <test_26>:

  TEST_RR_ZEROSRC1( 26, mul, 0, 31 );
 80108d4:	01f00093          	li	ra,31
 80108d8:	02100133          	mul	sp,zero,ra
 80108dc:	00000e93          	li	t4,0
 80108e0:	01a00193          	li	gp,26
 80108e4:	01d10463          	beq	sp,t4,80108ec <test_27>
 80108e8:	0110106f          	j	80120f8 <fail>

00000000080108ec <test_27>:
  TEST_RR_ZEROSRC2( 27, mul, 0, 32 );
 80108ec:	02000093          	li	ra,32
 80108f0:	02008133          	mul	sp,ra,zero
 80108f4:	00000e93          	li	t4,0
 80108f8:	01b00193          	li	gp,27
 80108fc:	01d10463          	beq	sp,t4,8010904 <test_28>
 8010900:	7f80106f          	j	80120f8 <fail>

0000000008010904 <test_28>:
  TEST_RR_ZEROSRC12( 28, mul, 0 );
 8010904:	020000b3          	mul	ra,zero,zero
 8010908:	00000e93          	li	t4,0
 801090c:	01c00193          	li	gp,28
 8010910:	01d08463          	beq	ra,t4,8010918 <test_29>
 8010914:	7e40106f          	j	80120f8 <fail>

0000000008010918 <test_29>:
  TEST_RR_ZERODEST( 29, mul, 33, 34 );
 8010918:	02100093          	li	ra,33
 801091c:	02200113          	li	sp,34
 8010920:	02208033          	mul	zero,ra,sp
 8010924:	00000e93          	li	t4,0
 8010928:	01d00193          	li	gp,29
 801092c:	01d00463          	beq	zero,t4,8010934 <test_29+0x1c>
 8010930:	7c80106f          	j	80120f8 <fail>

  TEST_PASSFAIL

RVTEST_CODE_END
 8010934:	c0001073          	unimp

0000000008010938 <test_2>:

  #-------------------------------------------------------------
  # Arithmetic tests
  #-------------------------------------------------------------

  TEST_RR_OP( 2,  mulw, 0x00000000, 0x00000000, 0x00000000 );
 8010938:	00000093          	li	ra,0
 801093c:	00000113          	li	sp,0
 8010940:	0220873b          	mulw	a4,ra,sp
 8010944:	00000e93          	li	t4,0
 8010948:	00200193          	li	gp,2
 801094c:	01d70463          	beq	a4,t4,8010954 <test_3>
 8010950:	7a80106f          	j	80120f8 <fail>

0000000008010954 <test_3>:
  TEST_RR_OP( 3,  mulw, 0x00000001, 0x00000001, 0x00000001 );
 8010954:	00100093          	li	ra,1
 8010958:	00100113          	li	sp,1
 801095c:	0220873b          	mulw	a4,ra,sp
 8010960:	00100e93          	li	t4,1
 8010964:	00300193          	li	gp,3
 8010968:	01d70463          	beq	a4,t4,8010970 <test_4>
 801096c:	78c0106f          	j	80120f8 <fail>

0000000008010970 <test_4>:
  TEST_RR_OP( 4,  mulw, 0x00000015, 0x00000003, 0x00000007 );
 8010970:	00300093          	li	ra,3
 8010974:	00700113          	li	sp,7
 8010978:	0220873b          	mulw	a4,ra,sp
 801097c:	01500e93          	li	t4,21
 8010980:	00400193          	li	gp,4
 8010984:	01d70463          	beq	a4,t4,801098c <test_5>
 8010988:	7700106f          	j	80120f8 <fail>

000000000801098c <test_5>:

  TEST_RR_OP( 5,  mulw, 0x0000000000000000, 0x0000000000000000, 0xffffffffffff8000 );
 801098c:	00000093          	li	ra,0
 8010990:	ffff8137          	lui	sp,0xffff8
 8010994:	0220873b          	mulw	a4,ra,sp
 8010998:	00000e93          	li	t4,0
 801099c:	00500193          	li	gp,5
 80109a0:	01d70463          	beq	a4,t4,80109a8 <test_6>
 80109a4:	7540106f          	j	80120f8 <fail>

00000000080109a8 <test_6>:
  TEST_RR_OP( 6,  mulw, 0x0000000000000000, 0xffffffff80000000, 0x00000000 );
 80109a8:	800000b7          	lui	ra,0x80000
 80109ac:	00000113          	li	sp,0
 80109b0:	0220873b          	mulw	a4,ra,sp
 80109b4:	00000e93          	li	t4,0
 80109b8:	00600193          	li	gp,6
 80109bc:	01d70463          	beq	a4,t4,80109c4 <test_7>
 80109c0:	7380106f          	j	80120f8 <fail>

00000000080109c4 <test_7>:
  TEST_RR_OP( 7,  mulw, 0x0000000000000000, 0xffffffff80000000, 0xffffffffffff8000 );
 80109c4:	800000b7          	lui	ra,0x80000
 80109c8:	ffff8137          	lui	sp,0xffff8
 80109cc:	0220873b          	mulw	a4,ra,sp
 80109d0:	00000e93          	li	t4,0
 80109d4:	00700193          	li	gp,7
 80109d8:	01d70463          	beq	a4,t4,80109e0 <test_8>
 80109dc:	71c0106f          	j	80120f8 <fail>

00000000080109e0 <test_8>:

  #-------------------------------------------------------------
  # Source/Destination tests
  #-------------------------------------------------------------

  TEST_RR_SRC1_EQ_DEST( 8, mulw, 143, 13, 11 );
 80109e0:	00d00093          	li	ra,13
 80109e4:	00b00113          	li	sp,11
 80109e8:	022080bb          	mulw	ra,ra,sp
 80109ec:	08f00e93          	li	t4,143
 80109f0:	00800193          	li	gp,8
 80109f4:	01d08463          	beq	ra,t4,80109fc <test_9>
 80109f8:	7000106f          	j	80120f8 <fail>

00000000080109fc <test_9>:
  TEST_RR_SRC2_EQ_DEST( 9, mulw, 154, 14, 11 );
 80109fc:	00e00093          	li	ra,14
 8010a00:	00b00113          	li	sp,11
 8010a04:	0220813b          	mulw	sp,ra,sp
 8010a08:	09a00e93          	li	t4,154
 8010a0c:	00900193          	li	gp,9
 8010a10:	01d10463          	beq	sp,t4,8010a18 <test_10>
 8010a14:	6e40106f          	j	80120f8 <fail>

0000000008010a18 <test_10>:
  TEST_RR_SRC12_EQ_DEST( 10, mulw, 169, 13 );
 8010a18:	00d00093          	li	ra,13
 8010a1c:	021080bb          	mulw	ra,ra,ra
 8010a20:	0a900e93          	li	t4,169
 8010a24:	00a00193          	li	gp,10
 8010a28:	01d08463          	beq	ra,t4,8010a30 <test_11>
 8010a2c:	6cc0106f          	j	80120f8 <fail>

0000000008010a30 <test_11>:

  #-------------------------------------------------------------
  # Bypassing tests
  #-------------------------------------------------------------

  TEST_RR_DEST_BYPASS( 11, 0, mulw, 143, 13, 11 );
 8010a30:	00000213          	li	tp,0
 8010a34:	00d00093          	li	ra,13
 8010a38:	00b00113          	li	sp,11
 8010a3c:	0220873b          	mulw	a4,ra,sp
 8010a40:	00070313          	mv	t1,a4
 8010a44:	00120213          	addi	tp,tp,1 # 1 <u_mode_trap_table-0x8000003>
 8010a48:	00200293          	li	t0,2
 8010a4c:	fe5214e3          	bne	tp,t0,8010a34 <test_11+0x4>
 8010a50:	08f00e93          	li	t4,143
 8010a54:	00b00193          	li	gp,11
 8010a58:	01d30463          	beq	t1,t4,8010a60 <test_12>
 8010a5c:	69c0106f          	j	80120f8 <fail>

0000000008010a60 <test_12>:
  TEST_RR_DEST_BYPASS( 12, 1, mulw, 154, 14, 11 );
 8010a60:	00000213          	li	tp,0
 8010a64:	00e00093          	li	ra,14
 8010a68:	00b00113          	li	sp,11
 8010a6c:	0220873b          	mulw	a4,ra,sp
 8010a70:	00000013          	nop
 8010a74:	00070313          	mv	t1,a4
 8010a78:	00120213          	addi	tp,tp,1 # 1 <u_mode_trap_table-0x8000003>
 8010a7c:	00200293          	li	t0,2
 8010a80:	fe5212e3          	bne	tp,t0,8010a64 <test_12+0x4>
 8010a84:	09a00e93          	li	t4,154
 8010a88:	00c00193          	li	gp,12
 8010a8c:	01d30463          	beq	t1,t4,8010a94 <test_13>
 8010a90:	6680106f          	j	80120f8 <fail>

0000000008010a94 <test_13>:
  TEST_RR_DEST_BYPASS( 13, 2, mulw, 165, 15, 11 );
 8010a94:	00000213          	li	tp,0
 8010a98:	00f00093          	li	ra,15
 8010a9c:	00b00113          	li	sp,11
 8010aa0:	0220873b          	mulw	a4,ra,sp
 8010aa4:	00000013          	nop
 8010aa8:	00000013          	nop
 8010aac:	00070313          	mv	t1,a4
 8010ab0:	00120213          	addi	tp,tp,1 # 1 <u_mode_trap_table-0x8000003>
 8010ab4:	00200293          	li	t0,2
 8010ab8:	fe5210e3          	bne	tp,t0,8010a98 <test_13+0x4>
 8010abc:	0a500e93          	li	t4,165
 8010ac0:	00d00193          	li	gp,13
 8010ac4:	01d30463          	beq	t1,t4,8010acc <test_14>
 8010ac8:	6300106f          	j	80120f8 <fail>

0000000008010acc <test_14>:

  TEST_RR_SRC12_BYPASS( 14, 0, 0, mulw, 143, 13, 11 );
 8010acc:	00000213          	li	tp,0
 8010ad0:	00d00093          	li	ra,13
 8010ad4:	00b00113          	li	sp,11
 8010ad8:	0220873b          	mulw	a4,ra,sp
 8010adc:	00120213          	addi	tp,tp,1 # 1 <u_mode_trap_table-0x8000003>
 8010ae0:	00200293          	li	t0,2
 8010ae4:	fe5216e3          	bne	tp,t0,8010ad0 <test_14+0x4>
 8010ae8:	08f00e93          	li	t4,143
 8010aec:	00e00193          	li	gp,14
 8010af0:	01d70463          	beq	a4,t4,8010af8 <test_15>
 8010af4:	6040106f          	j	80120f8 <fail>

0000000008010af8 <test_15>:
  TEST_RR_SRC12_BYPASS( 15, 0, 1, mulw, 154, 14, 11 );
 8010af8:	00000213          	li	tp,0
 8010afc:	00e00093          	li	ra,14
 8010b00:	00b00113          	li	sp,11
 8010b04:	00000013          	nop
 8010b08:	0220873b          	mulw	a4,ra,sp
 8010b0c:	00120213          	addi	tp,tp,1 # 1 <u_mode_trap_table-0x8000003>
 8010b10:	00200293          	li	t0,2
 8010b14:	fe5214e3          	bne	tp,t0,8010afc <test_15+0x4>
 8010b18:	09a00e93          	li	t4,154
 8010b1c:	00f00193          	li	gp,15
 8010b20:	01d70463          	beq	a4,t4,8010b28 <test_16>
 8010b24:	5d40106f          	j	80120f8 <fail>

0000000008010b28 <test_16>:
  TEST_RR_SRC12_BYPASS( 16, 0, 2, mulw, 165, 15, 11 );
 8010b28:	00000213          	li	tp,0
 8010b2c:	00f00093          	li	ra,15
 8010b30:	00b00113          	li	sp,11
 8010b34:	00000013          	nop
 8010b38:	00000013          	nop
 8010b3c:	0220873b          	mulw	a4,ra,sp
 8010b40:	00120213          	addi	tp,tp,1 # 1 <u_mode_trap_table-0x8000003>
 8010b44:	00200293          	li	t0,2
 8010b48:	fe5212e3          	bne	tp,t0,8010b2c <test_16+0x4>
 8010b4c:	0a500e93          	li	t4,165
 8010b50:	01000193          	li	gp,16
 8010b54:	01d70463          	beq	a4,t4,8010b5c <test_17>
 8010b58:	5a00106f          	j	80120f8 <fail>

0000000008010b5c <test_17>:
  TEST_RR_SRC12_BYPASS( 17, 1, 0, mulw, 143, 13, 11 );
 8010b5c:	00000213          	li	tp,0
 8010b60:	00d00093          	li	ra,13
 8010b64:	00000013          	nop
 8010b68:	00b00113          	li	sp,11
 8010b6c:	0220873b          	mulw	a4,ra,sp
 8010b70:	00120213          	addi	tp,tp,1 # 1 <u_mode_trap_table-0x8000003>
 8010b74:	00200293          	li	t0,2
 8010b78:	fe5214e3          	bne	tp,t0,8010b60 <test_17+0x4>
 8010b7c:	08f00e93          	li	t4,143
 8010b80:	01100193          	li	gp,17
 8010b84:	01d70463          	beq	a4,t4,8010b8c <test_18>
 8010b88:	5700106f          	j	80120f8 <fail>

0000000008010b8c <test_18>:
  TEST_RR_SRC12_BYPASS( 18, 1, 1, mulw, 154, 14, 11 );
 8010b8c:	00000213          	li	tp,0
 8010b90:	00e00093          	li	ra,14
 8010b94:	00000013          	nop
 8010b98:	00b00113          	li	sp,11
 8010b9c:	00000013          	nop
 8010ba0:	0220873b          	mulw	a4,ra,sp
 8010ba4:	00120213          	addi	tp,tp,1 # 1 <u_mode_trap_table-0x8000003>
 8010ba8:	00200293          	li	t0,2
 8010bac:	fe5212e3          	bne	tp,t0,8010b90 <test_18+0x4>
 8010bb0:	09a00e93          	li	t4,154
 8010bb4:	01200193          	li	gp,18
 8010bb8:	01d70463          	beq	a4,t4,8010bc0 <test_19>
 8010bbc:	53c0106f          	j	80120f8 <fail>

0000000008010bc0 <test_19>:
  TEST_RR_SRC12_BYPASS( 19, 2, 0, mulw, 165, 15, 11 );
 8010bc0:	00000213          	li	tp,0
 8010bc4:	00f00093          	li	ra,15
 8010bc8:	00000013          	nop
 8010bcc:	00000013          	nop
 8010bd0:	00b00113          	li	sp,11
 8010bd4:	0220873b          	mulw	a4,ra,sp
 8010bd8:	00120213          	addi	tp,tp,1 # 1 <u_mode_trap_table-0x8000003>
 8010bdc:	00200293          	li	t0,2
 8010be0:	fe5212e3          	bne	tp,t0,8010bc4 <test_19+0x4>
 8010be4:	0a500e93          	li	t4,165
 8010be8:	01300193          	li	gp,19
 8010bec:	01d70463          	beq	a4,t4,8010bf4 <test_20>
 8010bf0:	5080106f          	j	80120f8 <fail>

0000000008010bf4 <test_20>:

  TEST_RR_SRC21_BYPASS( 20, 0, 0, mulw, 143, 13, 11 );
 8010bf4:	00000213          	li	tp,0
 8010bf8:	00b00113          	li	sp,11
 8010bfc:	00d00093          	li	ra,13
 8010c00:	0220873b          	mulw	a4,ra,sp
 8010c04:	00120213          	addi	tp,tp,1 # 1 <u_mode_trap_table-0x8000003>
 8010c08:	00200293          	li	t0,2
 8010c0c:	fe5216e3          	bne	tp,t0,8010bf8 <test_20+0x4>
 8010c10:	08f00e93          	li	t4,143
 8010c14:	01400193          	li	gp,20
 8010c18:	01d70463          	beq	a4,t4,8010c20 <test_21>
 8010c1c:	4dc0106f          	j	80120f8 <fail>

0000000008010c20 <test_21>:
  TEST_RR_SRC21_BYPASS( 21, 0, 1, mulw, 154, 14, 11 );
 8010c20:	00000213          	li	tp,0
 8010c24:	00b00113          	li	sp,11
 8010c28:	00e00093          	li	ra,14
 8010c2c:	00000013          	nop
 8010c30:	0220873b          	mulw	a4,ra,sp
 8010c34:	00120213          	addi	tp,tp,1 # 1 <u_mode_trap_table-0x8000003>
 8010c38:	00200293          	li	t0,2
 8010c3c:	fe5214e3          	bne	tp,t0,8010c24 <test_21+0x4>
 8010c40:	09a00e93          	li	t4,154
 8010c44:	01500193          	li	gp,21
 8010c48:	01d70463          	beq	a4,t4,8010c50 <test_22>
 8010c4c:	4ac0106f          	j	80120f8 <fail>

0000000008010c50 <test_22>:
  TEST_RR_SRC21_BYPASS( 22, 0, 2, mulw, 165, 15, 11 );
 8010c50:	00000213          	li	tp,0
 8010c54:	00b00113          	li	sp,11
 8010c58:	00f00093          	li	ra,15
 8010c5c:	00000013          	nop
 8010c60:	00000013          	nop
 8010c64:	0220873b          	mulw	a4,ra,sp
 8010c68:	00120213          	addi	tp,tp,1 # 1 <u_mode_trap_table-0x8000003>
 8010c6c:	00200293          	li	t0,2
 8010c70:	fe5212e3          	bne	tp,t0,8010c54 <test_22+0x4>
 8010c74:	0a500e93          	li	t4,165
 8010c78:	01600193          	li	gp,22
 8010c7c:	01d70463          	beq	a4,t4,8010c84 <test_23>
 8010c80:	4780106f          	j	80120f8 <fail>

0000000008010c84 <test_23>:
  TEST_RR_SRC21_BYPASS( 23, 1, 0, mulw, 143, 13, 11 );
 8010c84:	00000213          	li	tp,0
 8010c88:	00b00113          	li	sp,11
 8010c8c:	00000013          	nop
 8010c90:	00d00093          	li	ra,13
 8010c94:	0220873b          	mulw	a4,ra,sp
 8010c98:	00120213          	addi	tp,tp,1 # 1 <u_mode_trap_table-0x8000003>
 8010c9c:	00200293          	li	t0,2
 8010ca0:	fe5214e3          	bne	tp,t0,8010c88 <test_23+0x4>
 8010ca4:	08f00e93          	li	t4,143
 8010ca8:	01700193          	li	gp,23
 8010cac:	01d70463          	beq	a4,t4,8010cb4 <test_24>
 8010cb0:	4480106f          	j	80120f8 <fail>

0000000008010cb4 <test_24>:
  TEST_RR_SRC21_BYPASS( 24, 1, 1, mulw, 154, 14, 11 );
 8010cb4:	00000213          	li	tp,0
 8010cb8:	00b00113          	li	sp,11
 8010cbc:	00000013          	nop
 8010cc0:	00e00093          	li	ra,14
 8010cc4:	00000013          	nop
 8010cc8:	0220873b          	mulw	a4,ra,sp
 8010ccc:	00120213          	addi	tp,tp,1 # 1 <u_mode_trap_table-0x8000003>
 8010cd0:	00200293          	li	t0,2
 8010cd4:	fe5212e3          	bne	tp,t0,8010cb8 <test_24+0x4>
 8010cd8:	09a00e93          	li	t4,154
 8010cdc:	01800193          	li	gp,24
 8010ce0:	01d70463          	beq	a4,t4,8010ce8 <test_25>
 8010ce4:	4140106f          	j	80120f8 <fail>

0000000008010ce8 <test_25>:
  TEST_RR_SRC21_BYPASS( 25, 2, 0, mulw, 165, 15, 11 );
 8010ce8:	00000213          	li	tp,0
 8010cec:	00b00113          	li	sp,11
 8010cf0:	00000013          	nop
 8010cf4:	00000013          	nop
 8010cf8:	00f00093          	li	ra,15
 8010cfc:	0220873b          	mulw	a4,ra,sp
 8010d00:	00120213          	addi	tp,tp,1 # 1 <u_mode_trap_table-0x8000003>
 8010d04:	00200293          	li	t0,2
 8010d08:	fe5212e3          	bne	tp,t0,8010cec <test_25+0x4>
 8010d0c:	0a500e93          	li	t4,165
 8010d10:	01900193          	li	gp,25
 8010d14:	01d70463          	beq	a4,t4,8010d1c <test_26>
 8010d18:	3e00106f          	j	80120f8 <fail>

0000000008010d1c <test_26>:

  TEST_RR_ZEROSRC1( 26, mulw, 0, 31 );
 8010d1c:	01f00093          	li	ra,31
 8010d20:	0210013b          	mulw	sp,zero,ra
 8010d24:	00000e93          	li	t4,0
 8010d28:	01a00193          	li	gp,26
 8010d2c:	01d10463          	beq	sp,t4,8010d34 <test_27>
 8010d30:	3c80106f          	j	80120f8 <fail>

0000000008010d34 <test_27>:
  TEST_RR_ZEROSRC2( 27, mulw, 0, 32 );
 8010d34:	02000093          	li	ra,32
 8010d38:	0200813b          	mulw	sp,ra,zero
 8010d3c:	00000e93          	li	t4,0
 8010d40:	01b00193          	li	gp,27
 8010d44:	01d10463          	beq	sp,t4,8010d4c <test_28>
 8010d48:	3b00106f          	j	80120f8 <fail>

0000000008010d4c <test_28>:
  TEST_RR_ZEROSRC12( 28, mulw, 0 );
 8010d4c:	020000bb          	mulw	ra,zero,zero
 8010d50:	00000e93          	li	t4,0
 8010d54:	01c00193          	li	gp,28
 8010d58:	01d08463          	beq	ra,t4,8010d60 <test_29>
 8010d5c:	39c0106f          	j	80120f8 <fail>

0000000008010d60 <test_29>:
  TEST_RR_ZERODEST( 29, mulw, 33, 34 );
 8010d60:	02100093          	li	ra,33
 8010d64:	02200113          	li	sp,34
 8010d68:	0220803b          	mulw	zero,ra,sp
 8010d6c:	00000e93          	li	t4,0
 8010d70:	01d00193          	li	gp,29
 8010d74:	01d00463          	beq	zero,t4,8010d7c <test_29+0x1c>
 8010d78:	3800106f          	j	80120f8 <fail>

  TEST_PASSFAIL

RVTEST_CODE_END
 8010d7c:	c0001073          	unimp

0000000008010d80 <test_2>:

  #-------------------------------------------------------------
  # Arithmetic tests
  #-------------------------------------------------------------

  TEST_RR_OP( 2,  mulhsu, 0x00000000, 0x00000000, 0x00000000 );
 8010d80:	00000093          	li	ra,0
 8010d84:	00000113          	li	sp,0
 8010d88:	0220a733          	mulhsu	a4,ra,sp
 8010d8c:	00000e93          	li	t4,0
 8010d90:	00200193          	li	gp,2
 8010d94:	01d70463          	beq	a4,t4,8010d9c <test_3>
 8010d98:	3600106f          	j	80120f8 <fail>

0000000008010d9c <test_3>:
  TEST_RR_OP( 3,  mulhsu, 0x00000000, 0x00000001, 0x00000001 );
 8010d9c:	00100093          	li	ra,1
 8010da0:	00100113          	li	sp,1
 8010da4:	0220a733          	mulhsu	a4,ra,sp
 8010da8:	00000e93          	li	t4,0
 8010dac:	00300193          	li	gp,3
 8010db0:	01d70463          	beq	a4,t4,8010db8 <test_4>
 8010db4:	3440106f          	j	80120f8 <fail>

0000000008010db8 <test_4>:
  TEST_RR_OP( 4,  mulhsu, 0x00000000, 0x00000003, 0x00000007 );
 8010db8:	00300093          	li	ra,3
 8010dbc:	00700113          	li	sp,7
 8010dc0:	0220a733          	mulhsu	a4,ra,sp
 8010dc4:	00000e93          	li	t4,0
 8010dc8:	00400193          	li	gp,4
 8010dcc:	01d70463          	beq	a4,t4,8010dd4 <test_5>
 8010dd0:	3280106f          	j	80120f8 <fail>

0000000008010dd4 <test_5>:

  TEST_RR_OP( 5,  mulhsu, 0x0000000000000000, 0x0000000000000000, 0xffffffffffff8000 );
 8010dd4:	00000093          	li	ra,0
 8010dd8:	ffff8137          	lui	sp,0xffff8
 8010ddc:	0220a733          	mulhsu	a4,ra,sp
 8010de0:	00000e93          	li	t4,0
 8010de4:	00500193          	li	gp,5
 8010de8:	01d70463          	beq	a4,t4,8010df0 <test_6>
 8010dec:	30c0106f          	j	80120f8 <fail>

0000000008010df0 <test_6>:
  TEST_RR_OP( 6,  mulhsu, 0x0000000000000000, 0xffffffff80000000, 0x00000000 );
 8010df0:	800000b7          	lui	ra,0x80000
 8010df4:	00000113          	li	sp,0
 8010df8:	0220a733          	mulhsu	a4,ra,sp
 8010dfc:	00000e93          	li	t4,0
 8010e00:	00600193          	li	gp,6
 8010e04:	01d70463          	beq	a4,t4,8010e0c <test_7>
 8010e08:	2f00106f          	j	80120f8 <fail>

0000000008010e0c <test_7>:
  TEST_RR_OP( 7,  mulhsu, 0xffffffff80000000, 0xffffffff80000000, 0xffffffffffff8000 );
 8010e0c:	800000b7          	lui	ra,0x80000
 8010e10:	ffff8137          	lui	sp,0xffff8
 8010e14:	0220a733          	mulhsu	a4,ra,sp
 8010e18:	80000eb7          	lui	t4,0x80000
 8010e1c:	00700193          	li	gp,7
 8010e20:	01d70463          	beq	a4,t4,8010e28 <test_8>
 8010e24:	2d40106f          	j	80120f8 <fail>

0000000008010e28 <test_8>:

  #-------------------------------------------------------------
  # Source/Destination tests
  #-------------------------------------------------------------

  TEST_RR_SRC1_EQ_DEST( 8, mulhsu, 143, 13<<32, 11<<32 );
 8010e28:	00d0009b          	addiw	ra,zero,13
 8010e2c:	02009093          	slli	ra,ra,0x20
 8010e30:	00b0011b          	addiw	sp,zero,11
 8010e34:	02011113          	slli	sp,sp,0x20
 8010e38:	0220a0b3          	mulhsu	ra,ra,sp
 8010e3c:	08f00e93          	li	t4,143
 8010e40:	00800193          	li	gp,8
 8010e44:	01d08463          	beq	ra,t4,8010e4c <test_9>
 8010e48:	2b00106f          	j	80120f8 <fail>

0000000008010e4c <test_9>:
  TEST_RR_SRC2_EQ_DEST( 9, mulhsu, 154, 14<<32, 11<<32 );
 8010e4c:	0070009b          	addiw	ra,zero,7
 8010e50:	02109093          	slli	ra,ra,0x21
 8010e54:	00b0011b          	addiw	sp,zero,11
 8010e58:	02011113          	slli	sp,sp,0x20
 8010e5c:	0220a133          	mulhsu	sp,ra,sp
 8010e60:	09a00e93          	li	t4,154
 8010e64:	00900193          	li	gp,9
 8010e68:	01d10463          	beq	sp,t4,8010e70 <test_10>
 8010e6c:	28c0106f          	j	80120f8 <fail>

0000000008010e70 <test_10>:
  TEST_RR_SRC12_EQ_DEST( 10, mulhsu, 169, 13<<32 );
 8010e70:	00d0009b          	addiw	ra,zero,13
 8010e74:	02009093          	slli	ra,ra,0x20
 8010e78:	0210a0b3          	mulhsu	ra,ra,ra
 8010e7c:	0a900e93          	li	t4,169
 8010e80:	00a00193          	li	gp,10
 8010e84:	01d08463          	beq	ra,t4,8010e8c <test_11>
 8010e88:	2700106f          	j	80120f8 <fail>

0000000008010e8c <test_11>:

  #-------------------------------------------------------------
  # Bypassing tests
  #-------------------------------------------------------------

  TEST_RR_DEST_BYPASS( 11, 0, mulhsu, 143, 13<<32, 11<<32 );
 8010e8c:	00000213          	li	tp,0
 8010e90:	00d0009b          	addiw	ra,zero,13
 8010e94:	02009093          	slli	ra,ra,0x20
 8010e98:	00b0011b          	addiw	sp,zero,11
 8010e9c:	02011113          	slli	sp,sp,0x20
 8010ea0:	0220a733          	mulhsu	a4,ra,sp
 8010ea4:	00070313          	mv	t1,a4
 8010ea8:	00120213          	addi	tp,tp,1 # 1 <u_mode_trap_table-0x8000003>
 8010eac:	00200293          	li	t0,2
 8010eb0:	fe5210e3          	bne	tp,t0,8010e90 <test_11+0x4>
 8010eb4:	08f00e93          	li	t4,143
 8010eb8:	00b00193          	li	gp,11
 8010ebc:	01d30463          	beq	t1,t4,8010ec4 <test_12>
 8010ec0:	2380106f          	j	80120f8 <fail>

0000000008010ec4 <test_12>:
  TEST_RR_DEST_BYPASS( 12, 1, mulhsu, 154, 14<<32, 11<<32 );
 8010ec4:	00000213          	li	tp,0
 8010ec8:	0070009b          	addiw	ra,zero,7
 8010ecc:	02109093          	slli	ra,ra,0x21
 8010ed0:	00b0011b          	addiw	sp,zero,11
 8010ed4:	02011113          	slli	sp,sp,0x20
 8010ed8:	0220a733          	mulhsu	a4,ra,sp
 8010edc:	00000013          	nop
 8010ee0:	00070313          	mv	t1,a4
 8010ee4:	00120213          	addi	tp,tp,1 # 1 <u_mode_trap_table-0x8000003>
 8010ee8:	00200293          	li	t0,2
 8010eec:	fc521ee3          	bne	tp,t0,8010ec8 <test_12+0x4>
 8010ef0:	09a00e93          	li	t4,154
 8010ef4:	00c00193          	li	gp,12
 8010ef8:	01d30463          	beq	t1,t4,8010f00 <test_13>
 8010efc:	1fc0106f          	j	80120f8 <fail>

0000000008010f00 <test_13>:
  TEST_RR_DEST_BYPASS( 13, 2, mulhsu, 165, 15<<32, 11<<32 );
 8010f00:	00000213          	li	tp,0
 8010f04:	00f0009b          	addiw	ra,zero,15
 8010f08:	02009093          	slli	ra,ra,0x20
 8010f0c:	00b0011b          	addiw	sp,zero,11
 8010f10:	02011113          	slli	sp,sp,0x20
 8010f14:	0220a733          	mulhsu	a4,ra,sp
 8010f18:	00000013          	nop
 8010f1c:	00000013          	nop
 8010f20:	00070313          	mv	t1,a4
 8010f24:	00120213          	addi	tp,tp,1 # 1 <u_mode_trap_table-0x8000003>
 8010f28:	00200293          	li	t0,2
 8010f2c:	fc521ce3          	bne	tp,t0,8010f04 <test_13+0x4>
 8010f30:	0a500e93          	li	t4,165
 8010f34:	00d00193          	li	gp,13
 8010f38:	01d30463          	beq	t1,t4,8010f40 <test_14>
 8010f3c:	1bc0106f          	j	80120f8 <fail>

0000000008010f40 <test_14>:

  TEST_RR_SRC12_BYPASS( 14, 0, 0, mulhsu, 143, 13<<32, 11<<32 );
 8010f40:	00000213          	li	tp,0
 8010f44:	00d0009b          	addiw	ra,zero,13
 8010f48:	02009093          	slli	ra,ra,0x20
 8010f4c:	00b0011b          	addiw	sp,zero,11
 8010f50:	02011113          	slli	sp,sp,0x20
 8010f54:	0220a733          	mulhsu	a4,ra,sp
 8010f58:	00120213          	addi	tp,tp,1 # 1 <u_mode_trap_table-0x8000003>
 8010f5c:	00200293          	li	t0,2
 8010f60:	fe5212e3          	bne	tp,t0,8010f44 <test_14+0x4>
 8010f64:	08f00e93          	li	t4,143
 8010f68:	00e00193          	li	gp,14
 8010f6c:	01d70463          	beq	a4,t4,8010f74 <test_15>
 8010f70:	1880106f          	j	80120f8 <fail>

0000000008010f74 <test_15>:
  TEST_RR_SRC12_BYPASS( 15, 0, 1, mulhsu, 154, 14<<32, 11<<32 );
 8010f74:	00000213          	li	tp,0
 8010f78:	0070009b          	addiw	ra,zero,7
 8010f7c:	02109093          	slli	ra,ra,0x21
 8010f80:	00b0011b          	addiw	sp,zero,11
 8010f84:	02011113          	slli	sp,sp,0x20
 8010f88:	00000013          	nop
 8010f8c:	0220a733          	mulhsu	a4,ra,sp
 8010f90:	00120213          	addi	tp,tp,1 # 1 <u_mode_trap_table-0x8000003>
 8010f94:	00200293          	li	t0,2
 8010f98:	fe5210e3          	bne	tp,t0,8010f78 <test_15+0x4>
 8010f9c:	09a00e93          	li	t4,154
 8010fa0:	00f00193          	li	gp,15
 8010fa4:	01d70463          	beq	a4,t4,8010fac <test_16>
 8010fa8:	1500106f          	j	80120f8 <fail>

0000000008010fac <test_16>:
  TEST_RR_SRC12_BYPASS( 16, 0, 2, mulhsu, 165, 15<<32, 11<<32 );
 8010fac:	00000213          	li	tp,0
 8010fb0:	00f0009b          	addiw	ra,zero,15
 8010fb4:	02009093          	slli	ra,ra,0x20
 8010fb8:	00b0011b          	addiw	sp,zero,11
 8010fbc:	02011113          	slli	sp,sp,0x20
 8010fc0:	00000013          	nop
 8010fc4:	00000013          	nop
 8010fc8:	0220a733          	mulhsu	a4,ra,sp
 8010fcc:	00120213          	addi	tp,tp,1 # 1 <u_mode_trap_table-0x8000003>
 8010fd0:	00200293          	li	t0,2
 8010fd4:	fc521ee3          	bne	tp,t0,8010fb0 <test_16+0x4>
 8010fd8:	0a500e93          	li	t4,165
 8010fdc:	01000193          	li	gp,16
 8010fe0:	01d70463          	beq	a4,t4,8010fe8 <test_17>
 8010fe4:	1140106f          	j	80120f8 <fail>

0000000008010fe8 <test_17>:
  TEST_RR_SRC12_BYPASS( 17, 1, 0, mulhsu, 143, 13<<32, 11<<32 );
 8010fe8:	00000213          	li	tp,0
 8010fec:	00d0009b          	addiw	ra,zero,13
 8010ff0:	02009093          	slli	ra,ra,0x20
 8010ff4:	00000013          	nop
 8010ff8:	00b0011b          	addiw	sp,zero,11
 8010ffc:	02011113          	slli	sp,sp,0x20
 8011000:	0220a733          	mulhsu	a4,ra,sp
 8011004:	00120213          	addi	tp,tp,1 # 1 <u_mode_trap_table-0x8000003>
 8011008:	00200293          	li	t0,2
 801100c:	fe5210e3          	bne	tp,t0,8010fec <test_17+0x4>
 8011010:	08f00e93          	li	t4,143
 8011014:	01100193          	li	gp,17
 8011018:	01d70463          	beq	a4,t4,8011020 <test_18>
 801101c:	0dc0106f          	j	80120f8 <fail>

0000000008011020 <test_18>:
  TEST_RR_SRC12_BYPASS( 18, 1, 1, mulhsu, 154, 14<<32, 11<<32 );
 8011020:	00000213          	li	tp,0
 8011024:	0070009b          	addiw	ra,zero,7
 8011028:	02109093          	slli	ra,ra,0x21
 801102c:	00000013          	nop
 8011030:	00b0011b          	addiw	sp,zero,11
 8011034:	02011113          	slli	sp,sp,0x20
 8011038:	00000013          	nop
 801103c:	0220a733          	mulhsu	a4,ra,sp
 8011040:	00120213          	addi	tp,tp,1 # 1 <u_mode_trap_table-0x8000003>
 8011044:	00200293          	li	t0,2
 8011048:	fc521ee3          	bne	tp,t0,8011024 <test_18+0x4>
 801104c:	09a00e93          	li	t4,154
 8011050:	01200193          	li	gp,18
 8011054:	01d70463          	beq	a4,t4,801105c <test_19>
 8011058:	0a00106f          	j	80120f8 <fail>

000000000801105c <test_19>:
  TEST_RR_SRC12_BYPASS( 19, 2, 0, mulhsu, 165, 15<<32, 11<<32 );
 801105c:	00000213          	li	tp,0
 8011060:	00f0009b          	addiw	ra,zero,15
 8011064:	02009093          	slli	ra,ra,0x20
 8011068:	00000013          	nop
 801106c:	00000013          	nop
 8011070:	00b0011b          	addiw	sp,zero,11
 8011074:	02011113          	slli	sp,sp,0x20
 8011078:	0220a733          	mulhsu	a4,ra,sp
 801107c:	00120213          	addi	tp,tp,1 # 1 <u_mode_trap_table-0x8000003>
 8011080:	00200293          	li	t0,2
 8011084:	fc521ee3          	bne	tp,t0,8011060 <test_19+0x4>
 8011088:	0a500e93          	li	t4,165
 801108c:	01300193          	li	gp,19
 8011090:	01d70463          	beq	a4,t4,8011098 <test_20>
 8011094:	0640106f          	j	80120f8 <fail>

0000000008011098 <test_20>:

  TEST_RR_SRC21_BYPASS( 20, 0, 0, mulhsu, 143, 13<<32, 11<<32 );
 8011098:	00000213          	li	tp,0
 801109c:	00b0011b          	addiw	sp,zero,11
 80110a0:	02011113          	slli	sp,sp,0x20
 80110a4:	00d0009b          	addiw	ra,zero,13
 80110a8:	02009093          	slli	ra,ra,0x20
 80110ac:	0220a733          	mulhsu	a4,ra,sp
 80110b0:	00120213          	addi	tp,tp,1 # 1 <u_mode_trap_table-0x8000003>
 80110b4:	00200293          	li	t0,2
 80110b8:	fe5212e3          	bne	tp,t0,801109c <test_20+0x4>
 80110bc:	08f00e93          	li	t4,143
 80110c0:	01400193          	li	gp,20
 80110c4:	01d70463          	beq	a4,t4,80110cc <test_21>
 80110c8:	0300106f          	j	80120f8 <fail>

00000000080110cc <test_21>:
  TEST_RR_SRC21_BYPASS( 21, 0, 1, mulhsu, 154, 14<<32, 11<<32 );
 80110cc:	00000213          	li	tp,0
 80110d0:	00b0011b          	addiw	sp,zero,11
 80110d4:	02011113          	slli	sp,sp,0x20
 80110d8:	0070009b          	addiw	ra,zero,7
 80110dc:	02109093          	slli	ra,ra,0x21
 80110e0:	00000013          	nop
 80110e4:	0220a733          	mulhsu	a4,ra,sp
 80110e8:	00120213          	addi	tp,tp,1 # 1 <u_mode_trap_table-0x8000003>
 80110ec:	00200293          	li	t0,2
 80110f0:	fe5210e3          	bne	tp,t0,80110d0 <test_21+0x4>
 80110f4:	09a00e93          	li	t4,154
 80110f8:	01500193          	li	gp,21
 80110fc:	01d70463          	beq	a4,t4,8011104 <test_22>
 8011100:	7f90006f          	j	80120f8 <fail>

0000000008011104 <test_22>:
  TEST_RR_SRC21_BYPASS( 22, 0, 2, mulhsu, 165, 15<<32, 11<<32 );
 8011104:	00000213          	li	tp,0
 8011108:	00b0011b          	addiw	sp,zero,11
 801110c:	02011113          	slli	sp,sp,0x20
 8011110:	00f0009b          	addiw	ra,zero,15
 8011114:	02009093          	slli	ra,ra,0x20
 8011118:	00000013          	nop
 801111c:	00000013          	nop
 8011120:	0220a733          	mulhsu	a4,ra,sp
 8011124:	00120213          	addi	tp,tp,1 # 1 <u_mode_trap_table-0x8000003>
 8011128:	00200293          	li	t0,2
 801112c:	fc521ee3          	bne	tp,t0,8011108 <test_22+0x4>
 8011130:	0a500e93          	li	t4,165
 8011134:	01600193          	li	gp,22
 8011138:	01d70463          	beq	a4,t4,8011140 <test_23>
 801113c:	7bd0006f          	j	80120f8 <fail>

0000000008011140 <test_23>:
  TEST_RR_SRC21_BYPASS( 23, 1, 0, mulhsu, 143, 13<<32, 11<<32 );
 8011140:	00000213          	li	tp,0
 8011144:	00b0011b          	addiw	sp,zero,11
 8011148:	02011113          	slli	sp,sp,0x20
 801114c:	00000013          	nop
 8011150:	00d0009b          	addiw	ra,zero,13
 8011154:	02009093          	slli	ra,ra,0x20
 8011158:	0220a733          	mulhsu	a4,ra,sp
 801115c:	00120213          	addi	tp,tp,1 # 1 <u_mode_trap_table-0x8000003>
 8011160:	00200293          	li	t0,2
 8011164:	fe5210e3          	bne	tp,t0,8011144 <test_23+0x4>
 8011168:	08f00e93          	li	t4,143
 801116c:	01700193          	li	gp,23
 8011170:	01d70463          	beq	a4,t4,8011178 <test_24>
 8011174:	7850006f          	j	80120f8 <fail>

0000000008011178 <test_24>:
  TEST_RR_SRC21_BYPASS( 24, 1, 1, mulhsu, 154, 14<<32, 11<<32 );
 8011178:	00000213          	li	tp,0
 801117c:	00b0011b          	addiw	sp,zero,11
 8011180:	02011113          	slli	sp,sp,0x20
 8011184:	00000013          	nop
 8011188:	0070009b          	addiw	ra,zero,7
 801118c:	02109093          	slli	ra,ra,0x21
 8011190:	00000013          	nop
 8011194:	0220a733          	mulhsu	a4,ra,sp
 8011198:	00120213          	addi	tp,tp,1 # 1 <u_mode_trap_table-0x8000003>
 801119c:	00200293          	li	t0,2
 80111a0:	fc521ee3          	bne	tp,t0,801117c <test_24+0x4>
 80111a4:	09a00e93          	li	t4,154
 80111a8:	01800193          	li	gp,24
 80111ac:	01d70463          	beq	a4,t4,80111b4 <test_25>
 80111b0:	7490006f          	j	80120f8 <fail>

00000000080111b4 <test_25>:
  TEST_RR_SRC21_BYPASS( 25, 2, 0, mulhsu, 165, 15<<32, 11<<32 );
 80111b4:	00000213          	li	tp,0
 80111b8:	00b0011b          	addiw	sp,zero,11
 80111bc:	02011113          	slli	sp,sp,0x20
 80111c0:	00000013          	nop
 80111c4:	00000013          	nop
 80111c8:	00f0009b          	addiw	ra,zero,15
 80111cc:	02009093          	slli	ra,ra,0x20
 80111d0:	0220a733          	mulhsu	a4,ra,sp
 80111d4:	00120213          	addi	tp,tp,1 # 1 <u_mode_trap_table-0x8000003>
 80111d8:	00200293          	li	t0,2
 80111dc:	fc521ee3          	bne	tp,t0,80111b8 <test_25+0x4>
 80111e0:	0a500e93          	li	t4,165
 80111e4:	01900193          	li	gp,25
 80111e8:	01d70463          	beq	a4,t4,80111f0 <test_26>
 80111ec:	70d0006f          	j	80120f8 <fail>

00000000080111f0 <test_26>:

  TEST_RR_ZEROSRC1( 26, mulhsu, 0, 31<<32 );
 80111f0:	01f0009b          	addiw	ra,zero,31
 80111f4:	02009093          	slli	ra,ra,0x20
 80111f8:	02102133          	mulhsu	sp,zero,ra
 80111fc:	00000e93          	li	t4,0
 8011200:	01a00193          	li	gp,26
 8011204:	01d10463          	beq	sp,t4,801120c <test_27>
 8011208:	6f10006f          	j	80120f8 <fail>

000000000801120c <test_27>:
  TEST_RR_ZEROSRC2( 27, mulhsu, 0, 32<<32 );
 801120c:	0010009b          	addiw	ra,zero,1
 8011210:	02509093          	slli	ra,ra,0x25
 8011214:	0200a133          	mulhsu	sp,ra,zero
 8011218:	00000e93          	li	t4,0
 801121c:	01b00193          	li	gp,27
 8011220:	01d10463          	beq	sp,t4,8011228 <test_28>
 8011224:	6d50006f          	j	80120f8 <fail>

0000000008011228 <test_28>:
  TEST_RR_ZEROSRC12( 28, mulhsu, 0 );
 8011228:	020020b3          	mulhsu	ra,zero,zero
 801122c:	00000e93          	li	t4,0
 8011230:	01c00193          	li	gp,28
 8011234:	01d08463          	beq	ra,t4,801123c <test_29>
 8011238:	6c10006f          	j	80120f8 <fail>

000000000801123c <test_29>:
  TEST_RR_ZERODEST( 29, mulhsu, 33<<32, 34<<32 );
 801123c:	0210009b          	addiw	ra,zero,33
 8011240:	02009093          	slli	ra,ra,0x20
 8011244:	0110011b          	addiw	sp,zero,17
 8011248:	02111113          	slli	sp,sp,0x21
 801124c:	0220a033          	mulhsu	zero,ra,sp
 8011250:	00000e93          	li	t4,0
 8011254:	01d00193          	li	gp,29
 8011258:	01d00463          	beq	zero,t4,8011260 <test_29+0x24>
 801125c:	69d0006f          	j	80120f8 <fail>

  TEST_PASSFAIL

RVTEST_CODE_END
 8011260:	c0001073          	unimp

0000000008011264 <test_2>:

  #-------------------------------------------------------------
  # Arithmetic tests
  #-------------------------------------------------------------

  TEST_RR_OP( 2,  mulhu, 0x00000000, 0x00000000, 0x00000000 );
 8011264:	00000093          	li	ra,0
 8011268:	00000113          	li	sp,0
 801126c:	0220b733          	mulhu	a4,ra,sp
 8011270:	00000e93          	li	t4,0
 8011274:	00200193          	li	gp,2
 8011278:	01d70463          	beq	a4,t4,8011280 <test_3>
 801127c:	67d0006f          	j	80120f8 <fail>

0000000008011280 <test_3>:
  TEST_RR_OP( 3,  mulhu, 0x00000000, 0x00000001, 0x00000001 );
 8011280:	00100093          	li	ra,1
 8011284:	00100113          	li	sp,1
 8011288:	0220b733          	mulhu	a4,ra,sp
 801128c:	00000e93          	li	t4,0
 8011290:	00300193          	li	gp,3
 8011294:	01d70463          	beq	a4,t4,801129c <test_4>
 8011298:	6610006f          	j	80120f8 <fail>

000000000801129c <test_4>:
  TEST_RR_OP( 4,  mulhu, 0x00000000, 0x00000003, 0x00000007 );
 801129c:	00300093          	li	ra,3
 80112a0:	00700113          	li	sp,7
 80112a4:	0220b733          	mulhu	a4,ra,sp
 80112a8:	00000e93          	li	t4,0
 80112ac:	00400193          	li	gp,4
 80112b0:	01d70463          	beq	a4,t4,80112b8 <test_5>
 80112b4:	6450006f          	j	80120f8 <fail>

00000000080112b8 <test_5>:

  TEST_RR_OP( 5,  mulhu, 0x0000000000000000, 0x0000000000000000, 0xffffffffffff8000 );
 80112b8:	00000093          	li	ra,0
 80112bc:	ffff8137          	lui	sp,0xffff8
 80112c0:	0220b733          	mulhu	a4,ra,sp
 80112c4:	00000e93          	li	t4,0
 80112c8:	00500193          	li	gp,5
 80112cc:	01d70463          	beq	a4,t4,80112d4 <test_6>
 80112d0:	6290006f          	j	80120f8 <fail>

00000000080112d4 <test_6>:
  TEST_RR_OP( 6,  mulhu, 0x0000000000000000, 0xffffffff80000000, 0x00000000 );
 80112d4:	800000b7          	lui	ra,0x80000
 80112d8:	00000113          	li	sp,0
 80112dc:	0220b733          	mulhu	a4,ra,sp
 80112e0:	00000e93          	li	t4,0
 80112e4:	00600193          	li	gp,6
 80112e8:	01d70463          	beq	a4,t4,80112f0 <test_7>
 80112ec:	60d0006f          	j	80120f8 <fail>

00000000080112f0 <test_7>:
  TEST_RR_OP( 7,  mulhu, 0xffffffff7fff8000, 0xffffffff80000000, 0xffffffffffff8000 );
 80112f0:	800000b7          	lui	ra,0x80000
 80112f4:	ffff8137          	lui	sp,0xffff8
 80112f8:	0220b733          	mulhu	a4,ra,sp
 80112fc:	ffff0eb7          	lui	t4,0xffff0
 8011300:	fffe8e9b          	addiw	t4,t4,-1
 8011304:	00fe9e93          	slli	t4,t4,0xf
 8011308:	00700193          	li	gp,7
 801130c:	01d70463          	beq	a4,t4,8011314 <test_30>
 8011310:	5e90006f          	j	80120f8 <fail>

0000000008011314 <test_30>:

  TEST_RR_OP(30,  mulhu, 0x000000000001fefe, 0xaaaaaaaaaaaaaaab, 0x000000000002fe7d );
 8011314:	faaab0b7          	lui	ra,0xfaaab
 8011318:	aab0809b          	addiw	ra,ra,-1365
 801131c:	00c09093          	slli	ra,ra,0xc
 8011320:	aab08093          	addi	ra,ra,-1365 # fffffffffaaaaaab <_end+0xfffffffff2a9744b>
 8011324:	00c09093          	slli	ra,ra,0xc
 8011328:	aab08093          	addi	ra,ra,-1365
 801132c:	00c09093          	slli	ra,ra,0xc
 8011330:	aab08093          	addi	ra,ra,-1365
 8011334:	00030137          	lui	sp,0x30
 8011338:	e7d1011b          	addiw	sp,sp,-387
 801133c:	0220b733          	mulhu	a4,ra,sp
 8011340:	00020eb7          	lui	t4,0x20
 8011344:	efee8e9b          	addiw	t4,t4,-258
 8011348:	01e00193          	li	gp,30
 801134c:	01d70463          	beq	a4,t4,8011354 <test_31>
 8011350:	5a90006f          	j	80120f8 <fail>

0000000008011354 <test_31>:
  TEST_RR_OP(31,  mulhu, 0x000000000001fefe, 0x000000000002fe7d, 0xaaaaaaaaaaaaaaab );
 8011354:	000300b7          	lui	ra,0x30
 8011358:	e7d0809b          	addiw	ra,ra,-387
 801135c:	faaab137          	lui	sp,0xfaaab
 8011360:	aab1011b          	addiw	sp,sp,-1365
 8011364:	00c11113          	slli	sp,sp,0xc
 8011368:	aab10113          	addi	sp,sp,-1365 # fffffffffaaaaaab <_end+0xfffffffff2a9744b>
 801136c:	00c11113          	slli	sp,sp,0xc
 8011370:	aab10113          	addi	sp,sp,-1365
 8011374:	00c11113          	slli	sp,sp,0xc
 8011378:	aab10113          	addi	sp,sp,-1365
 801137c:	0220b733          	mulhu	a4,ra,sp
 8011380:	00020eb7          	lui	t4,0x20
 8011384:	efee8e9b          	addiw	t4,t4,-258
 8011388:	01f00193          	li	gp,31
 801138c:	01d70463          	beq	a4,t4,8011394 <test_8>
 8011390:	5690006f          	j	80120f8 <fail>

0000000008011394 <test_8>:

  #-------------------------------------------------------------
  # Source/Destination tests
  #-------------------------------------------------------------

  TEST_RR_SRC1_EQ_DEST( 8, mulhu, 143, 13<<32, 11<<32 );
 8011394:	00d0009b          	addiw	ra,zero,13
 8011398:	02009093          	slli	ra,ra,0x20
 801139c:	00b0011b          	addiw	sp,zero,11
 80113a0:	02011113          	slli	sp,sp,0x20
 80113a4:	0220b0b3          	mulhu	ra,ra,sp
 80113a8:	08f00e93          	li	t4,143
 80113ac:	00800193          	li	gp,8
 80113b0:	01d08463          	beq	ra,t4,80113b8 <test_9>
 80113b4:	5450006f          	j	80120f8 <fail>

00000000080113b8 <test_9>:
  TEST_RR_SRC2_EQ_DEST( 9, mulhu, 154, 14<<32, 11<<32 );
 80113b8:	0070009b          	addiw	ra,zero,7
 80113bc:	02109093          	slli	ra,ra,0x21
 80113c0:	00b0011b          	addiw	sp,zero,11
 80113c4:	02011113          	slli	sp,sp,0x20
 80113c8:	0220b133          	mulhu	sp,ra,sp
 80113cc:	09a00e93          	li	t4,154
 80113d0:	00900193          	li	gp,9
 80113d4:	01d10463          	beq	sp,t4,80113dc <test_10>
 80113d8:	5210006f          	j	80120f8 <fail>

00000000080113dc <test_10>:
  TEST_RR_SRC12_EQ_DEST( 10, mulhu, 169, 13<<32 );
 80113dc:	00d0009b          	addiw	ra,zero,13
 80113e0:	02009093          	slli	ra,ra,0x20
 80113e4:	0210b0b3          	mulhu	ra,ra,ra
 80113e8:	0a900e93          	li	t4,169
 80113ec:	00a00193          	li	gp,10
 80113f0:	01d08463          	beq	ra,t4,80113f8 <test_11>
 80113f4:	5050006f          	j	80120f8 <fail>

00000000080113f8 <test_11>:

  #-------------------------------------------------------------
  # Bypassing tests
  #-------------------------------------------------------------

  TEST_RR_DEST_BYPASS( 11, 0, mulhu, 143, 13<<32, 11<<32 );
 80113f8:	00000213          	li	tp,0
 80113fc:	00d0009b          	addiw	ra,zero,13
 8011400:	02009093          	slli	ra,ra,0x20
 8011404:	00b0011b          	addiw	sp,zero,11
 8011408:	02011113          	slli	sp,sp,0x20
 801140c:	0220b733          	mulhu	a4,ra,sp
 8011410:	00070313          	mv	t1,a4
 8011414:	00120213          	addi	tp,tp,1 # 1 <u_mode_trap_table-0x8000003>
 8011418:	00200293          	li	t0,2
 801141c:	fe5210e3          	bne	tp,t0,80113fc <test_11+0x4>
 8011420:	08f00e93          	li	t4,143
 8011424:	00b00193          	li	gp,11
 8011428:	01d30463          	beq	t1,t4,8011430 <test_12>
 801142c:	4cd0006f          	j	80120f8 <fail>

0000000008011430 <test_12>:
  TEST_RR_DEST_BYPASS( 12, 1, mulhu, 154, 14<<32, 11<<32 );
 8011430:	00000213          	li	tp,0
 8011434:	0070009b          	addiw	ra,zero,7
 8011438:	02109093          	slli	ra,ra,0x21
 801143c:	00b0011b          	addiw	sp,zero,11
 8011440:	02011113          	slli	sp,sp,0x20
 8011444:	0220b733          	mulhu	a4,ra,sp
 8011448:	00000013          	nop
 801144c:	00070313          	mv	t1,a4
 8011450:	00120213          	addi	tp,tp,1 # 1 <u_mode_trap_table-0x8000003>
 8011454:	00200293          	li	t0,2
 8011458:	fc521ee3          	bne	tp,t0,8011434 <test_12+0x4>
 801145c:	09a00e93          	li	t4,154
 8011460:	00c00193          	li	gp,12
 8011464:	01d30463          	beq	t1,t4,801146c <test_13>
 8011468:	4910006f          	j	80120f8 <fail>

000000000801146c <test_13>:
  TEST_RR_DEST_BYPASS( 13, 2, mulhu, 165, 15<<32, 11<<32 );
 801146c:	00000213          	li	tp,0
 8011470:	00f0009b          	addiw	ra,zero,15
 8011474:	02009093          	slli	ra,ra,0x20
 8011478:	00b0011b          	addiw	sp,zero,11
 801147c:	02011113          	slli	sp,sp,0x20
 8011480:	0220b733          	mulhu	a4,ra,sp
 8011484:	00000013          	nop
 8011488:	00000013          	nop
 801148c:	00070313          	mv	t1,a4
 8011490:	00120213          	addi	tp,tp,1 # 1 <u_mode_trap_table-0x8000003>
 8011494:	00200293          	li	t0,2
 8011498:	fc521ce3          	bne	tp,t0,8011470 <test_13+0x4>
 801149c:	0a500e93          	li	t4,165
 80114a0:	00d00193          	li	gp,13
 80114a4:	01d30463          	beq	t1,t4,80114ac <test_14>
 80114a8:	4510006f          	j	80120f8 <fail>

00000000080114ac <test_14>:

  TEST_RR_SRC12_BYPASS( 14, 0, 0, mulhu, 143, 13<<32, 11<<32 );
 80114ac:	00000213          	li	tp,0
 80114b0:	00d0009b          	addiw	ra,zero,13
 80114b4:	02009093          	slli	ra,ra,0x20
 80114b8:	00b0011b          	addiw	sp,zero,11
 80114bc:	02011113          	slli	sp,sp,0x20
 80114c0:	0220b733          	mulhu	a4,ra,sp
 80114c4:	00120213          	addi	tp,tp,1 # 1 <u_mode_trap_table-0x8000003>
 80114c8:	00200293          	li	t0,2
 80114cc:	fe5212e3          	bne	tp,t0,80114b0 <test_14+0x4>
 80114d0:	08f00e93          	li	t4,143
 80114d4:	00e00193          	li	gp,14
 80114d8:	01d70463          	beq	a4,t4,80114e0 <test_15>
 80114dc:	41d0006f          	j	80120f8 <fail>

00000000080114e0 <test_15>:
  TEST_RR_SRC12_BYPASS( 15, 0, 1, mulhu, 154, 14<<32, 11<<32 );
 80114e0:	00000213          	li	tp,0
 80114e4:	0070009b          	addiw	ra,zero,7
 80114e8:	02109093          	slli	ra,ra,0x21
 80114ec:	00b0011b          	addiw	sp,zero,11
 80114f0:	02011113          	slli	sp,sp,0x20
 80114f4:	00000013          	nop
 80114f8:	0220b733          	mulhu	a4,ra,sp
 80114fc:	00120213          	addi	tp,tp,1 # 1 <u_mode_trap_table-0x8000003>
 8011500:	00200293          	li	t0,2
 8011504:	fe5210e3          	bne	tp,t0,80114e4 <test_15+0x4>
 8011508:	09a00e93          	li	t4,154
 801150c:	00f00193          	li	gp,15
 8011510:	01d70463          	beq	a4,t4,8011518 <test_16>
 8011514:	3e50006f          	j	80120f8 <fail>

0000000008011518 <test_16>:
  TEST_RR_SRC12_BYPASS( 16, 0, 2, mulhu, 165, 15<<32, 11<<32 );
 8011518:	00000213          	li	tp,0
 801151c:	00f0009b          	addiw	ra,zero,15
 8011520:	02009093          	slli	ra,ra,0x20
 8011524:	00b0011b          	addiw	sp,zero,11
 8011528:	02011113          	slli	sp,sp,0x20
 801152c:	00000013          	nop
 8011530:	00000013          	nop
 8011534:	0220b733          	mulhu	a4,ra,sp
 8011538:	00120213          	addi	tp,tp,1 # 1 <u_mode_trap_table-0x8000003>
 801153c:	00200293          	li	t0,2
 8011540:	fc521ee3          	bne	tp,t0,801151c <test_16+0x4>
 8011544:	0a500e93          	li	t4,165
 8011548:	01000193          	li	gp,16
 801154c:	01d70463          	beq	a4,t4,8011554 <test_17>
 8011550:	3a90006f          	j	80120f8 <fail>

0000000008011554 <test_17>:
  TEST_RR_SRC12_BYPASS( 17, 1, 0, mulhu, 143, 13<<32, 11<<32 );
 8011554:	00000213          	li	tp,0
 8011558:	00d0009b          	addiw	ra,zero,13
 801155c:	02009093          	slli	ra,ra,0x20
 8011560:	00000013          	nop
 8011564:	00b0011b          	addiw	sp,zero,11
 8011568:	02011113          	slli	sp,sp,0x20
 801156c:	0220b733          	mulhu	a4,ra,sp
 8011570:	00120213          	addi	tp,tp,1 # 1 <u_mode_trap_table-0x8000003>
 8011574:	00200293          	li	t0,2
 8011578:	fe5210e3          	bne	tp,t0,8011558 <test_17+0x4>
 801157c:	08f00e93          	li	t4,143
 8011580:	01100193          	li	gp,17
 8011584:	01d70463          	beq	a4,t4,801158c <test_18>
 8011588:	3710006f          	j	80120f8 <fail>

000000000801158c <test_18>:
  TEST_RR_SRC12_BYPASS( 18, 1, 1, mulhu, 154, 14<<32, 11<<32 );
 801158c:	00000213          	li	tp,0
 8011590:	0070009b          	addiw	ra,zero,7
 8011594:	02109093          	slli	ra,ra,0x21
 8011598:	00000013          	nop
 801159c:	00b0011b          	addiw	sp,zero,11
 80115a0:	02011113          	slli	sp,sp,0x20
 80115a4:	00000013          	nop
 80115a8:	0220b733          	mulhu	a4,ra,sp
 80115ac:	00120213          	addi	tp,tp,1 # 1 <u_mode_trap_table-0x8000003>
 80115b0:	00200293          	li	t0,2
 80115b4:	fc521ee3          	bne	tp,t0,8011590 <test_18+0x4>
 80115b8:	09a00e93          	li	t4,154
 80115bc:	01200193          	li	gp,18
 80115c0:	01d70463          	beq	a4,t4,80115c8 <test_19>
 80115c4:	3350006f          	j	80120f8 <fail>

00000000080115c8 <test_19>:
  TEST_RR_SRC12_BYPASS( 19, 2, 0, mulhu, 165, 15<<32, 11<<32 );
 80115c8:	00000213          	li	tp,0
 80115cc:	00f0009b          	addiw	ra,zero,15
 80115d0:	02009093          	slli	ra,ra,0x20
 80115d4:	00000013          	nop
 80115d8:	00000013          	nop
 80115dc:	00b0011b          	addiw	sp,zero,11
 80115e0:	02011113          	slli	sp,sp,0x20
 80115e4:	0220b733          	mulhu	a4,ra,sp
 80115e8:	00120213          	addi	tp,tp,1 # 1 <u_mode_trap_table-0x8000003>
 80115ec:	00200293          	li	t0,2
 80115f0:	fc521ee3          	bne	tp,t0,80115cc <test_19+0x4>
 80115f4:	0a500e93          	li	t4,165
 80115f8:	01300193          	li	gp,19
 80115fc:	01d70463          	beq	a4,t4,8011604 <test_20>
 8011600:	2f90006f          	j	80120f8 <fail>

0000000008011604 <test_20>:

  TEST_RR_SRC21_BYPASS( 20, 0, 0, mulhu, 143, 13<<32, 11<<32 );
 8011604:	00000213          	li	tp,0
 8011608:	00b0011b          	addiw	sp,zero,11
 801160c:	02011113          	slli	sp,sp,0x20
 8011610:	00d0009b          	addiw	ra,zero,13
 8011614:	02009093          	slli	ra,ra,0x20
 8011618:	0220b733          	mulhu	a4,ra,sp
 801161c:	00120213          	addi	tp,tp,1 # 1 <u_mode_trap_table-0x8000003>
 8011620:	00200293          	li	t0,2
 8011624:	fe5212e3          	bne	tp,t0,8011608 <test_20+0x4>
 8011628:	08f00e93          	li	t4,143
 801162c:	01400193          	li	gp,20
 8011630:	01d70463          	beq	a4,t4,8011638 <test_21>
 8011634:	2c50006f          	j	80120f8 <fail>

0000000008011638 <test_21>:
  TEST_RR_SRC21_BYPASS( 21, 0, 1, mulhu, 154, 14<<32, 11<<32 );
 8011638:	00000213          	li	tp,0
 801163c:	00b0011b          	addiw	sp,zero,11
 8011640:	02011113          	slli	sp,sp,0x20
 8011644:	0070009b          	addiw	ra,zero,7
 8011648:	02109093          	slli	ra,ra,0x21
 801164c:	00000013          	nop
 8011650:	0220b733          	mulhu	a4,ra,sp
 8011654:	00120213          	addi	tp,tp,1 # 1 <u_mode_trap_table-0x8000003>
 8011658:	00200293          	li	t0,2
 801165c:	fe5210e3          	bne	tp,t0,801163c <test_21+0x4>
 8011660:	09a00e93          	li	t4,154
 8011664:	01500193          	li	gp,21
 8011668:	01d70463          	beq	a4,t4,8011670 <test_22>
 801166c:	28d0006f          	j	80120f8 <fail>

0000000008011670 <test_22>:
  TEST_RR_SRC21_BYPASS( 22, 0, 2, mulhu, 165, 15<<32, 11<<32 );
 8011670:	00000213          	li	tp,0
 8011674:	00b0011b          	addiw	sp,zero,11
 8011678:	02011113          	slli	sp,sp,0x20
 801167c:	00f0009b          	addiw	ra,zero,15
 8011680:	02009093          	slli	ra,ra,0x20
 8011684:	00000013          	nop
 8011688:	00000013          	nop
 801168c:	0220b733          	mulhu	a4,ra,sp
 8011690:	00120213          	addi	tp,tp,1 # 1 <u_mode_trap_table-0x8000003>
 8011694:	00200293          	li	t0,2
 8011698:	fc521ee3          	bne	tp,t0,8011674 <test_22+0x4>
 801169c:	0a500e93          	li	t4,165
 80116a0:	01600193          	li	gp,22
 80116a4:	01d70463          	beq	a4,t4,80116ac <test_23>
 80116a8:	2510006f          	j	80120f8 <fail>

00000000080116ac <test_23>:
  TEST_RR_SRC21_BYPASS( 23, 1, 0, mulhu, 143, 13<<32, 11<<32 );
 80116ac:	00000213          	li	tp,0
 80116b0:	00b0011b          	addiw	sp,zero,11
 80116b4:	02011113          	slli	sp,sp,0x20
 80116b8:	00000013          	nop
 80116bc:	00d0009b          	addiw	ra,zero,13
 80116c0:	02009093          	slli	ra,ra,0x20
 80116c4:	0220b733          	mulhu	a4,ra,sp
 80116c8:	00120213          	addi	tp,tp,1 # 1 <u_mode_trap_table-0x8000003>
 80116cc:	00200293          	li	t0,2
 80116d0:	fe5210e3          	bne	tp,t0,80116b0 <test_23+0x4>
 80116d4:	08f00e93          	li	t4,143
 80116d8:	01700193          	li	gp,23
 80116dc:	01d70463          	beq	a4,t4,80116e4 <test_24>
 80116e0:	2190006f          	j	80120f8 <fail>

00000000080116e4 <test_24>:
  TEST_RR_SRC21_BYPASS( 24, 1, 1, mulhu, 154, 14<<32, 11<<32 );
 80116e4:	00000213          	li	tp,0
 80116e8:	00b0011b          	addiw	sp,zero,11
 80116ec:	02011113          	slli	sp,sp,0x20
 80116f0:	00000013          	nop
 80116f4:	0070009b          	addiw	ra,zero,7
 80116f8:	02109093          	slli	ra,ra,0x21
 80116fc:	00000013          	nop
 8011700:	0220b733          	mulhu	a4,ra,sp
 8011704:	00120213          	addi	tp,tp,1 # 1 <u_mode_trap_table-0x8000003>
 8011708:	00200293          	li	t0,2
 801170c:	fc521ee3          	bne	tp,t0,80116e8 <test_24+0x4>
 8011710:	09a00e93          	li	t4,154
 8011714:	01800193          	li	gp,24
 8011718:	01d70463          	beq	a4,t4,8011720 <test_25>
 801171c:	1dd0006f          	j	80120f8 <fail>

0000000008011720 <test_25>:
  TEST_RR_SRC21_BYPASS( 25, 2, 0, mulhu, 165, 15<<32, 11<<32 );
 8011720:	00000213          	li	tp,0
 8011724:	00b0011b          	addiw	sp,zero,11
 8011728:	02011113          	slli	sp,sp,0x20
 801172c:	00000013          	nop
 8011730:	00000013          	nop
 8011734:	00f0009b          	addiw	ra,zero,15
 8011738:	02009093          	slli	ra,ra,0x20
 801173c:	0220b733          	mulhu	a4,ra,sp
 8011740:	00120213          	addi	tp,tp,1 # 1 <u_mode_trap_table-0x8000003>
 8011744:	00200293          	li	t0,2
 8011748:	fc521ee3          	bne	tp,t0,8011724 <test_25+0x4>
 801174c:	0a500e93          	li	t4,165
 8011750:	01900193          	li	gp,25
 8011754:	01d70463          	beq	a4,t4,801175c <test_26>
 8011758:	1a10006f          	j	80120f8 <fail>

000000000801175c <test_26>:

  TEST_RR_ZEROSRC1( 26, mulhu, 0, 31<<32 );
 801175c:	01f0009b          	addiw	ra,zero,31
 8011760:	02009093          	slli	ra,ra,0x20
 8011764:	02103133          	mulhu	sp,zero,ra
 8011768:	00000e93          	li	t4,0
 801176c:	01a00193          	li	gp,26
 8011770:	01d10463          	beq	sp,t4,8011778 <test_27>
 8011774:	1850006f          	j	80120f8 <fail>

0000000008011778 <test_27>:
  TEST_RR_ZEROSRC2( 27, mulhu, 0, 32<<32 );
 8011778:	0010009b          	addiw	ra,zero,1
 801177c:	02509093          	slli	ra,ra,0x25
 8011780:	0200b133          	mulhu	sp,ra,zero
 8011784:	00000e93          	li	t4,0
 8011788:	01b00193          	li	gp,27
 801178c:	01d10463          	beq	sp,t4,8011794 <test_28>
 8011790:	1690006f          	j	80120f8 <fail>

0000000008011794 <test_28>:
  TEST_RR_ZEROSRC12( 28, mulhu, 0 );
 8011794:	020030b3          	mulhu	ra,zero,zero
 8011798:	00000e93          	li	t4,0
 801179c:	01c00193          	li	gp,28
 80117a0:	01d08463          	beq	ra,t4,80117a8 <test_29>
 80117a4:	1550006f          	j	80120f8 <fail>

00000000080117a8 <test_29>:
  TEST_RR_ZERODEST( 29, mulhu, 33<<32, 34<<32 );
 80117a8:	0210009b          	addiw	ra,zero,33
 80117ac:	02009093          	slli	ra,ra,0x20
 80117b0:	0110011b          	addiw	sp,zero,17
 80117b4:	02111113          	slli	sp,sp,0x21
 80117b8:	0220b033          	mulhu	zero,ra,sp
 80117bc:	00000e93          	li	t4,0
 80117c0:	01d00193          	li	gp,29
 80117c4:	01d00463          	beq	zero,t4,80117cc <test_29+0x24>
 80117c8:	1310006f          	j	80120f8 <fail>

  TEST_PASSFAIL

RVTEST_CODE_END
 80117cc:	c0001073          	unimp

00000000080117d0 <test_2>:

  #-------------------------------------------------------------
  # Arithmetic tests
  #-------------------------------------------------------------

  TEST_RR_OP( 2,  mulh, 0x00000000, 0x00000000, 0x00000000 );
 80117d0:	00000093          	li	ra,0
 80117d4:	00000113          	li	sp,0
 80117d8:	02209733          	mulh	a4,ra,sp
 80117dc:	00000e93          	li	t4,0
 80117e0:	00200193          	li	gp,2
 80117e4:	01d70463          	beq	a4,t4,80117ec <test_3>
 80117e8:	1110006f          	j	80120f8 <fail>

00000000080117ec <test_3>:
  TEST_RR_OP( 3,  mulh, 0x00000000, 0x00000001, 0x00000001 );
 80117ec:	00100093          	li	ra,1
 80117f0:	00100113          	li	sp,1
 80117f4:	02209733          	mulh	a4,ra,sp
 80117f8:	00000e93          	li	t4,0
 80117fc:	00300193          	li	gp,3
 8011800:	01d70463          	beq	a4,t4,8011808 <test_4>
 8011804:	0f50006f          	j	80120f8 <fail>

0000000008011808 <test_4>:
  TEST_RR_OP( 4,  mulh, 0x00000000, 0x00000003, 0x00000007 );
 8011808:	00300093          	li	ra,3
 801180c:	00700113          	li	sp,7
 8011810:	02209733          	mulh	a4,ra,sp
 8011814:	00000e93          	li	t4,0
 8011818:	00400193          	li	gp,4
 801181c:	01d70463          	beq	a4,t4,8011824 <test_5>
 8011820:	0d90006f          	j	80120f8 <fail>

0000000008011824 <test_5>:

  TEST_RR_OP( 5,  mulh, 0x0000000000000000, 0x0000000000000000, 0xffffffffffff8000 );
 8011824:	00000093          	li	ra,0
 8011828:	ffff8137          	lui	sp,0xffff8
 801182c:	02209733          	mulh	a4,ra,sp
 8011830:	00000e93          	li	t4,0
 8011834:	00500193          	li	gp,5
 8011838:	01d70463          	beq	a4,t4,8011840 <test_6>
 801183c:	0bd0006f          	j	80120f8 <fail>

0000000008011840 <test_6>:
  TEST_RR_OP( 6,  mulh, 0x0000000000000000, 0xffffffff80000000, 0x00000000 );
 8011840:	800000b7          	lui	ra,0x80000
 8011844:	00000113          	li	sp,0
 8011848:	02209733          	mulh	a4,ra,sp
 801184c:	00000e93          	li	t4,0
 8011850:	00600193          	li	gp,6
 8011854:	01d70463          	beq	a4,t4,801185c <test_7>
 8011858:	0a10006f          	j	80120f8 <fail>

000000000801185c <test_7>:
  TEST_RR_OP( 7,  mulh, 0x0000000000000000, 0xffffffff80000000, 0xffffffffffff8000 );
 801185c:	800000b7          	lui	ra,0x80000
 8011860:	ffff8137          	lui	sp,0xffff8
 8011864:	02209733          	mulh	a4,ra,sp
 8011868:	00000e93          	li	t4,0
 801186c:	00700193          	li	gp,7
 8011870:	01d70463          	beq	a4,t4,8011878 <test_8>
 8011874:	0850006f          	j	80120f8 <fail>

0000000008011878 <test_8>:

  #-------------------------------------------------------------
  # Source/Destination tests
  #-------------------------------------------------------------

  TEST_RR_SRC1_EQ_DEST( 8, mulh, 143, 13<<32, 11<<32 );
 8011878:	00d0009b          	addiw	ra,zero,13
 801187c:	02009093          	slli	ra,ra,0x20
 8011880:	00b0011b          	addiw	sp,zero,11
 8011884:	02011113          	slli	sp,sp,0x20
 8011888:	022090b3          	mulh	ra,ra,sp
 801188c:	08f00e93          	li	t4,143
 8011890:	00800193          	li	gp,8
 8011894:	01d08463          	beq	ra,t4,801189c <test_9>
 8011898:	0610006f          	j	80120f8 <fail>

000000000801189c <test_9>:
  TEST_RR_SRC2_EQ_DEST( 9, mulh, 154, 14<<32, 11<<32 );
 801189c:	0070009b          	addiw	ra,zero,7
 80118a0:	02109093          	slli	ra,ra,0x21
 80118a4:	00b0011b          	addiw	sp,zero,11
 80118a8:	02011113          	slli	sp,sp,0x20
 80118ac:	02209133          	mulh	sp,ra,sp
 80118b0:	09a00e93          	li	t4,154
 80118b4:	00900193          	li	gp,9
 80118b8:	01d10463          	beq	sp,t4,80118c0 <test_10>
 80118bc:	03d0006f          	j	80120f8 <fail>

00000000080118c0 <test_10>:
  TEST_RR_SRC12_EQ_DEST( 10, mulh, 169, 13<<32 );
 80118c0:	00d0009b          	addiw	ra,zero,13
 80118c4:	02009093          	slli	ra,ra,0x20
 80118c8:	021090b3          	mulh	ra,ra,ra
 80118cc:	0a900e93          	li	t4,169
 80118d0:	00a00193          	li	gp,10
 80118d4:	01d08463          	beq	ra,t4,80118dc <test_11>
 80118d8:	0210006f          	j	80120f8 <fail>

00000000080118dc <test_11>:

  #-------------------------------------------------------------
  # Bypassing tests
  #-------------------------------------------------------------

  TEST_RR_DEST_BYPASS( 11, 0, mulh, 143, 13<<32, 11<<32 );
 80118dc:	00000213          	li	tp,0
 80118e0:	00d0009b          	addiw	ra,zero,13
 80118e4:	02009093          	slli	ra,ra,0x20
 80118e8:	00b0011b          	addiw	sp,zero,11
 80118ec:	02011113          	slli	sp,sp,0x20
 80118f0:	02209733          	mulh	a4,ra,sp
 80118f4:	00070313          	mv	t1,a4
 80118f8:	00120213          	addi	tp,tp,1 # 1 <u_mode_trap_table-0x8000003>
 80118fc:	00200293          	li	t0,2
 8011900:	fe5210e3          	bne	tp,t0,80118e0 <test_11+0x4>
 8011904:	08f00e93          	li	t4,143
 8011908:	00b00193          	li	gp,11
 801190c:	01d30463          	beq	t1,t4,8011914 <test_12>
 8011910:	7e80006f          	j	80120f8 <fail>

0000000008011914 <test_12>:
  TEST_RR_DEST_BYPASS( 12, 1, mulh, 154, 14<<32, 11<<32 );
 8011914:	00000213          	li	tp,0
 8011918:	0070009b          	addiw	ra,zero,7
 801191c:	02109093          	slli	ra,ra,0x21
 8011920:	00b0011b          	addiw	sp,zero,11
 8011924:	02011113          	slli	sp,sp,0x20
 8011928:	02209733          	mulh	a4,ra,sp
 801192c:	00000013          	nop
 8011930:	00070313          	mv	t1,a4
 8011934:	00120213          	addi	tp,tp,1 # 1 <u_mode_trap_table-0x8000003>
 8011938:	00200293          	li	t0,2
 801193c:	fc521ee3          	bne	tp,t0,8011918 <test_12+0x4>
 8011940:	09a00e93          	li	t4,154
 8011944:	00c00193          	li	gp,12
 8011948:	01d30463          	beq	t1,t4,8011950 <test_13>
 801194c:	7ac0006f          	j	80120f8 <fail>

0000000008011950 <test_13>:
  TEST_RR_DEST_BYPASS( 13, 2, mulh, 165, 15<<32, 11<<32 );
 8011950:	00000213          	li	tp,0
 8011954:	00f0009b          	addiw	ra,zero,15
 8011958:	02009093          	slli	ra,ra,0x20
 801195c:	00b0011b          	addiw	sp,zero,11
 8011960:	02011113          	slli	sp,sp,0x20
 8011964:	02209733          	mulh	a4,ra,sp
 8011968:	00000013          	nop
 801196c:	00000013          	nop
 8011970:	00070313          	mv	t1,a4
 8011974:	00120213          	addi	tp,tp,1 # 1 <u_mode_trap_table-0x8000003>
 8011978:	00200293          	li	t0,2
 801197c:	fc521ce3          	bne	tp,t0,8011954 <test_13+0x4>
 8011980:	0a500e93          	li	t4,165
 8011984:	00d00193          	li	gp,13
 8011988:	01d30463          	beq	t1,t4,8011990 <test_14>
 801198c:	76c0006f          	j	80120f8 <fail>

0000000008011990 <test_14>:

  TEST_RR_SRC12_BYPASS( 14, 0, 0, mulh, 143, 13<<32, 11<<32 );
 8011990:	00000213          	li	tp,0
 8011994:	00d0009b          	addiw	ra,zero,13
 8011998:	02009093          	slli	ra,ra,0x20
 801199c:	00b0011b          	addiw	sp,zero,11
 80119a0:	02011113          	slli	sp,sp,0x20
 80119a4:	02209733          	mulh	a4,ra,sp
 80119a8:	00120213          	addi	tp,tp,1 # 1 <u_mode_trap_table-0x8000003>
 80119ac:	00200293          	li	t0,2
 80119b0:	fe5212e3          	bne	tp,t0,8011994 <test_14+0x4>
 80119b4:	08f00e93          	li	t4,143
 80119b8:	00e00193          	li	gp,14
 80119bc:	01d70463          	beq	a4,t4,80119c4 <test_15>
 80119c0:	7380006f          	j	80120f8 <fail>

00000000080119c4 <test_15>:
  TEST_RR_SRC12_BYPASS( 15, 0, 1, mulh, 154, 14<<32, 11<<32 );
 80119c4:	00000213          	li	tp,0
 80119c8:	0070009b          	addiw	ra,zero,7
 80119cc:	02109093          	slli	ra,ra,0x21
 80119d0:	00b0011b          	addiw	sp,zero,11
 80119d4:	02011113          	slli	sp,sp,0x20
 80119d8:	00000013          	nop
 80119dc:	02209733          	mulh	a4,ra,sp
 80119e0:	00120213          	addi	tp,tp,1 # 1 <u_mode_trap_table-0x8000003>
 80119e4:	00200293          	li	t0,2
 80119e8:	fe5210e3          	bne	tp,t0,80119c8 <test_15+0x4>
 80119ec:	09a00e93          	li	t4,154
 80119f0:	00f00193          	li	gp,15
 80119f4:	01d70463          	beq	a4,t4,80119fc <test_16>
 80119f8:	7000006f          	j	80120f8 <fail>

00000000080119fc <test_16>:
  TEST_RR_SRC12_BYPASS( 16, 0, 2, mulh, 165, 15<<32, 11<<32 );
 80119fc:	00000213          	li	tp,0
 8011a00:	00f0009b          	addiw	ra,zero,15
 8011a04:	02009093          	slli	ra,ra,0x20
 8011a08:	00b0011b          	addiw	sp,zero,11
 8011a0c:	02011113          	slli	sp,sp,0x20
 8011a10:	00000013          	nop
 8011a14:	00000013          	nop
 8011a18:	02209733          	mulh	a4,ra,sp
 8011a1c:	00120213          	addi	tp,tp,1 # 1 <u_mode_trap_table-0x8000003>
 8011a20:	00200293          	li	t0,2
 8011a24:	fc521ee3          	bne	tp,t0,8011a00 <test_16+0x4>
 8011a28:	0a500e93          	li	t4,165
 8011a2c:	01000193          	li	gp,16
 8011a30:	01d70463          	beq	a4,t4,8011a38 <test_17>
 8011a34:	6c40006f          	j	80120f8 <fail>

0000000008011a38 <test_17>:
  TEST_RR_SRC12_BYPASS( 17, 1, 0, mulh, 143, 13<<32, 11<<32 );
 8011a38:	00000213          	li	tp,0
 8011a3c:	00d0009b          	addiw	ra,zero,13
 8011a40:	02009093          	slli	ra,ra,0x20
 8011a44:	00000013          	nop
 8011a48:	00b0011b          	addiw	sp,zero,11
 8011a4c:	02011113          	slli	sp,sp,0x20
 8011a50:	02209733          	mulh	a4,ra,sp
 8011a54:	00120213          	addi	tp,tp,1 # 1 <u_mode_trap_table-0x8000003>
 8011a58:	00200293          	li	t0,2
 8011a5c:	fe5210e3          	bne	tp,t0,8011a3c <test_17+0x4>
 8011a60:	08f00e93          	li	t4,143
 8011a64:	01100193          	li	gp,17
 8011a68:	01d70463          	beq	a4,t4,8011a70 <test_18>
 8011a6c:	68c0006f          	j	80120f8 <fail>

0000000008011a70 <test_18>:
  TEST_RR_SRC12_BYPASS( 18, 1, 1, mulh, 154, 14<<32, 11<<32 );
 8011a70:	00000213          	li	tp,0
 8011a74:	0070009b          	addiw	ra,zero,7
 8011a78:	02109093          	slli	ra,ra,0x21
 8011a7c:	00000013          	nop
 8011a80:	00b0011b          	addiw	sp,zero,11
 8011a84:	02011113          	slli	sp,sp,0x20
 8011a88:	00000013          	nop
 8011a8c:	02209733          	mulh	a4,ra,sp
 8011a90:	00120213          	addi	tp,tp,1 # 1 <u_mode_trap_table-0x8000003>
 8011a94:	00200293          	li	t0,2
 8011a98:	fc521ee3          	bne	tp,t0,8011a74 <test_18+0x4>
 8011a9c:	09a00e93          	li	t4,154
 8011aa0:	01200193          	li	gp,18
 8011aa4:	01d70463          	beq	a4,t4,8011aac <test_19>
 8011aa8:	6500006f          	j	80120f8 <fail>

0000000008011aac <test_19>:
  TEST_RR_SRC12_BYPASS( 19, 2, 0, mulh, 165, 15<<32, 11<<32 );
 8011aac:	00000213          	li	tp,0
 8011ab0:	00f0009b          	addiw	ra,zero,15
 8011ab4:	02009093          	slli	ra,ra,0x20
 8011ab8:	00000013          	nop
 8011abc:	00000013          	nop
 8011ac0:	00b0011b          	addiw	sp,zero,11
 8011ac4:	02011113          	slli	sp,sp,0x20
 8011ac8:	02209733          	mulh	a4,ra,sp
 8011acc:	00120213          	addi	tp,tp,1 # 1 <u_mode_trap_table-0x8000003>
 8011ad0:	00200293          	li	t0,2
 8011ad4:	fc521ee3          	bne	tp,t0,8011ab0 <test_19+0x4>
 8011ad8:	0a500e93          	li	t4,165
 8011adc:	01300193          	li	gp,19
 8011ae0:	01d70463          	beq	a4,t4,8011ae8 <test_20>
 8011ae4:	6140006f          	j	80120f8 <fail>

0000000008011ae8 <test_20>:

  TEST_RR_SRC21_BYPASS( 20, 0, 0, mulh, 143, 13<<32, 11<<32 );
 8011ae8:	00000213          	li	tp,0
 8011aec:	00b0011b          	addiw	sp,zero,11
 8011af0:	02011113          	slli	sp,sp,0x20
 8011af4:	00d0009b          	addiw	ra,zero,13
 8011af8:	02009093          	slli	ra,ra,0x20
 8011afc:	02209733          	mulh	a4,ra,sp
 8011b00:	00120213          	addi	tp,tp,1 # 1 <u_mode_trap_table-0x8000003>
 8011b04:	00200293          	li	t0,2
 8011b08:	fe5212e3          	bne	tp,t0,8011aec <test_20+0x4>
 8011b0c:	08f00e93          	li	t4,143
 8011b10:	01400193          	li	gp,20
 8011b14:	01d70463          	beq	a4,t4,8011b1c <test_21>
 8011b18:	5e00006f          	j	80120f8 <fail>

0000000008011b1c <test_21>:
  TEST_RR_SRC21_BYPASS( 21, 0, 1, mulh, 154, 14<<32, 11<<32 );
 8011b1c:	00000213          	li	tp,0
 8011b20:	00b0011b          	addiw	sp,zero,11
 8011b24:	02011113          	slli	sp,sp,0x20
 8011b28:	0070009b          	addiw	ra,zero,7
 8011b2c:	02109093          	slli	ra,ra,0x21
 8011b30:	00000013          	nop
 8011b34:	02209733          	mulh	a4,ra,sp
 8011b38:	00120213          	addi	tp,tp,1 # 1 <u_mode_trap_table-0x8000003>
 8011b3c:	00200293          	li	t0,2
 8011b40:	fe5210e3          	bne	tp,t0,8011b20 <test_21+0x4>
 8011b44:	09a00e93          	li	t4,154
 8011b48:	01500193          	li	gp,21
 8011b4c:	01d70463          	beq	a4,t4,8011b54 <test_22>
 8011b50:	5a80006f          	j	80120f8 <fail>

0000000008011b54 <test_22>:
  TEST_RR_SRC21_BYPASS( 22, 0, 2, mulh, 165, 15<<32, 11<<32 );
 8011b54:	00000213          	li	tp,0
 8011b58:	00b0011b          	addiw	sp,zero,11
 8011b5c:	02011113          	slli	sp,sp,0x20
 8011b60:	00f0009b          	addiw	ra,zero,15
 8011b64:	02009093          	slli	ra,ra,0x20
 8011b68:	00000013          	nop
 8011b6c:	00000013          	nop
 8011b70:	02209733          	mulh	a4,ra,sp
 8011b74:	00120213          	addi	tp,tp,1 # 1 <u_mode_trap_table-0x8000003>
 8011b78:	00200293          	li	t0,2
 8011b7c:	fc521ee3          	bne	tp,t0,8011b58 <test_22+0x4>
 8011b80:	0a500e93          	li	t4,165
 8011b84:	01600193          	li	gp,22
 8011b88:	01d70463          	beq	a4,t4,8011b90 <test_23>
 8011b8c:	56c0006f          	j	80120f8 <fail>

0000000008011b90 <test_23>:
  TEST_RR_SRC21_BYPASS( 23, 1, 0, mulh, 143, 13<<32, 11<<32 );
 8011b90:	00000213          	li	tp,0
 8011b94:	00b0011b          	addiw	sp,zero,11
 8011b98:	02011113          	slli	sp,sp,0x20
 8011b9c:	00000013          	nop
 8011ba0:	00d0009b          	addiw	ra,zero,13
 8011ba4:	02009093          	slli	ra,ra,0x20
 8011ba8:	02209733          	mulh	a4,ra,sp
 8011bac:	00120213          	addi	tp,tp,1 # 1 <u_mode_trap_table-0x8000003>
 8011bb0:	00200293          	li	t0,2
 8011bb4:	fe5210e3          	bne	tp,t0,8011b94 <test_23+0x4>
 8011bb8:	08f00e93          	li	t4,143
 8011bbc:	01700193          	li	gp,23
 8011bc0:	01d70463          	beq	a4,t4,8011bc8 <test_24>
 8011bc4:	5340006f          	j	80120f8 <fail>

0000000008011bc8 <test_24>:
  TEST_RR_SRC21_BYPASS( 24, 1, 1, mulh, 154, 14<<32, 11<<32 );
 8011bc8:	00000213          	li	tp,0
 8011bcc:	00b0011b          	addiw	sp,zero,11
 8011bd0:	02011113          	slli	sp,sp,0x20
 8011bd4:	00000013          	nop
 8011bd8:	0070009b          	addiw	ra,zero,7
 8011bdc:	02109093          	slli	ra,ra,0x21
 8011be0:	00000013          	nop
 8011be4:	02209733          	mulh	a4,ra,sp
 8011be8:	00120213          	addi	tp,tp,1 # 1 <u_mode_trap_table-0x8000003>
 8011bec:	00200293          	li	t0,2
 8011bf0:	fc521ee3          	bne	tp,t0,8011bcc <test_24+0x4>
 8011bf4:	09a00e93          	li	t4,154
 8011bf8:	01800193          	li	gp,24
 8011bfc:	01d70463          	beq	a4,t4,8011c04 <test_25>
 8011c00:	4f80006f          	j	80120f8 <fail>

0000000008011c04 <test_25>:
  TEST_RR_SRC21_BYPASS( 25, 2, 0, mulh, 165, 15<<32, 11<<32 );
 8011c04:	00000213          	li	tp,0
 8011c08:	00b0011b          	addiw	sp,zero,11
 8011c0c:	02011113          	slli	sp,sp,0x20
 8011c10:	00000013          	nop
 8011c14:	00000013          	nop
 8011c18:	00f0009b          	addiw	ra,zero,15
 8011c1c:	02009093          	slli	ra,ra,0x20
 8011c20:	02209733          	mulh	a4,ra,sp
 8011c24:	00120213          	addi	tp,tp,1 # 1 <u_mode_trap_table-0x8000003>
 8011c28:	00200293          	li	t0,2
 8011c2c:	fc521ee3          	bne	tp,t0,8011c08 <test_25+0x4>
 8011c30:	0a500e93          	li	t4,165
 8011c34:	01900193          	li	gp,25
 8011c38:	01d70463          	beq	a4,t4,8011c40 <test_26>
 8011c3c:	4bc0006f          	j	80120f8 <fail>

0000000008011c40 <test_26>:

  TEST_RR_ZEROSRC1( 26, mulh, 0, 31<<32 );
 8011c40:	01f0009b          	addiw	ra,zero,31
 8011c44:	02009093          	slli	ra,ra,0x20
 8011c48:	02101133          	mulh	sp,zero,ra
 8011c4c:	00000e93          	li	t4,0
 8011c50:	01a00193          	li	gp,26
 8011c54:	01d10463          	beq	sp,t4,8011c5c <test_27>
 8011c58:	4a00006f          	j	80120f8 <fail>

0000000008011c5c <test_27>:
  TEST_RR_ZEROSRC2( 27, mulh, 0, 32<<32 );
 8011c5c:	0010009b          	addiw	ra,zero,1
 8011c60:	02509093          	slli	ra,ra,0x25
 8011c64:	02009133          	mulh	sp,ra,zero
 8011c68:	00000e93          	li	t4,0
 8011c6c:	01b00193          	li	gp,27
 8011c70:	01d10463          	beq	sp,t4,8011c78 <test_28>
 8011c74:	4840006f          	j	80120f8 <fail>

0000000008011c78 <test_28>:
  TEST_RR_ZEROSRC12( 28, mulh, 0 );
 8011c78:	020010b3          	mulh	ra,zero,zero
 8011c7c:	00000e93          	li	t4,0
 8011c80:	01c00193          	li	gp,28
 8011c84:	01d08463          	beq	ra,t4,8011c8c <test_29>
 8011c88:	4700006f          	j	80120f8 <fail>

0000000008011c8c <test_29>:
  TEST_RR_ZERODEST( 29, mulh, 33<<32, 34<<32 );
 8011c8c:	0210009b          	addiw	ra,zero,33
 8011c90:	02009093          	slli	ra,ra,0x20
 8011c94:	0110011b          	addiw	sp,zero,17
 8011c98:	02111113          	slli	sp,sp,0x21
 8011c9c:	02209033          	mulh	zero,ra,sp
 8011ca0:	00000e93          	li	t4,0
 8011ca4:	01d00193          	li	gp,29
 8011ca8:	01d00463          	beq	zero,t4,8011cb0 <test_29+0x24>
 8011cac:	44c0006f          	j	80120f8 <fail>

  TEST_PASSFAIL

RVTEST_CODE_END
 8011cb0:	c0001073          	unimp

0000000008011cb4 <test_2>:

  #-------------------------------------------------------------
  # Arithmetic tests
  #-------------------------------------------------------------

  TEST_RR_OP( 2, rem,  2,  20,   6 );
 8011cb4:	01400093          	li	ra,20
 8011cb8:	00600113          	li	sp,6
 8011cbc:	0220e733          	rem	a4,ra,sp
 8011cc0:	00200e93          	li	t4,2
 8011cc4:	00200193          	li	gp,2
 8011cc8:	01d70463          	beq	a4,t4,8011cd0 <test_3>
 8011ccc:	42c0006f          	j	80120f8 <fail>

0000000008011cd0 <test_3>:
  TEST_RR_OP( 3, rem, -2, -20,   6 );
 8011cd0:	fec00093          	li	ra,-20
 8011cd4:	00600113          	li	sp,6
 8011cd8:	0220e733          	rem	a4,ra,sp
 8011cdc:	ffe00e93          	li	t4,-2
 8011ce0:	00300193          	li	gp,3
 8011ce4:	01d70463          	beq	a4,t4,8011cec <test_4>
 8011ce8:	4100006f          	j	80120f8 <fail>

0000000008011cec <test_4>:
  TEST_RR_OP( 4, rem,  2,  20,  -6 );
 8011cec:	01400093          	li	ra,20
 8011cf0:	ffa00113          	li	sp,-6
 8011cf4:	0220e733          	rem	a4,ra,sp
 8011cf8:	00200e93          	li	t4,2
 8011cfc:	00400193          	li	gp,4
 8011d00:	01d70463          	beq	a4,t4,8011d08 <test_5>
 8011d04:	3f40006f          	j	80120f8 <fail>

0000000008011d08 <test_5>:
  TEST_RR_OP( 5, rem, -2, -20,  -6 );
 8011d08:	fec00093          	li	ra,-20
 8011d0c:	ffa00113          	li	sp,-6
 8011d10:	0220e733          	rem	a4,ra,sp
 8011d14:	ffe00e93          	li	t4,-2
 8011d18:	00500193          	li	gp,5
 8011d1c:	01d70463          	beq	a4,t4,8011d24 <test_6>
 8011d20:	3d80006f          	j	80120f8 <fail>

0000000008011d24 <test_6>:

  TEST_RR_OP( 6, rem,  0, -1<<63,  1 );
 8011d24:	fff0009b          	addiw	ra,zero,-1
 8011d28:	03f09093          	slli	ra,ra,0x3f
 8011d2c:	00100113          	li	sp,1
 8011d30:	0220e733          	rem	a4,ra,sp
 8011d34:	00000e93          	li	t4,0
 8011d38:	00600193          	li	gp,6
 8011d3c:	01d70463          	beq	a4,t4,8011d44 <test_7>
 8011d40:	3b80006f          	j	80120f8 <fail>

0000000008011d44 <test_7>:
  TEST_RR_OP( 7, rem,  0, -1<<63, -1 );
 8011d44:	fff0009b          	addiw	ra,zero,-1
 8011d48:	03f09093          	slli	ra,ra,0x3f
 8011d4c:	fff00113          	li	sp,-1
 8011d50:	0220e733          	rem	a4,ra,sp
 8011d54:	00000e93          	li	t4,0
 8011d58:	00700193          	li	gp,7
 8011d5c:	01d70463          	beq	a4,t4,8011d64 <test_8>
 8011d60:	3980006f          	j	80120f8 <fail>

0000000008011d64 <test_8>:

  TEST_RR_OP( 8, rem, -1<<63, -1<<63, 0 );
 8011d64:	fff0009b          	addiw	ra,zero,-1
 8011d68:	03f09093          	slli	ra,ra,0x3f
 8011d6c:	00000113          	li	sp,0
 8011d70:	0220e733          	rem	a4,ra,sp
 8011d74:	fff00e9b          	addiw	t4,zero,-1
 8011d78:	03fe9e93          	slli	t4,t4,0x3f
 8011d7c:	00800193          	li	gp,8
 8011d80:	01d70463          	beq	a4,t4,8011d88 <test_9>
 8011d84:	3740006f          	j	80120f8 <fail>

0000000008011d88 <test_9>:
  TEST_RR_OP( 9, rem,      1,      1, 0 );
 8011d88:	00100093          	li	ra,1
 8011d8c:	00000113          	li	sp,0
 8011d90:	0220e733          	rem	a4,ra,sp
 8011d94:	00100e93          	li	t4,1
 8011d98:	00900193          	li	gp,9
 8011d9c:	01d70463          	beq	a4,t4,8011da4 <test_10>
 8011da0:	3580006f          	j	80120f8 <fail>

0000000008011da4 <test_10>:
  TEST_RR_OP(10, rem,      0,      0, 0 );
 8011da4:	00000093          	li	ra,0
 8011da8:	00000113          	li	sp,0
 8011dac:	0220e733          	rem	a4,ra,sp
 8011db0:	00000e93          	li	t4,0
 8011db4:	00a00193          	li	gp,10
 8011db8:	01d70463          	beq	a4,t4,8011dc0 <test_10+0x1c>
 8011dbc:	33c0006f          	j	80120f8 <fail>

  TEST_PASSFAIL

RVTEST_CODE_END
 8011dc0:	c0001073          	unimp

0000000008011dc4 <test_2>:

  #-------------------------------------------------------------
  # Arithmetic tests
  #-------------------------------------------------------------

  TEST_RR_OP( 2, remu,   2,  20,   6 );
 8011dc4:	01400093          	li	ra,20
 8011dc8:	00600113          	li	sp,6
 8011dcc:	0220f733          	remu	a4,ra,sp
 8011dd0:	00200e93          	li	t4,2
 8011dd4:	00200193          	li	gp,2
 8011dd8:	01d70463          	beq	a4,t4,8011de0 <test_3>
 8011ddc:	31c0006f          	j	80120f8 <fail>

0000000008011de0 <test_3>:
  TEST_RR_OP( 3, remu,   2, -20,   6 );
 8011de0:	fec00093          	li	ra,-20
 8011de4:	00600113          	li	sp,6
 8011de8:	0220f733          	remu	a4,ra,sp
 8011dec:	00200e93          	li	t4,2
 8011df0:	00300193          	li	gp,3
 8011df4:	01d70463          	beq	a4,t4,8011dfc <test_4>
 8011df8:	3000006f          	j	80120f8 <fail>

0000000008011dfc <test_4>:
  TEST_RR_OP( 4, remu,  20,  20,  -6 );
 8011dfc:	01400093          	li	ra,20
 8011e00:	ffa00113          	li	sp,-6
 8011e04:	0220f733          	remu	a4,ra,sp
 8011e08:	01400e93          	li	t4,20
 8011e0c:	00400193          	li	gp,4
 8011e10:	01d70463          	beq	a4,t4,8011e18 <test_5>
 8011e14:	2e40006f          	j	80120f8 <fail>

0000000008011e18 <test_5>:
  TEST_RR_OP( 5, remu, -20, -20,  -6 );
 8011e18:	fec00093          	li	ra,-20
 8011e1c:	ffa00113          	li	sp,-6
 8011e20:	0220f733          	remu	a4,ra,sp
 8011e24:	fec00e93          	li	t4,-20
 8011e28:	00500193          	li	gp,5
 8011e2c:	01d70463          	beq	a4,t4,8011e34 <test_6>
 8011e30:	2c80006f          	j	80120f8 <fail>

0000000008011e34 <test_6>:

  TEST_RR_OP( 6, remu,      0, -1<<63,  1 );
 8011e34:	fff0009b          	addiw	ra,zero,-1
 8011e38:	03f09093          	slli	ra,ra,0x3f
 8011e3c:	00100113          	li	sp,1
 8011e40:	0220f733          	remu	a4,ra,sp
 8011e44:	00000e93          	li	t4,0
 8011e48:	00600193          	li	gp,6
 8011e4c:	01d70463          	beq	a4,t4,8011e54 <test_7>
 8011e50:	2a80006f          	j	80120f8 <fail>

0000000008011e54 <test_7>:
  TEST_RR_OP( 7, remu, -1<<63, -1<<63, -1 );
 8011e54:	fff0009b          	addiw	ra,zero,-1
 8011e58:	03f09093          	slli	ra,ra,0x3f
 8011e5c:	fff00113          	li	sp,-1
 8011e60:	0220f733          	remu	a4,ra,sp
 8011e64:	fff00e9b          	addiw	t4,zero,-1
 8011e68:	03fe9e93          	slli	t4,t4,0x3f
 8011e6c:	00700193          	li	gp,7
 8011e70:	01d70463          	beq	a4,t4,8011e78 <test_8>
 8011e74:	2840006f          	j	80120f8 <fail>

0000000008011e78 <test_8>:

  TEST_RR_OP( 8, remu, -1<<63, -1<<63, 0 );
 8011e78:	fff0009b          	addiw	ra,zero,-1
 8011e7c:	03f09093          	slli	ra,ra,0x3f
 8011e80:	00000113          	li	sp,0
 8011e84:	0220f733          	remu	a4,ra,sp
 8011e88:	fff00e9b          	addiw	t4,zero,-1
 8011e8c:	03fe9e93          	slli	t4,t4,0x3f
 8011e90:	00800193          	li	gp,8
 8011e94:	01d70463          	beq	a4,t4,8011e9c <test_9>
 8011e98:	2600006f          	j	80120f8 <fail>

0000000008011e9c <test_9>:
  TEST_RR_OP( 9, remu,      1,      1, 0 );
 8011e9c:	00100093          	li	ra,1
 8011ea0:	00000113          	li	sp,0
 8011ea4:	0220f733          	remu	a4,ra,sp
 8011ea8:	00100e93          	li	t4,1
 8011eac:	00900193          	li	gp,9
 8011eb0:	01d70463          	beq	a4,t4,8011eb8 <test_10>
 8011eb4:	2440006f          	j	80120f8 <fail>

0000000008011eb8 <test_10>:
  TEST_RR_OP(10, remu,      0,      0, 0 );
 8011eb8:	00000093          	li	ra,0
 8011ebc:	00000113          	li	sp,0
 8011ec0:	0220f733          	remu	a4,ra,sp
 8011ec4:	00000e93          	li	t4,0
 8011ec8:	00a00193          	li	gp,10
 8011ecc:	01d70463          	beq	a4,t4,8011ed4 <test_10+0x1c>
 8011ed0:	2280006f          	j	80120f8 <fail>

  TEST_PASSFAIL

RVTEST_CODE_END
 8011ed4:	c0001073          	unimp

0000000008011ed8 <test_2>:

  #-------------------------------------------------------------
  # Arithmetic tests
  #-------------------------------------------------------------

  TEST_RR_OP( 2, remuw,   2,  20,   6 );
 8011ed8:	01400093          	li	ra,20
 8011edc:	00600113          	li	sp,6
 8011ee0:	0220f73b          	remuw	a4,ra,sp
 8011ee4:	00200e93          	li	t4,2
 8011ee8:	00200193          	li	gp,2
 8011eec:	01d70463          	beq	a4,t4,8011ef4 <test_3>
 8011ef0:	2080006f          	j	80120f8 <fail>

0000000008011ef4 <test_3>:
  TEST_RR_OP( 3, remuw,   2, -20,   6 );
 8011ef4:	fec00093          	li	ra,-20
 8011ef8:	00600113          	li	sp,6
 8011efc:	0220f73b          	remuw	a4,ra,sp
 8011f00:	00200e93          	li	t4,2
 8011f04:	00300193          	li	gp,3
 8011f08:	01d70463          	beq	a4,t4,8011f10 <test_4>
 8011f0c:	1ec0006f          	j	80120f8 <fail>

0000000008011f10 <test_4>:
  TEST_RR_OP( 4, remuw,  20,  20,  -6 );
 8011f10:	01400093          	li	ra,20
 8011f14:	ffa00113          	li	sp,-6
 8011f18:	0220f73b          	remuw	a4,ra,sp
 8011f1c:	01400e93          	li	t4,20
 8011f20:	00400193          	li	gp,4
 8011f24:	01d70463          	beq	a4,t4,8011f2c <test_5>
 8011f28:	1d00006f          	j	80120f8 <fail>

0000000008011f2c <test_5>:
  TEST_RR_OP( 5, remuw, -20, -20,  -6 );
 8011f2c:	fec00093          	li	ra,-20
 8011f30:	ffa00113          	li	sp,-6
 8011f34:	0220f73b          	remuw	a4,ra,sp
 8011f38:	fec00e93          	li	t4,-20
 8011f3c:	00500193          	li	gp,5
 8011f40:	01d70463          	beq	a4,t4,8011f48 <test_6>
 8011f44:	1b40006f          	j	80120f8 <fail>

0000000008011f48 <test_6>:

  TEST_RR_OP( 6, remuw,      0, -1<<31,  1 );
 8011f48:	800000b7          	lui	ra,0x80000
 8011f4c:	00100113          	li	sp,1
 8011f50:	0220f73b          	remuw	a4,ra,sp
 8011f54:	00000e93          	li	t4,0
 8011f58:	00600193          	li	gp,6
 8011f5c:	01d70463          	beq	a4,t4,8011f64 <test_7>
 8011f60:	1980006f          	j	80120f8 <fail>

0000000008011f64 <test_7>:
  TEST_RR_OP( 7, remuw, -1<<31, -1<<31, -1 );
 8011f64:	800000b7          	lui	ra,0x80000
 8011f68:	fff00113          	li	sp,-1
 8011f6c:	0220f73b          	remuw	a4,ra,sp
 8011f70:	80000eb7          	lui	t4,0x80000
 8011f74:	00700193          	li	gp,7
 8011f78:	01d70463          	beq	a4,t4,8011f80 <test_8>
 8011f7c:	17c0006f          	j	80120f8 <fail>

0000000008011f80 <test_8>:

  TEST_RR_OP( 8, remuw, -1<<31, -1<<31, 0 );
 8011f80:	800000b7          	lui	ra,0x80000
 8011f84:	00000113          	li	sp,0
 8011f88:	0220f73b          	remuw	a4,ra,sp
 8011f8c:	80000eb7          	lui	t4,0x80000
 8011f90:	00800193          	li	gp,8
 8011f94:	01d70463          	beq	a4,t4,8011f9c <test_9>
 8011f98:	1600006f          	j	80120f8 <fail>

0000000008011f9c <test_9>:
  TEST_RR_OP( 9, remuw,      1,      1, 0 );
 8011f9c:	00100093          	li	ra,1
 8011fa0:	00000113          	li	sp,0
 8011fa4:	0220f73b          	remuw	a4,ra,sp
 8011fa8:	00100e93          	li	t4,1
 8011fac:	00900193          	li	gp,9
 8011fb0:	01d70463          	beq	a4,t4,8011fb8 <test_10>
 8011fb4:	1440006f          	j	80120f8 <fail>

0000000008011fb8 <test_10>:
  TEST_RR_OP(10, remuw,      0,      0, 0 );
 8011fb8:	00000093          	li	ra,0
 8011fbc:	00000113          	li	sp,0
 8011fc0:	0220f73b          	remuw	a4,ra,sp
 8011fc4:	00000e93          	li	t4,0
 8011fc8:	00a00193          	li	gp,10
 8011fcc:	01d70463          	beq	a4,t4,8011fd4 <test_10+0x1c>
 8011fd0:	1280006f          	j	80120f8 <fail>

  TEST_PASSFAIL

RVTEST_CODE_END
 8011fd4:	c0001073          	unimp

0000000008011fd8 <test_2>:

  #-------------------------------------------------------------
  # Arithmetic tests
  #-------------------------------------------------------------

  TEST_RR_OP( 2, remw,  2,  20,   6 );
 8011fd8:	01400093          	li	ra,20
 8011fdc:	00600113          	li	sp,6
 8011fe0:	0220e73b          	remw	a4,ra,sp
 8011fe4:	00200e93          	li	t4,2
 8011fe8:	00200193          	li	gp,2
 8011fec:	01d70463          	beq	a4,t4,8011ff4 <test_3>
 8011ff0:	1080006f          	j	80120f8 <fail>

0000000008011ff4 <test_3>:
  TEST_RR_OP( 3, remw, -2, -20,   6 );
 8011ff4:	fec00093          	li	ra,-20
 8011ff8:	00600113          	li	sp,6
 8011ffc:	0220e73b          	remw	a4,ra,sp
 8012000:	ffe00e93          	li	t4,-2
 8012004:	00300193          	li	gp,3
 8012008:	01d70463          	beq	a4,t4,8012010 <test_4>
 801200c:	0ec0006f          	j	80120f8 <fail>

0000000008012010 <test_4>:
  TEST_RR_OP( 4, remw,  2,  20,  -6 );
 8012010:	01400093          	li	ra,20
 8012014:	ffa00113          	li	sp,-6
 8012018:	0220e73b          	remw	a4,ra,sp
 801201c:	00200e93          	li	t4,2
 8012020:	00400193          	li	gp,4
 8012024:	01d70463          	beq	a4,t4,801202c <test_5>
 8012028:	0d00006f          	j	80120f8 <fail>

000000000801202c <test_5>:
  TEST_RR_OP( 5, remw, -2, -20,  -6 );
 801202c:	fec00093          	li	ra,-20
 8012030:	ffa00113          	li	sp,-6
 8012034:	0220e73b          	remw	a4,ra,sp
 8012038:	ffe00e93          	li	t4,-2
 801203c:	00500193          	li	gp,5
 8012040:	01d70463          	beq	a4,t4,8012048 <test_6>
 8012044:	0b40006f          	j	80120f8 <fail>

0000000008012048 <test_6>:

  TEST_RR_OP( 6, remw,  0, -1<<31,  1 );
 8012048:	800000b7          	lui	ra,0x80000
 801204c:	00100113          	li	sp,1
 8012050:	0220e73b          	remw	a4,ra,sp
 8012054:	00000e93          	li	t4,0
 8012058:	00600193          	li	gp,6
 801205c:	01d70463          	beq	a4,t4,8012064 <test_7>
 8012060:	0980006f          	j	80120f8 <fail>

0000000008012064 <test_7>:
  TEST_RR_OP( 7, remw,  0, -1<<31, -1 );
 8012064:	800000b7          	lui	ra,0x80000
 8012068:	fff00113          	li	sp,-1
 801206c:	0220e73b          	remw	a4,ra,sp
 8012070:	00000e93          	li	t4,0
 8012074:	00700193          	li	gp,7
 8012078:	01d70463          	beq	a4,t4,8012080 <test_8>
 801207c:	07c0006f          	j	80120f8 <fail>

0000000008012080 <test_8>:

  TEST_RR_OP( 8, remw, -1<<31, -1<<31, 0 );
 8012080:	800000b7          	lui	ra,0x80000
 8012084:	00000113          	li	sp,0
 8012088:	0220e73b          	remw	a4,ra,sp
 801208c:	80000eb7          	lui	t4,0x80000
 8012090:	00800193          	li	gp,8
 8012094:	01d70463          	beq	a4,t4,801209c <test_9>
 8012098:	0600006f          	j	80120f8 <fail>

000000000801209c <test_9>:
  TEST_RR_OP( 9, remw,      1,      1, 0 );
 801209c:	00100093          	li	ra,1
 80120a0:	00000113          	li	sp,0
 80120a4:	0220e73b          	remw	a4,ra,sp
 80120a8:	00100e93          	li	t4,1
 80120ac:	00900193          	li	gp,9
 80120b0:	01d70463          	beq	a4,t4,80120b8 <test_10>
 80120b4:	0440006f          	j	80120f8 <fail>

00000000080120b8 <test_10>:
  TEST_RR_OP(10, remw,      0,      0, 0 );
 80120b8:	00000093          	li	ra,0
 80120bc:	00000113          	li	sp,0
 80120c0:	0220e73b          	remw	a4,ra,sp
 80120c4:	00000e93          	li	t4,0
 80120c8:	00a00193          	li	gp,10
 80120cc:	01d70463          	beq	a4,t4,80120d4 <test_11>
 80120d0:	0280006f          	j	80120f8 <fail>

00000000080120d4 <test_11>:
  TEST_RR_OP(11, remw, 0xfffffffffffff897,0xfffffffffffff897, 0 );
 80120d4:	89700093          	li	ra,-1897
 80120d8:	00000113          	li	sp,0
 80120dc:	0220e73b          	remw	a4,ra,sp
 80120e0:	89700e93          	li	t4,-1897
 80120e4:	00b00193          	li	gp,11
 80120e8:	01d70463          	beq	a4,t4,80120f0 <test_11+0x1c>
 80120ec:	00c0006f          	j	80120f8 <fail>

  TEST_PASSFAIL

RVTEST_CODE_END
 80120f0:	c0001073          	unimp
#include "test_macros.h"

  .globl pass;
  .globl fail;

  TEST_PASSFAIL__
 80120f4:	02301063          	bne	zero,gp,8012114 <pass>

00000000080120f8 <fail>:
 80120f8:	0ff0000f          	fence
 80120fc:	00018063          	beqz	gp,80120fc <fail+0x4>
 8012100:	00119193          	slli	gp,gp,0x1
 8012104:	0011e193          	ori	gp,gp,1
 8012108:	05d00893          	li	a7,93
 801210c:	00018513          	mv	a0,gp
 8012110:	00000073          	ecall

0000000008012114 <pass>:
 8012114:	0ff0000f          	fence
 8012118:	00100193          	li	gp,1
 801211c:	05d00893          	li	a7,93
 8012120:	00000513          	li	a0,0
 8012124:	00000073          	ecall

0000000008012128 <get_dev_bar>:
    uint64_t fwdbg3;            /// 0xfffff038: RW: FW debug register 3
    uint8_t cfg_table[(1 << 12) - 0x40];/// 0xfffff040: RO: PNP configuration
} pnp_map;


static uint64_t get_dev_bar(pnp_map *pnp, uint16_t vid, uint16_t did) {
 8012128:	fb010113          	addi	sp,sp,-80 # ffffffffffff7fb0 <_end+0xfffffffff7fe4950>
 801212c:	04813423          	sd	s0,72(sp)
 8012130:	05010413          	addi	s0,sp,80
 8012134:	faa43c23          	sd	a0,-72(s0) # fb8 <u_mode_trap_table-0x7fff04c>
 8012138:	00058793          	mv	a5,a1
 801213c:	00060713          	mv	a4,a2
 8012140:	faf41b23          	sh	a5,-74(s0)
 8012144:	00070793          	mv	a5,a4
 8012148:	faf41a23          	sh	a5,-76(s0)
    master_cfg_type mcfg;
    slave_cfg_type scfg;
    int slv_total = (pnp->cfg >> 8) & 0xFF;
 801214c:	fb843783          	ld	a5,-72(s0)
 8012150:	0087a783          	lw	a5,8(a5)
 8012154:	0087d79b          	srliw	a5,a5,0x8
 8012158:	0007879b          	sext.w	a5,a5
 801215c:	0007879b          	sext.w	a5,a5
 8012160:	0ff7f793          	andi	a5,a5,255
 8012164:	fef42023          	sw	a5,-32(s0)
    int mst_total = (pnp->cfg >> 16) & 0xFF;
 8012168:	fb843783          	ld	a5,-72(s0)
 801216c:	0087a783          	lw	a5,8(a5)
 8012170:	0107d79b          	srliw	a5,a5,0x10
 8012174:	0007879b          	sext.w	a5,a5
 8012178:	0007879b          	sext.w	a5,a5
 801217c:	0ff7f793          	andi	a5,a5,255
 8012180:	fcf42e23          	sw	a5,-36(s0)
    int off = 0;
 8012184:	fe042623          	sw	zero,-20(s0)

    // skip all masters
    for (int i = 0; i < mst_total; i++) {
 8012188:	fe042423          	sw	zero,-24(s0)
 801218c:	0480006f          	j	80121d4 <get_dev_bar+0xac>
        mcfg.v[0] = *(uint64_t *)&pnp->cfg_table[off];
 8012190:	fec42783          	lw	a5,-20(s0)
 8012194:	04078793          	addi	a5,a5,64
 8012198:	fb843703          	ld	a4,-72(s0)
 801219c:	00f707b3          	add	a5,a4,a5
 80121a0:	0007b783          	ld	a5,0(a5)
 80121a4:	fcf43823          	sd	a5,-48(s0)
        off += pnp->cfg_table[off];
 80121a8:	fb843703          	ld	a4,-72(s0)
 80121ac:	fec42783          	lw	a5,-20(s0)
 80121b0:	00f707b3          	add	a5,a4,a5
 80121b4:	0407c783          	lbu	a5,64(a5)
 80121b8:	0007879b          	sext.w	a5,a5
 80121bc:	fec42703          	lw	a4,-20(s0)
 80121c0:	00f707bb          	addw	a5,a4,a5
 80121c4:	fef42623          	sw	a5,-20(s0)
    for (int i = 0; i < mst_total; i++) {
 80121c8:	fe842783          	lw	a5,-24(s0)
 80121cc:	0017879b          	addiw	a5,a5,1
 80121d0:	fef42423          	sw	a5,-24(s0)
 80121d4:	fe842703          	lw	a4,-24(s0)
 80121d8:	fdc42783          	lw	a5,-36(s0)
 80121dc:	0007071b          	sext.w	a4,a4
 80121e0:	0007879b          	sext.w	a5,a5
 80121e4:	faf746e3          	blt	a4,a5,8012190 <get_dev_bar+0x68>
    }

    for (int i = 0; i < slv_total; i++) {
 80121e8:	fe042223          	sw	zero,-28(s0)
 80121ec:	0a00006f          	j	801228c <get_dev_bar+0x164>
        scfg.v[0] = *(uint64_t *)&pnp->cfg_table[off];
 80121f0:	fec42783          	lw	a5,-20(s0)
 80121f4:	04078793          	addi	a5,a5,64
 80121f8:	fb843703          	ld	a4,-72(s0)
 80121fc:	00f707b3          	add	a5,a4,a5
 8012200:	0007b783          	ld	a5,0(a5)
 8012204:	fcf43023          	sd	a5,-64(s0)
        scfg.v[1] = *(uint64_t *)&pnp->cfg_table[off + 8];
 8012208:	fec42783          	lw	a5,-20(s0)
 801220c:	0087879b          	addiw	a5,a5,8
 8012210:	0007879b          	sext.w	a5,a5
 8012214:	04078793          	addi	a5,a5,64
 8012218:	fb843703          	ld	a4,-72(s0)
 801221c:	00f707b3          	add	a5,a4,a5
 8012220:	0007b783          	ld	a5,0(a5)
 8012224:	fcf43423          	sd	a5,-56(s0)

        if (scfg.u.vid == vid && scfg.u.did == did) {
 8012228:	fc645783          	lhu	a5,-58(s0)
 801222c:	fb645703          	lhu	a4,-74(s0)
 8012230:	0007071b          	sext.w	a4,a4
 8012234:	0007879b          	sext.w	a5,a5
 8012238:	02f71463          	bne	a4,a5,8012260 <get_dev_bar+0x138>
 801223c:	fc445783          	lhu	a5,-60(s0)
 8012240:	fb445703          	lhu	a4,-76(s0)
 8012244:	0007071b          	sext.w	a4,a4
 8012248:	0007879b          	sext.w	a5,a5
 801224c:	00f71a63          	bne	a4,a5,8012260 <get_dev_bar+0x138>
            return scfg.u.xaddr;
 8012250:	fcc42783          	lw	a5,-52(s0)
 8012254:	02079793          	slli	a5,a5,0x20
 8012258:	0207d793          	srli	a5,a5,0x20
 801225c:	0480006f          	j	80122a4 <get_dev_bar+0x17c>
        }
        off += pnp->cfg_table[off];
 8012260:	fb843703          	ld	a4,-72(s0)
 8012264:	fec42783          	lw	a5,-20(s0)
 8012268:	00f707b3          	add	a5,a4,a5
 801226c:	0407c783          	lbu	a5,64(a5)
 8012270:	0007879b          	sext.w	a5,a5
 8012274:	fec42703          	lw	a4,-20(s0)
 8012278:	00f707bb          	addw	a5,a4,a5
 801227c:	fef42623          	sw	a5,-20(s0)
    for (int i = 0; i < slv_total; i++) {
 8012280:	fe442783          	lw	a5,-28(s0)
 8012284:	0017879b          	addiw	a5,a5,1
 8012288:	fef42223          	sw	a5,-28(s0)
 801228c:	fe442703          	lw	a4,-28(s0)
 8012290:	fe042783          	lw	a5,-32(s0)
 8012294:	0007071b          	sext.w	a4,a4
 8012298:	0007879b          	sext.w	a5,a5
 801229c:	f4f74ae3          	blt	a4,a5,80121f0 <get_dev_bar+0xc8>
    }

    return DEV_NONE;
 80122a0:	fff00793          	li	a5,-1
}
 80122a4:	00078513          	mv	a0,a5
 80122a8:	04813403          	ld	s0,72(sp)
 80122ac:	05010113          	addi	sp,sp,80
 80122b0:	00008067          	ret

00000000080122b4 <mpu_region_total>:
    mpu_ctrl_wrbits_type bits;
    uint64_t value;
} mpu_ctrl_type;

// Read CSR_MPU_ctrl vendor specific register
static int mpu_region_total() {
 80122b4:	fe010113          	addi	sp,sp,-32
 80122b8:	00813c23          	sd	s0,24(sp)
 80122bc:	02010413          	addi	s0,sp,32
    uint64_t val = 0;
 80122c0:	fe043423          	sd	zero,-24(s0)
    asm("csrr %0, 0xBC4" : "=r" (val));
 80122c4:	bc4027f3          	csrr	a5,0xbc4
 80122c8:	fef43423          	sd	a5,-24(s0)
    return (int)(val >> 8);
 80122cc:	fe843783          	ld	a5,-24(s0)
 80122d0:	0087d793          	srli	a5,a5,0x8
 80122d4:	0007879b          	sext.w	a5,a5
}
 80122d8:	00078513          	mv	a0,a5
 80122dc:	01813403          	ld	s0,24(sp)
 80122e0:	02010113          	addi	sp,sp,32
 80122e4:	00008067          	ret

00000000080122e8 <mpu_disable_region>:

static void mpu_disable_region(int idx) {
 80122e8:	fd010113          	addi	sp,sp,-48
 80122ec:	02813423          	sd	s0,40(sp)
 80122f0:	03010413          	addi	s0,sp,48
 80122f4:	00050793          	mv	a5,a0
 80122f8:	fcf42e23          	sw	a5,-36(s0)
    mpu_ctrl_type ctrl;
    ctrl.value = 0;
 80122fc:	fe043423          	sd	zero,-24(s0)
    ctrl.bits.IDX = idx;
 8012300:	fdc42783          	lw	a5,-36(s0)
 8012304:	0ff7f793          	andi	a5,a5,255
 8012308:	fef404a3          	sb	a5,-23(s0)
    ctrl.bits.WE = 1;
 801230c:	fe844783          	lbu	a5,-24(s0)
 8012310:	f807e793          	ori	a5,a5,-128
 8012314:	fef40423          	sb	a5,-24(s0)
    asm("csrw 0xBC4, %0" : :"r"(ctrl.value));
 8012318:	fe843783          	ld	a5,-24(s0)
 801231c:	bc479073          	csrw	0xbc4,a5
}
 8012320:	00000013          	nop
 8012324:	02813403          	ld	s0,40(sp)
 8012328:	03010113          	addi	sp,sp,48
 801232c:	00008067          	ret

0000000008012330 <mpu_enable_region>:

static void mpu_enable_region(int idx,
                       uint64_t bar,
                       uint64_t KB,
                       int cached,
                       const char *rwx) {
 8012330:	fb010113          	addi	sp,sp,-80
 8012334:	04813423          	sd	s0,72(sp)
 8012338:	05010413          	addi	s0,sp,80
 801233c:	00050793          	mv	a5,a0
 8012340:	fcb43023          	sd	a1,-64(s0)
 8012344:	fac43c23          	sd	a2,-72(s0)
 8012348:	fae43823          	sd	a4,-80(s0)
 801234c:	fcf42623          	sw	a5,-52(s0)
 8012350:	00068793          	mv	a5,a3
 8012354:	fcf42423          	sw	a5,-56(s0)
    uint64_t mask = (~0ull) << 10;
 8012358:	c0000793          	li	a5,-1024
 801235c:	fef43423          	sd	a5,-24(s0)
    const char *p = rwx;
 8012360:	fb043783          	ld	a5,-80(s0)
 8012364:	fef43023          	sd	a5,-32(s0)
    mpu_ctrl_type ctrl;

    asm("csrw 0xBC2, %0" : :"r"(bar));
 8012368:	fc043783          	ld	a5,-64(s0)
 801236c:	bc279073          	csrw	0xbc2,a5

    KB >>= 1;
 8012370:	fb843783          	ld	a5,-72(s0)
 8012374:	0017d793          	srli	a5,a5,0x1
 8012378:	faf43c23          	sd	a5,-72(s0)
    while (KB) {
 801237c:	01c0006f          	j	8012398 <mpu_enable_region+0x68>
        mask <<= 1;
 8012380:	fe843783          	ld	a5,-24(s0)
 8012384:	00179793          	slli	a5,a5,0x1
 8012388:	fef43423          	sd	a5,-24(s0)
        KB >>= 1;
 801238c:	fb843783          	ld	a5,-72(s0)
 8012390:	0017d793          	srli	a5,a5,0x1
 8012394:	faf43c23          	sd	a5,-72(s0)
    while (KB) {
 8012398:	fb843783          	ld	a5,-72(s0)
 801239c:	fe0792e3          	bnez	a5,8012380 <mpu_enable_region+0x50>
    }
    asm("csrw 0xBC3, %0" : :"r"(mask));
 80123a0:	fe843783          	ld	a5,-24(s0)
 80123a4:	bc379073          	csrw	0xbc3,a5

    ctrl.value = 0;
 80123a8:	fc043c23          	sd	zero,-40(s0)
    ctrl.bits.IDX = idx;
 80123ac:	fcc42783          	lw	a5,-52(s0)
 80123b0:	0ff7f793          	andi	a5,a5,255
 80123b4:	fcf40ca3          	sb	a5,-39(s0)
    ctrl.bits.ENA = 1;
 80123b8:	fd844783          	lbu	a5,-40(s0)
 80123bc:	0107e793          	ori	a5,a5,16
 80123c0:	fcf40c23          	sb	a5,-40(s0)
    ctrl.bits.CACHABLE = cached;
 80123c4:	fc842783          	lw	a5,-56(s0)
 80123c8:	0017f793          	andi	a5,a5,1
 80123cc:	0ff7f793          	andi	a5,a5,255
 80123d0:	0017f793          	andi	a5,a5,1
 80123d4:	0037969b          	slliw	a3,a5,0x3
 80123d8:	fd844783          	lbu	a5,-40(s0)
 80123dc:	ff77f793          	andi	a5,a5,-9
 80123e0:	00078713          	mv	a4,a5
 80123e4:	00068793          	mv	a5,a3
 80123e8:	00f767b3          	or	a5,a4,a5
 80123ec:	fcf40c23          	sb	a5,-40(s0)
    ctrl.bits.WE = 1; // write into MPU
 80123f0:	fd844783          	lbu	a5,-40(s0)
 80123f4:	f807e793          	ori	a5,a5,-128
 80123f8:	fcf40c23          	sb	a5,-40(s0)
    while (*p) {
 80123fc:	0700006f          	j	801246c <mpu_enable_region+0x13c>
        if (*p == 'r') {
 8012400:	fe043783          	ld	a5,-32(s0)
 8012404:	0007c783          	lbu	a5,0(a5)
 8012408:	00078713          	mv	a4,a5
 801240c:	07200793          	li	a5,114
 8012410:	00f71863          	bne	a4,a5,8012420 <mpu_enable_region+0xf0>
            ctrl.bits.RD = 1;
 8012414:	fd844783          	lbu	a5,-40(s0)
 8012418:	0027e793          	ori	a5,a5,2
 801241c:	fcf40c23          	sb	a5,-40(s0)
        }
        if (*p == 'w') {
 8012420:	fe043783          	ld	a5,-32(s0)
 8012424:	0007c783          	lbu	a5,0(a5)
 8012428:	00078713          	mv	a4,a5
 801242c:	07700793          	li	a5,119
 8012430:	00f71863          	bne	a4,a5,8012440 <mpu_enable_region+0x110>
            ctrl.bits.WR = 1;
 8012434:	fd844783          	lbu	a5,-40(s0)
 8012438:	0017e793          	ori	a5,a5,1
 801243c:	fcf40c23          	sb	a5,-40(s0)
        }
        if (*p == 'x') {
 8012440:	fe043783          	ld	a5,-32(s0)
 8012444:	0007c783          	lbu	a5,0(a5)
 8012448:	00078713          	mv	a4,a5
 801244c:	07800793          	li	a5,120
 8012450:	00f71863          	bne	a4,a5,8012460 <mpu_enable_region+0x130>
            ctrl.bits.EXEC = 1;
 8012454:	fd844783          	lbu	a5,-40(s0)
 8012458:	0047e793          	ori	a5,a5,4
 801245c:	fcf40c23          	sb	a5,-40(s0)
        }
        p++;
 8012460:	fe043783          	ld	a5,-32(s0)
 8012464:	00178793          	addi	a5,a5,1
 8012468:	fef43023          	sd	a5,-32(s0)
    while (*p) {
 801246c:	fe043783          	ld	a5,-32(s0)
 8012470:	0007c783          	lbu	a5,0(a5)
 8012474:	f80796e3          	bnez	a5,8012400 <mpu_enable_region+0xd0>
    }
    asm("csrw 0xBC4, %0" : :"r"(ctrl.value));
 8012478:	fd843783          	ld	a5,-40(s0)
 801247c:	bc479073          	csrw	0xbc4,a5
}
 8012480:	00000013          	nop
 8012484:	04813403          	ld	s0,72(sp)
 8012488:	05010113          	addi	sp,sp,80
 801248c:	00008067          	ret

0000000008012490 <get_mcause>:
        uint64_t irq    : 1;
    } bits;
    uint64_t value;
} csr_mcause_type;

int get_mcause() {
 8012490:	fe010113          	addi	sp,sp,-32
 8012494:	00813c23          	sd	s0,24(sp)
 8012498:	02010413          	addi	s0,sp,32
    int ret;
    asm("csrr %0, mcause" : "=r" (ret));
 801249c:	342027f3          	csrr	a5,mcause
 80124a0:	fef42623          	sw	a5,-20(s0)
    return ret;
 80124a4:	fec42783          	lw	a5,-20(s0)
}
 80124a8:	00078513          	mv	a0,a5
 80124ac:	01813403          	ld	s0,24(sp)
 80124b0:	02010113          	addi	sp,sp,32
 80124b4:	00008067          	ret

00000000080124b8 <get_mepc>:

int get_mepc() {
 80124b8:	fe010113          	addi	sp,sp,-32
 80124bc:	00813c23          	sd	s0,24(sp)
 80124c0:	02010413          	addi	s0,sp,32
    int ret;
    asm("csrr %0, mepc" : "=r" (ret));
 80124c4:	341027f3          	csrr	a5,mepc
 80124c8:	fef42623          	sw	a5,-20(s0)
    return ret;
 80124cc:	fec42783          	lw	a5,-20(s0)
}
 80124d0:	00078513          	mv	a0,a5
 80124d4:	01813403          	ld	s0,24(sp)
 80124d8:	02010113          	addi	sp,sp,32
 80124dc:	00008067          	ret

00000000080124e0 <print_uart>:

void print_uart(const char *buf, int sz) {
 80124e0:	fc010113          	addi	sp,sp,-64
 80124e4:	02813c23          	sd	s0,56(sp)
 80124e8:	04010413          	addi	s0,sp,64
 80124ec:	fca43423          	sd	a0,-56(s0)
 80124f0:	00058793          	mv	a5,a1
 80124f4:	fcf42223          	sw	a5,-60(s0)
    uart_map *uart = (uart_map *)ADDR_BUS0_XSLV_UART0;
 80124f8:	100107b7          	lui	a5,0x10010
 80124fc:	fef43023          	sd	a5,-32(s0)
    uart_txdata_type txdata;
    for (int i = 0; i < sz; i++) {
 8012500:	fe042623          	sw	zero,-20(s0)
 8012504:	04c0006f          	j	8012550 <print_uart+0x70>
        do {
            txdata.v = uart->txdata;
 8012508:	fe043783          	ld	a5,-32(s0)
 801250c:	0007a783          	lw	a5,0(a5) # 10010000 <_end+0x7ffc9a0>
 8012510:	0007879b          	sext.w	a5,a5
 8012514:	fcf42c23          	sw	a5,-40(s0)
        } while (txdata.b.full);
 8012518:	fdb44783          	lbu	a5,-37(s0)
 801251c:	f807f793          	andi	a5,a5,-128
 8012520:	0ff7f793          	andi	a5,a5,255
 8012524:	fe0792e3          	bnez	a5,8012508 <print_uart+0x28>
        uart->txdata = buf[i];
 8012528:	fec42783          	lw	a5,-20(s0)
 801252c:	fc843703          	ld	a4,-56(s0)
 8012530:	00f707b3          	add	a5,a4,a5
 8012534:	0007c783          	lbu	a5,0(a5)
 8012538:	0007871b          	sext.w	a4,a5
 801253c:	fe043783          	ld	a5,-32(s0)
 8012540:	00e7a023          	sw	a4,0(a5)
    for (int i = 0; i < sz; i++) {
 8012544:	fec42783          	lw	a5,-20(s0)
 8012548:	0017879b          	addiw	a5,a5,1
 801254c:	fef42623          	sw	a5,-20(s0)
 8012550:	fec42703          	lw	a4,-20(s0)
 8012554:	fc442783          	lw	a5,-60(s0)
 8012558:	0007071b          	sext.w	a4,a4
 801255c:	0007879b          	sext.w	a5,a5
 8012560:	faf744e3          	blt	a4,a5,8012508 <print_uart+0x28>
    }
}
 8012564:	00000013          	nop
 8012568:	03813403          	ld	s0,56(sp)
 801256c:	04010113          	addi	sp,sp,64
 8012570:	00008067          	ret

0000000008012574 <print_uart_hex>:

void print_uart_hex(long val) {
 8012574:	fc010113          	addi	sp,sp,-64
 8012578:	02813c23          	sd	s0,56(sp)
 801257c:	04010413          	addi	s0,sp,64
 8012580:	fca43423          	sd	a0,-56(s0)
    unsigned char t, s;
    uart_map *uart = (uart_map *)ADDR_BUS0_XSLV_UART0;
 8012584:	100107b7          	lui	a5,0x10010
 8012588:	fef43023          	sd	a5,-32(s0)
    uart_txdata_type txdata;
    for (int i = 0; i < 16; i++) {
 801258c:	fe042423          	sw	zero,-24(s0)
 8012590:	0980006f          	j	8012628 <print_uart_hex+0xb4>
        do {
            txdata.v = uart->txdata;
 8012594:	fe043783          	ld	a5,-32(s0)
 8012598:	0007a783          	lw	a5,0(a5) # 10010000 <_end+0x7ffc9a0>
 801259c:	0007879b          	sext.w	a5,a5
 80125a0:	fcf42c23          	sw	a5,-40(s0)
        } while (txdata.b.full);;
 80125a4:	fdb44783          	lbu	a5,-37(s0)
 80125a8:	f807f793          	andi	a5,a5,-128
 80125ac:	0ff7f793          	andi	a5,a5,255
 80125b0:	fe0792e3          	bnez	a5,8012594 <print_uart_hex+0x20>
        
        t = (unsigned char)((val >> ((15 - i) * 4)) & 0xf);
 80125b4:	00f00713          	li	a4,15
 80125b8:	fe842783          	lw	a5,-24(s0)
 80125bc:	40f707bb          	subw	a5,a4,a5
 80125c0:	0007879b          	sext.w	a5,a5
 80125c4:	0027979b          	slliw	a5,a5,0x2
 80125c8:	0007879b          	sext.w	a5,a5
 80125cc:	fc843703          	ld	a4,-56(s0)
 80125d0:	40f757b3          	sra	a5,a4,a5
 80125d4:	0ff7f793          	andi	a5,a5,255
 80125d8:	00f7f793          	andi	a5,a5,15
 80125dc:	fcf40fa3          	sb	a5,-33(s0)
        if (t < 10) {
 80125e0:	fdf44783          	lbu	a5,-33(s0)
 80125e4:	0ff7f713          	andi	a4,a5,255
 80125e8:	00900793          	li	a5,9
 80125ec:	00e7ea63          	bltu	a5,a4,8012600 <print_uart_hex+0x8c>
            s = t + '0';
 80125f0:	fdf44783          	lbu	a5,-33(s0)
 80125f4:	0307879b          	addiw	a5,a5,48
 80125f8:	fef407a3          	sb	a5,-17(s0)
 80125fc:	0100006f          	j	801260c <print_uart_hex+0x98>
        } else {
            s = (t - 10) + 'a';
 8012600:	fdf44783          	lbu	a5,-33(s0)
 8012604:	0577879b          	addiw	a5,a5,87
 8012608:	fef407a3          	sb	a5,-17(s0)
        }
        uart->txdata = s;
 801260c:	fef44783          	lbu	a5,-17(s0)
 8012610:	0007871b          	sext.w	a4,a5
 8012614:	fe043783          	ld	a5,-32(s0)
 8012618:	00e7a023          	sw	a4,0(a5)
    for (int i = 0; i < 16; i++) {
 801261c:	fe842783          	lw	a5,-24(s0)
 8012620:	0017879b          	addiw	a5,a5,1
 8012624:	fef42423          	sw	a5,-24(s0)
 8012628:	fe842783          	lw	a5,-24(s0)
 801262c:	0007871b          	sext.w	a4,a5
 8012630:	00f00793          	li	a5,15
 8012634:	f6e7d0e3          	ble	a4,a5,8012594 <print_uart_hex+0x20>
    }
}
 8012638:	00000013          	nop
 801263c:	03813403          	ld	s0,56(sp)
 8012640:	04010113          	addi	sp,sp,64
 8012644:	00008067          	ret

0000000008012648 <env_call>:


void env_call(long long test_id) {
 8012648:	fd010113          	addi	sp,sp,-48
 801264c:	02113423          	sd	ra,40(sp)
 8012650:	02813023          	sd	s0,32(sp)
 8012654:	03010413          	addi	s0,sp,48
 8012658:	fca43c23          	sd	a0,-40(s0)
    if (test_id != 0) {
 801265c:	fd843783          	ld	a5,-40(s0)
 8012660:	06078e63          	beqz	a5,80126dc <env_call+0x94>
        int mbadaddr;
        print_uart("TEST_FAILED\r\n", 13);
 8012664:	00d00593          	li	a1,13
 8012668:	00000517          	auipc	a0,0x0
 801266c:	14050513          	addi	a0,a0,320 # 80127a8 <exception_handler_c+0xb8>
 8012670:	e71ff0ef          	jal	ra,80124e0 <print_uart>
        print_uart("a0=", 3);
 8012674:	00300593          	li	a1,3
 8012678:	00000517          	auipc	a0,0x0
 801267c:	14050513          	addi	a0,a0,320 # 80127b8 <exception_handler_c+0xc8>
 8012680:	e61ff0ef          	jal	ra,80124e0 <print_uart>
        print_uart_hex(test_id);
 8012684:	fd843503          	ld	a0,-40(s0)
 8012688:	00000097          	auipc	ra,0x0
 801268c:	eec080e7          	jalr	-276(ra) # 8012574 <print_uart_hex>
        print_uart("\r\n", 2);
 8012690:	00200593          	li	a1,2
 8012694:	00000517          	auipc	a0,0x0
 8012698:	12c50513          	addi	a0,a0,300 # 80127c0 <exception_handler_c+0xd0>
 801269c:	e45ff0ef          	jal	ra,80124e0 <print_uart>

        asm("csrr %0, mbadaddr" : "=r" (mbadaddr));
 80126a0:	343027f3          	csrr	a5,mbadaddr
 80126a4:	fef42623          	sw	a5,-20(s0)
        print_uart("mbadaddr=", 9);
 80126a8:	00900593          	li	a1,9
 80126ac:	00000517          	auipc	a0,0x0
 80126b0:	11c50513          	addi	a0,a0,284 # 80127c8 <exception_handler_c+0xd8>
 80126b4:	e2dff0ef          	jal	ra,80124e0 <print_uart>
        print_uart_hex(mbadaddr);
 80126b8:	fec42783          	lw	a5,-20(s0)
 80126bc:	00078513          	mv	a0,a5
 80126c0:	00000097          	auipc	ra,0x0
 80126c4:	eb4080e7          	jalr	-332(ra) # 8012574 <print_uart_hex>
        print_uart("\r\n", 2);
 80126c8:	00200593          	li	a1,2
 80126cc:	00000517          	auipc	a0,0x0
 80126d0:	0f450513          	addi	a0,a0,244 # 80127c0 <exception_handler_c+0xd0>
 80126d4:	e0dff0ef          	jal	ra,80124e0 <print_uart>
 80126d8:	0140006f          	j	80126ec <env_call+0xa4>
    } else {
        print_uart("TEST_PASSED\r\n", 13);
 80126dc:	00d00593          	li	a1,13
 80126e0:	00000517          	auipc	a0,0x0
 80126e4:	0f850513          	addi	a0,a0,248 # 80127d8 <exception_handler_c+0xe8>
 80126e8:	df9ff0ef          	jal	ra,80124e0 <print_uart>
    }
    while (1) {}
 80126ec:	0000006f          	j	80126ec <env_call+0xa4>

00000000080126f0 <exception_handler_c>:
}

void exception_handler_c(long long arg) {
 80126f0:	fd010113          	addi	sp,sp,-48
 80126f4:	02113423          	sd	ra,40(sp)
 80126f8:	02813023          	sd	s0,32(sp)
 80126fc:	03010413          	addi	s0,sp,48
 8012700:	fca43c23          	sd	a0,-40(s0)
    int mcause = get_mcause();
 8012704:	00000097          	auipc	ra,0x0
 8012708:	d8c080e7          	jalr	-628(ra) # 8012490 <get_mcause>
 801270c:	00050793          	mv	a5,a0
 8012710:	fef42623          	sw	a5,-20(s0)

    switch (mcause) {
 8012714:	fec42783          	lw	a5,-20(s0)
 8012718:	ff87879b          	addiw	a5,a5,-8
 801271c:	0007871b          	sext.w	a4,a5
 8012720:	00100793          	li	a5,1
 8012724:	00e7ea63          	bltu	a5,a4,8012738 <exception_handler_c+0x48>
    case 8:  // user env. call
    case 9:  // supervisor env. call
        env_call(arg);
 8012728:	fd843503          	ld	a0,-40(s0)
 801272c:	00000097          	auipc	ra,0x0
 8012730:	f1c080e7          	jalr	-228(ra) # 8012648 <env_call>
        return;
 8012734:	0600006f          	j	8012794 <exception_handler_c+0xa4>
    default:;
    }

    print_uart("mcause:", 7);
 8012738:	00700593          	li	a1,7
 801273c:	00000517          	auipc	a0,0x0
 8012740:	0ac50513          	addi	a0,a0,172 # 80127e8 <exception_handler_c+0xf8>
 8012744:	00000097          	auipc	ra,0x0
 8012748:	d9c080e7          	jalr	-612(ra) # 80124e0 <print_uart>
    print_uart_hex(mcause);
 801274c:	fec42783          	lw	a5,-20(s0)
 8012750:	00078513          	mv	a0,a5
 8012754:	e21ff0ef          	jal	ra,8012574 <print_uart_hex>
    print_uart(",mepc:", 6);
 8012758:	00600593          	li	a1,6
 801275c:	00000517          	auipc	a0,0x0
 8012760:	09450513          	addi	a0,a0,148 # 80127f0 <exception_handler_c+0x100>
 8012764:	00000097          	auipc	ra,0x0
 8012768:	d7c080e7          	jalr	-644(ra) # 80124e0 <print_uart>
    print_uart_hex(get_mepc());
 801276c:	d4dff0ef          	jal	ra,80124b8 <get_mepc>
 8012770:	00050793          	mv	a5,a0
 8012774:	00078513          	mv	a0,a5
 8012778:	dfdff0ef          	jal	ra,8012574 <print_uart_hex>
    print_uart("\r\n", 2);
 801277c:	00200593          	li	a1,2
 8012780:	00000517          	auipc	a0,0x0
 8012784:	04050513          	addi	a0,a0,64 # 80127c0 <exception_handler_c+0xd0>
 8012788:	00000097          	auipc	ra,0x0
 801278c:	d58080e7          	jalr	-680(ra) # 80124e0 <print_uart>

    /// Exception trap
    while (1) {}
 8012790:	0000006f          	j	8012790 <exception_handler_c+0xa0>
}
 8012794:	02813083          	ld	ra,40(sp)
 8012798:	02013403          	ld	s0,32(sp)
 801279c:	03010113          	addi	sp,sp,48
 80127a0:	00008067          	ret
	...
