
..\linuxbuild\bin/bootimage:     file format elf64-littleriscv


Disassembly of section .text:

0000000000010000 <_start>:
   10000:	0380006f          	j	10038 <reset_vector>

0000000000010004 <trap_table>:
   10004:	1180006f          	j	1011c <trap_entry>
   10008:	02c0006f          	j	10034 <bad_irq>
   1000c:	0280006f          	j	10034 <bad_irq>
   10010:	0240006f          	j	10034 <bad_irq>
   10014:	0200006f          	j	10034 <bad_irq>
   10018:	01c0006f          	j	10034 <bad_irq>
   1001c:	0180006f          	j	10034 <bad_irq>
   10020:	0140006f          	j	10034 <bad_irq>
   10024:	0100006f          	j	10034 <bad_irq>
   10028:	00c0006f          	j	10034 <bad_irq>
   1002c:	0080006f          	j	10034 <bad_irq>
   10030:	0040006f          	j	10034 <bad_irq>

0000000000010034 <bad_irq>:
   10034:	0000006f          	j	10034 <bad_irq>

0000000000010038 <reset_vector>:
   10038:	00000093          	li	ra,0
   1003c:	00000113          	li	sp,0
   10040:	00000193          	li	gp,0
   10044:	00000213          	li	tp,0
   10048:	00000293          	li	t0,0
   1004c:	00000313          	li	t1,0
   10050:	00000393          	li	t2,0
   10054:	00000413          	li	s0,0
   10058:	00000493          	li	s1,0
   1005c:	00000513          	li	a0,0
   10060:	00000593          	li	a1,0
   10064:	00000613          	li	a2,0
   10068:	00000693          	li	a3,0
   1006c:	00000713          	li	a4,0
   10070:	00000793          	li	a5,0
   10074:	00000813          	li	a6,0
   10078:	00000893          	li	a7,0
   1007c:	00000913          	li	s2,0
   10080:	00000993          	li	s3,0
   10084:	00000a13          	li	s4,0
   10088:	00000a93          	li	s5,0
   1008c:	00000b13          	li	s6,0
   10090:	00000b93          	li	s7,0
   10094:	00000c13          	li	s8,0
   10098:	00000c93          	li	s9,0
   1009c:	00000d13          	li	s10,0
   100a0:	00000d93          	li	s11,0
   100a4:	00000e13          	li	t3,0
   100a8:	00000e93          	li	t4,0
   100ac:	00000f13          	li	t5,0
   100b0:	00000f93          	li	t6,0
   100b4:	00000297          	auipc	t0,0x0
   100b8:	f5028293          	addi	t0,t0,-176 # 10004 <trap_table>
   100bc:	30529073          	csrw	mtvec,t0
   100c0:	f1402573          	csrr	a0,mhartid
   100c4:	08200137          	lui	sp,0x8200
   100c8:	00300593          	li	a1,3
   100cc:	40a58533          	sub	a0,a1,a0
   100d0:	000015b7          	lui	a1,0x1
   100d4:	02b50533          	mul	a0,a0,a1
   100d8:	40a10133          	sub	sp,sp,a0
   100dc:	f0010113          	addi	sp,sp,-256 # 81fff00 <_end+0x81ec8c8>
   100e0:	7b311073          	csrw	0x7b3,sp
   100e4:	00100613          	li	a2,1
   100e8:	fec13c23          	sd	a2,-8(sp)
   100ec:	00800593          	li	a1,8
   100f0:	40b105b3          	sub	a1,sp,a1
   100f4:	00c5b02f          	amoadd.d	zero,a2,(a1)
   100f8:	f1402573          	csrr	a0,mhartid
   100fc:	00050663          	beqz	a0,10108 <init0>
   10100:	10500073          	wfi
   10104:	0080006f          	j	1010c <end_init0>

0000000000010108 <init0>:
   10108:	638000ef          	jal	ra,10740 <_init>

000000000001010c <end_init0>:
   1010c:	f1402573          	csrr	a0,mhartid
   10110:	00002597          	auipc	a1,0x2
   10114:	5c858593          	addi	a1,a1,1480 # 126d8 <dtb_start>
   10118:	30200073          	mret

000000000001011c <trap_entry>:
   1011c:	340f1073          	csrw	mscratch,t5
   10120:	34202f73          	csrr	t5,mcause
   10124:	100f5e63          	bgez	t5,10240 <handle_exception>

0000000000010128 <interrupt_entry>:
   10128:	f0810113          	addi	sp,sp,-248
   1012c:	00113023          	sd	ra,0(sp)
   10130:	00813423          	sd	s0,8(sp)
   10134:	00913823          	sd	s1,16(sp)
   10138:	01213c23          	sd	s2,24(sp)
   1013c:	03313023          	sd	s3,32(sp)
   10140:	03413423          	sd	s4,40(sp)
   10144:	03513823          	sd	s5,48(sp)
   10148:	03613c23          	sd	s6,56(sp)
   1014c:	05713023          	sd	s7,64(sp)
   10150:	05813423          	sd	s8,72(sp)
   10154:	05913823          	sd	s9,80(sp)
   10158:	05a13c23          	sd	s10,88(sp)
   1015c:	07b13023          	sd	s11,96(sp)
   10160:	06213423          	sd	sp,104(sp)
   10164:	07013c23          	sd	a6,120(sp)
   10168:	09113023          	sd	a7,128(sp)
   1016c:	08a13423          	sd	a0,136(sp)
   10170:	08b13823          	sd	a1,144(sp)
   10174:	08c13c23          	sd	a2,152(sp)
   10178:	0ad13023          	sd	a3,160(sp)
   1017c:	0ae13423          	sd	a4,168(sp)
   10180:	0af13823          	sd	a5,176(sp)
   10184:	0b013c23          	sd	a6,184(sp)
   10188:	0d113023          	sd	a7,192(sp)
   1018c:	0c513423          	sd	t0,200(sp)
   10190:	0c613823          	sd	t1,208(sp)
   10194:	0c713c23          	sd	t2,216(sp)
   10198:	0fc13023          	sd	t3,224(sp)
   1019c:	0fd13423          	sd	t4,232(sp)
   101a0:	0e313823          	sd	gp,240(sp)
   101a4:	34202573          	csrr	a0,mcause
   101a8:	341025f3          	csrr	a1,mepc
   101ac:	00010613          	mv	a2,sp
   101b0:	359000ef          	jal	ra,10d08 <interrupt_handler_c>
   101b4:	07013f03          	ld	t5,112(sp)
   101b8:	341f1073          	csrw	mepc,t5
   101bc:	00013083          	ld	ra,0(sp)
   101c0:	00813403          	ld	s0,8(sp)
   101c4:	01013483          	ld	s1,16(sp)
   101c8:	01813903          	ld	s2,24(sp)
   101cc:	02013983          	ld	s3,32(sp)
   101d0:	02813a03          	ld	s4,40(sp)
   101d4:	03013a83          	ld	s5,48(sp)
   101d8:	03813b03          	ld	s6,56(sp)
   101dc:	04013b83          	ld	s7,64(sp)
   101e0:	04813c03          	ld	s8,72(sp)
   101e4:	05013c83          	ld	s9,80(sp)
   101e8:	05813d03          	ld	s10,88(sp)
   101ec:	06013d83          	ld	s11,96(sp)
   101f0:	06813103          	ld	sp,104(sp)
   101f4:	07813803          	ld	a6,120(sp)
   101f8:	08013883          	ld	a7,128(sp)
   101fc:	08813503          	ld	a0,136(sp)
   10200:	09013583          	ld	a1,144(sp)
   10204:	09813603          	ld	a2,152(sp)
   10208:	0a013683          	ld	a3,160(sp)
   1020c:	0a813703          	ld	a4,168(sp)
   10210:	0b013783          	ld	a5,176(sp)
   10214:	0b813803          	ld	a6,184(sp)
   10218:	0c013883          	ld	a7,192(sp)
   1021c:	0c813283          	ld	t0,200(sp)
   10220:	0d013303          	ld	t1,208(sp)
   10224:	0d813383          	ld	t2,216(sp)
   10228:	0e013e03          	ld	t3,224(sp)
   1022c:	0e813e83          	ld	t4,232(sp)
   10230:	0f013183          	ld	gp,240(sp)
   10234:	0f810113          	addi	sp,sp,248
   10238:	34002f73          	csrr	t5,mscratch
   1023c:	30200073          	mret

0000000000010240 <handle_exception>:
   10240:	7b302173          	csrr	sp,0x7b3
   10244:	1a9000ef          	jal	ra,10bec <exception_handler_c>
   10248:	30200073          	mret
   1024c:	0000                	unimp
   1024e:	0000                	unimp
   10250:	0000                	unimp

0000000000010252 <get_dev_bar>:
   10252:	715d                	addi	sp,sp,-80
   10254:	e4a2                	sd	s0,72(sp)
   10256:	0880                	addi	s0,sp,80
   10258:	faa43c23          	sd	a0,-72(s0)
   1025c:	87ae                	mv	a5,a1
   1025e:	8732                	mv	a4,a2
   10260:	faf41b23          	sh	a5,-74(s0)
   10264:	87ba                	mv	a5,a4
   10266:	faf41a23          	sh	a5,-76(s0)
   1026a:	fb843783          	ld	a5,-72(s0)
   1026e:	479c                	lw	a5,8(a5)
   10270:	0087d79b          	srliw	a5,a5,0x8
   10274:	2781                	sext.w	a5,a5
   10276:	2781                	sext.w	a5,a5
   10278:	0ff7f793          	andi	a5,a5,255
   1027c:	fef42023          	sw	a5,-32(s0)
   10280:	fb843783          	ld	a5,-72(s0)
   10284:	479c                	lw	a5,8(a5)
   10286:	0107d79b          	srliw	a5,a5,0x10
   1028a:	2781                	sext.w	a5,a5
   1028c:	2781                	sext.w	a5,a5
   1028e:	0ff7f793          	andi	a5,a5,255
   10292:	fcf42e23          	sw	a5,-36(s0)
   10296:	fe042623          	sw	zero,-20(s0)
   1029a:	fe042423          	sw	zero,-24(s0)
   1029e:	a82d                	j	102d8 <get_dev_bar+0x86>
   102a0:	fec42783          	lw	a5,-20(s0)
   102a4:	04078793          	addi	a5,a5,64
   102a8:	fb843703          	ld	a4,-72(s0)
   102ac:	97ba                	add	a5,a5,a4
   102ae:	639c                	ld	a5,0(a5)
   102b0:	fcf43823          	sd	a5,-48(s0)
   102b4:	fb843703          	ld	a4,-72(s0)
   102b8:	fec42783          	lw	a5,-20(s0)
   102bc:	97ba                	add	a5,a5,a4
   102be:	0407c783          	lbu	a5,64(a5)
   102c2:	2781                	sext.w	a5,a5
   102c4:	fec42703          	lw	a4,-20(s0)
   102c8:	9fb9                	addw	a5,a5,a4
   102ca:	fef42623          	sw	a5,-20(s0)
   102ce:	fe842783          	lw	a5,-24(s0)
   102d2:	2785                	addiw	a5,a5,1
   102d4:	fef42423          	sw	a5,-24(s0)
   102d8:	fe842703          	lw	a4,-24(s0)
   102dc:	fdc42783          	lw	a5,-36(s0)
   102e0:	2701                	sext.w	a4,a4
   102e2:	2781                	sext.w	a5,a5
   102e4:	faf74ee3          	blt	a4,a5,102a0 <get_dev_bar+0x4e>
   102e8:	fe042223          	sw	zero,-28(s0)
   102ec:	a8b5                	j	10368 <get_dev_bar+0x116>
   102ee:	fec42783          	lw	a5,-20(s0)
   102f2:	04078793          	addi	a5,a5,64
   102f6:	fb843703          	ld	a4,-72(s0)
   102fa:	97ba                	add	a5,a5,a4
   102fc:	639c                	ld	a5,0(a5)
   102fe:	fcf43023          	sd	a5,-64(s0)
   10302:	fec42783          	lw	a5,-20(s0)
   10306:	27a1                	addiw	a5,a5,8
   10308:	2781                	sext.w	a5,a5
   1030a:	04078793          	addi	a5,a5,64
   1030e:	fb843703          	ld	a4,-72(s0)
   10312:	97ba                	add	a5,a5,a4
   10314:	639c                	ld	a5,0(a5)
   10316:	fcf43423          	sd	a5,-56(s0)
   1031a:	fc645783          	lhu	a5,-58(s0)
   1031e:	fb645703          	lhu	a4,-74(s0)
   10322:	2701                	sext.w	a4,a4
   10324:	2781                	sext.w	a5,a5
   10326:	00f71f63          	bne	a4,a5,10344 <get_dev_bar+0xf2>
   1032a:	fc445783          	lhu	a5,-60(s0)
   1032e:	fb445703          	lhu	a4,-76(s0)
   10332:	2701                	sext.w	a4,a4
   10334:	2781                	sext.w	a5,a5
   10336:	00f71763          	bne	a4,a5,10344 <get_dev_bar+0xf2>
   1033a:	fcc42783          	lw	a5,-52(s0)
   1033e:	1782                	slli	a5,a5,0x20
   10340:	9381                	srli	a5,a5,0x20
   10342:	a825                	j	1037a <get_dev_bar+0x128>
   10344:	fb843703          	ld	a4,-72(s0)
   10348:	fec42783          	lw	a5,-20(s0)
   1034c:	97ba                	add	a5,a5,a4
   1034e:	0407c783          	lbu	a5,64(a5)
   10352:	2781                	sext.w	a5,a5
   10354:	fec42703          	lw	a4,-20(s0)
   10358:	9fb9                	addw	a5,a5,a4
   1035a:	fef42623          	sw	a5,-20(s0)
   1035e:	fe442783          	lw	a5,-28(s0)
   10362:	2785                	addiw	a5,a5,1
   10364:	fef42223          	sw	a5,-28(s0)
   10368:	fe442703          	lw	a4,-28(s0)
   1036c:	fe042783          	lw	a5,-32(s0)
   10370:	2701                	sext.w	a4,a4
   10372:	2781                	sext.w	a5,a5
   10374:	f6f74de3          	blt	a4,a5,102ee <get_dev_bar+0x9c>
   10378:	57fd                	li	a5,-1
   1037a:	853e                	mv	a0,a5
   1037c:	6426                	ld	s0,72(sp)
   1037e:	6161                	addi	sp,sp,80
   10380:	8082                	ret

0000000000010382 <mpu_region_total>:
   10382:	1101                	addi	sp,sp,-32
   10384:	ec22                	sd	s0,24(sp)
   10386:	1000                	addi	s0,sp,32
   10388:	fe043423          	sd	zero,-24(s0)
   1038c:	bc4027f3          	csrr	a5,0xbc4
   10390:	fef43423          	sd	a5,-24(s0)
   10394:	fe843783          	ld	a5,-24(s0)
   10398:	83a1                	srli	a5,a5,0x8
   1039a:	2781                	sext.w	a5,a5
   1039c:	853e                	mv	a0,a5
   1039e:	6462                	ld	s0,24(sp)
   103a0:	6105                	addi	sp,sp,32
   103a2:	8082                	ret

00000000000103a4 <mpu_disable_region>:
   103a4:	7179                	addi	sp,sp,-48
   103a6:	f422                	sd	s0,40(sp)
   103a8:	1800                	addi	s0,sp,48
   103aa:	87aa                	mv	a5,a0
   103ac:	fcf42e23          	sw	a5,-36(s0)
   103b0:	fe043423          	sd	zero,-24(s0)
   103b4:	fdc42783          	lw	a5,-36(s0)
   103b8:	0ff7f793          	andi	a5,a5,255
   103bc:	fef404a3          	sb	a5,-23(s0)
   103c0:	fe844783          	lbu	a5,-24(s0)
   103c4:	f807e793          	ori	a5,a5,-128
   103c8:	fef40423          	sb	a5,-24(s0)
   103cc:	fe843783          	ld	a5,-24(s0)
   103d0:	bc479073          	csrw	0xbc4,a5
   103d4:	0001                	nop
   103d6:	7422                	ld	s0,40(sp)
   103d8:	6145                	addi	sp,sp,48
   103da:	8082                	ret

00000000000103dc <mpu_enable_region>:
   103dc:	715d                	addi	sp,sp,-80
   103de:	e4a2                	sd	s0,72(sp)
   103e0:	0880                	addi	s0,sp,80
   103e2:	87aa                	mv	a5,a0
   103e4:	fcb43023          	sd	a1,-64(s0)
   103e8:	fac43c23          	sd	a2,-72(s0)
   103ec:	fae43823          	sd	a4,-80(s0)
   103f0:	fcf42623          	sw	a5,-52(s0)
   103f4:	87b6                	mv	a5,a3
   103f6:	fcf42423          	sw	a5,-56(s0)
   103fa:	c0000793          	li	a5,-1024
   103fe:	fef43423          	sd	a5,-24(s0)
   10402:	fb043783          	ld	a5,-80(s0)
   10406:	fef43023          	sd	a5,-32(s0)
   1040a:	fc043783          	ld	a5,-64(s0)
   1040e:	bc279073          	csrw	0xbc2,a5
   10412:	fb843783          	ld	a5,-72(s0)
   10416:	8385                	srli	a5,a5,0x1
   10418:	faf43c23          	sd	a5,-72(s0)
   1041c:	a819                	j	10432 <mpu_enable_region+0x56>
   1041e:	fe843783          	ld	a5,-24(s0)
   10422:	0786                	slli	a5,a5,0x1
   10424:	fef43423          	sd	a5,-24(s0)
   10428:	fb843783          	ld	a5,-72(s0)
   1042c:	8385                	srli	a5,a5,0x1
   1042e:	faf43c23          	sd	a5,-72(s0)
   10432:	fb843783          	ld	a5,-72(s0)
   10436:	f7e5                	bnez	a5,1041e <mpu_enable_region+0x42>
   10438:	fe843783          	ld	a5,-24(s0)
   1043c:	bc379073          	csrw	0xbc3,a5
   10440:	fc043c23          	sd	zero,-40(s0)
   10444:	fcc42783          	lw	a5,-52(s0)
   10448:	0ff7f793          	andi	a5,a5,255
   1044c:	fcf40ca3          	sb	a5,-39(s0)
   10450:	fd844783          	lbu	a5,-40(s0)
   10454:	0107e793          	ori	a5,a5,16
   10458:	fcf40c23          	sb	a5,-40(s0)
   1045c:	fc842783          	lw	a5,-56(s0)
   10460:	8b85                	andi	a5,a5,1
   10462:	0ff7f793          	andi	a5,a5,255
   10466:	8b85                	andi	a5,a5,1
   10468:	0037969b          	slliw	a3,a5,0x3
   1046c:	fd844783          	lbu	a5,-40(s0)
   10470:	9bdd                	andi	a5,a5,-9
   10472:	873e                	mv	a4,a5
   10474:	87b6                	mv	a5,a3
   10476:	8fd9                	or	a5,a5,a4
   10478:	fcf40c23          	sb	a5,-40(s0)
   1047c:	fd844783          	lbu	a5,-40(s0)
   10480:	f807e793          	ori	a5,a5,-128
   10484:	fcf40c23          	sb	a5,-40(s0)
   10488:	a09d                	j	104ee <mpu_enable_region+0x112>
   1048a:	fe043783          	ld	a5,-32(s0)
   1048e:	0007c783          	lbu	a5,0(a5)
   10492:	873e                	mv	a4,a5
   10494:	07200793          	li	a5,114
   10498:	00f71863          	bne	a4,a5,104a8 <mpu_enable_region+0xcc>
   1049c:	fd844783          	lbu	a5,-40(s0)
   104a0:	0027e793          	ori	a5,a5,2
   104a4:	fcf40c23          	sb	a5,-40(s0)
   104a8:	fe043783          	ld	a5,-32(s0)
   104ac:	0007c783          	lbu	a5,0(a5)
   104b0:	873e                	mv	a4,a5
   104b2:	07700793          	li	a5,119
   104b6:	00f71863          	bne	a4,a5,104c6 <mpu_enable_region+0xea>
   104ba:	fd844783          	lbu	a5,-40(s0)
   104be:	0017e793          	ori	a5,a5,1
   104c2:	fcf40c23          	sb	a5,-40(s0)
   104c6:	fe043783          	ld	a5,-32(s0)
   104ca:	0007c783          	lbu	a5,0(a5)
   104ce:	873e                	mv	a4,a5
   104d0:	07800793          	li	a5,120
   104d4:	00f71863          	bne	a4,a5,104e4 <mpu_enable_region+0x108>
   104d8:	fd844783          	lbu	a5,-40(s0)
   104dc:	0047e793          	ori	a5,a5,4
   104e0:	fcf40c23          	sb	a5,-40(s0)
   104e4:	fe043783          	ld	a5,-32(s0)
   104e8:	0785                	addi	a5,a5,1
   104ea:	fef43023          	sd	a5,-32(s0)
   104ee:	fe043783          	ld	a5,-32(s0)
   104f2:	0007c783          	lbu	a5,0(a5)
   104f6:	fbd1                	bnez	a5,1048a <mpu_enable_region+0xae>
   104f8:	fd843783          	ld	a5,-40(s0)
   104fc:	bc479073          	csrw	0xbc4,a5
   10500:	0001                	nop
   10502:	6426                	ld	s0,72(sp)
   10504:	6161                	addi	sp,sp,80
   10506:	8082                	ret

0000000000010508 <fw_get_cpuid>:
   10508:	1101                	addi	sp,sp,-32
   1050a:	ec22                	sd	s0,24(sp)
   1050c:	1000                	addi	s0,sp,32
   1050e:	f14027f3          	csrr	a5,mhartid
   10512:	fef42623          	sw	a5,-20(s0)
   10516:	fec42783          	lw	a5,-20(s0)
   1051a:	853e                	mv	a0,a5
   1051c:	6462                	ld	s0,24(sp)
   1051e:	6105                	addi	sp,sp,32
   10520:	8082                	ret

0000000000010522 <led_set>:
   10522:	1101                	addi	sp,sp,-32
   10524:	ec22                	sd	s0,24(sp)
   10526:	1000                	addi	s0,sp,32
   10528:	87aa                	mv	a5,a0
   1052a:	fef42623          	sw	a5,-20(s0)
   1052e:	fec42783          	lw	a5,-20(s0)
   10532:	0047979b          	slliw	a5,a5,0x4
   10536:	0007871b          	sext.w	a4,a5
   1053a:	100607b7          	lui	a5,0x10060
   1053e:	2701                	sext.w	a4,a4
   10540:	c7d8                	sw	a4,12(a5)
   10542:	0001                	nop
   10544:	6462                	ld	s0,24(sp)
   10546:	6105                	addi	sp,sp,32
   10548:	8082                	ret

000000000001054a <get_dip>:
   1054a:	7179                	addi	sp,sp,-48
   1054c:	f422                	sd	s0,40(sp)
   1054e:	1800                	addi	s0,sp,48
   10550:	87aa                	mv	a5,a0
   10552:	fcf42e23          	sw	a5,-36(s0)
   10556:	100607b7          	lui	a5,0x10060
   1055a:	439c                	lw	a5,0(a5)
   1055c:	0007871b          	sext.w	a4,a5
   10560:	fdc42783          	lw	a5,-36(s0)
   10564:	00f757bb          	srlw	a5,a4,a5
   10568:	2781                	sext.w	a5,a5
   1056a:	fef42623          	sw	a5,-20(s0)
   1056e:	fec42783          	lw	a5,-20(s0)
   10572:	8b85                	andi	a5,a5,1
   10574:	2781                	sext.w	a5,a5
   10576:	853e                	mv	a0,a5
   10578:	7422                	ld	s0,40(sp)
   1057a:	6145                	addi	sp,sp,48
   1057c:	8082                	ret

000000000001057e <get_dips>:
   1057e:	1101                	addi	sp,sp,-32
   10580:	ec22                	sd	s0,24(sp)
   10582:	1000                	addi	s0,sp,32
   10584:	100607b7          	lui	a5,0x10060
   10588:	439c                	lw	a5,0(a5)
   1058a:	2781                	sext.w	a5,a5
   1058c:	fef42623          	sw	a5,-20(s0)
   10590:	fec42783          	lw	a5,-20(s0)
   10594:	8bbd                	andi	a5,a5,15
   10596:	2781                	sext.w	a5,a5
   10598:	853e                	mv	a0,a5
   1059a:	6462                	ld	s0,24(sp)
   1059c:	6105                	addi	sp,sp,32
   1059e:	8082                	ret

00000000000105a0 <copy_image>:
   105a0:	715d                	addi	sp,sp,-80
   105a2:	e486                	sd	ra,72(sp)
   105a4:	e0a2                	sd	s0,64(sp)
   105a6:	0880                	addi	s0,sp,80
   105a8:	090007b7          	lui	a5,0x9000
   105ac:	fcf43c23          	sd	a5,-40(s0)
   105b0:	080007b7          	lui	a5,0x8000
   105b4:	fcf43823          	sd	a5,-48(s0)
   105b8:	100ff7b7          	lui	a5,0x100ff
   105bc:	fcf43423          	sd	a5,-56(s0)
   105c0:	57fd                	li	a5,-1
   105c2:	fef43423          	sd	a5,-24(s0)
   105c6:	00000097          	auipc	ra,0x0
   105ca:	fb8080e7          	jalr	-72(ra) # 1057e <get_dips>
   105ce:	87aa                	mv	a5,a0
   105d0:	85be                	mv	a1,a5
   105d2:	67c9                	lui	a5,0x12
   105d4:	3c878513          	addi	a0,a5,968 # 123c8 <strnlen+0x1e>
   105d8:	00001097          	auipc	ra,0x1
   105dc:	072080e7          	jalr	114(ra) # 1164a <printf_uart>
   105e0:	00000097          	auipc	ra,0x0
   105e4:	f9e080e7          	jalr	-98(ra) # 1057e <get_dips>
   105e8:	87aa                	mv	a5,a0
   105ea:	873e                	mv	a4,a5
   105ec:	47ad                	li	a5,11
   105ee:	04f71d63          	bne	a4,a5,10648 <copy_image+0xa8>
   105f2:	07500613          	li	a2,117
   105f6:	0f100593          	li	a1,241
   105fa:	fc843503          	ld	a0,-56(s0)
   105fe:	c55ff0ef          	jal	ra,10252 <get_dev_bar>
   10602:	fea43423          	sd	a0,-24(s0)
   10606:	fe843703          	ld	a4,-24(s0)
   1060a:	57fd                	li	a5,-1
   1060c:	02f70e63          	beq	a4,a5,10648 <copy_image+0xa8>
   10610:	45c5                	li	a1,17
   10612:	67c9                	lui	a5,0x12
   10614:	3d878513          	addi	a0,a5,984 # 123d8 <strnlen+0x2e>
   10618:	00001097          	auipc	ra,0x1
   1061c:	a56080e7          	jalr	-1450(ra) # 1106e <print_uart>
   10620:	00002097          	auipc	ra,0x2
   10624:	a6c080e7          	jalr	-1428(ra) # 1208c <run_from_sdcard>
   10628:	87aa                	mv	a5,a0
   1062a:	873e                	mv	a4,a5
   1062c:	57fd                	li	a5,-1
   1062e:	00f71d63          	bne	a4,a5,10648 <copy_image+0xa8>
   10632:	45c9                	li	a1,18
   10634:	67c9                	lui	a5,0x12
   10636:	3f078513          	addi	a0,a5,1008 # 123f0 <strnlen+0x46>
   1063a:	00001097          	auipc	ra,0x1
   1063e:	a34080e7          	jalr	-1484(ra) # 1106e <print_uart>
   10642:	57fd                	li	a5,-1
   10644:	fef43423          	sd	a5,-24(s0)
   10648:	fe843703          	ld	a4,-24(s0)
   1064c:	57fd                	li	a5,-1
   1064e:	0af71163          	bne	a4,a5,106f0 <copy_image+0x150>
   10652:	fc843783          	ld	a5,-56(s0)
   10656:	43dc                	lw	a5,4(a5)
   10658:	efc1                	bnez	a5,106f0 <copy_image+0x150>
   1065a:	fd043783          	ld	a5,-48(s0)
   1065e:	fcf43023          	sd	a5,-64(s0)
   10662:	fd843783          	ld	a5,-40(s0)
   10666:	faf43c23          	sd	a5,-72(s0)
   1066a:	4785                	li	a5,1
   1066c:	fef42223          	sw	a5,-28(s0)
   10670:	fe042023          	sw	zero,-32(s0)
   10674:	a80d                	j	106a6 <copy_image+0x106>
   10676:	fe042783          	lw	a5,-32(s0)
   1067a:	078e                	slli	a5,a5,0x3
   1067c:	fb843703          	ld	a4,-72(s0)
   10680:	97ba                	add	a5,a5,a4
   10682:	6398                	ld	a4,0(a5)
   10684:	fe042783          	lw	a5,-32(s0)
   10688:	078e                	slli	a5,a5,0x3
   1068a:	fc043683          	ld	a3,-64(s0)
   1068e:	97b6                	add	a5,a5,a3
   10690:	639c                	ld	a5,0(a5)
   10692:	00f70563          	beq	a4,a5,1069c <copy_image+0xfc>
   10696:	fe042223          	sw	zero,-28(s0)
   1069a:	a829                	j	106b4 <copy_image+0x114>
   1069c:	fe042783          	lw	a5,-32(s0)
   106a0:	2785                	addiw	a5,a5,1
   106a2:	fef42023          	sw	a5,-32(s0)
   106a6:	fe042783          	lw	a5,-32(s0)
   106aa:	0007871b          	sext.w	a4,a5
   106ae:	479d                	li	a5,7
   106b0:	fce7d3e3          	ble	a4,a5,10676 <copy_image+0xd6>
   106b4:	fe442783          	lw	a5,-28(s0)
   106b8:	2781                	sext.w	a5,a5
   106ba:	cb91                	beqz	a5,106ce <copy_image+0x12e>
   106bc:	45cd                	li	a1,19
   106be:	67c9                	lui	a5,0x12
   106c0:	40878513          	addi	a0,a5,1032 # 12408 <strnlen+0x5e>
   106c4:	00001097          	auipc	ra,0x1
   106c8:	9aa080e7          	jalr	-1622(ra) # 1106e <print_uart>
   106cc:	a015                	j	106f0 <copy_image+0x150>
   106ce:	45cd                	li	a1,19
   106d0:	67c9                	lui	a5,0x12
   106d2:	42078513          	addi	a0,a5,1056 # 12420 <strnlen+0x76>
   106d6:	00001097          	auipc	ra,0x1
   106da:	998080e7          	jalr	-1640(ra) # 1106e <print_uart>
   106de:	000407b7          	lui	a5,0x40
   106e2:	863e                	mv	a2,a5
   106e4:	fd843583          	ld	a1,-40(s0)
   106e8:	fd043503          	ld	a0,-48(s0)
   106ec:	3ff010ef          	jal	ra,122ea <memcpy>
   106f0:	fc843783          	ld	a5,-56(s0)
   106f4:	20211737          	lui	a4,0x20211
   106f8:	1237071b          	addiw	a4,a4,291
   106fc:	c3d8                	sw	a4,4(a5)
   106fe:	0001                	nop
   10700:	60a6                	ld	ra,72(sp)
   10702:	6406                	ld	s0,64(sp)
   10704:	6161                	addi	sp,sp,80
   10706:	8082                	ret

0000000000010708 <timestamp_output>:
   10708:	1141                	addi	sp,sp,-16
   1070a:	e422                	sd	s0,8(sp)
   1070c:	0800                	addi	s0,sp,16
   1070e:	0001                	nop
   10710:	6422                	ld	s0,8(sp)
   10712:	0141                	addi	sp,sp,16
   10714:	8082                	ret

0000000000010716 <init_pmp>:
   10716:	1101                	addi	sp,sp,-32
   10718:	ec22                	sd	s0,24(sp)
   1071a:	1000                	addi	s0,sp,32
   1071c:	57fd                	li	a5,-1
   1071e:	fef43423          	sd	a5,-24(s0)
   10722:	47fd                	li	a5,31
   10724:	fef43023          	sd	a5,-32(s0)
   10728:	fe843783          	ld	a5,-24(s0)
   1072c:	fe043703          	ld	a4,-32(s0)
   10730:	3b079073          	csrw	pmpaddr0,a5
   10734:	3a071073          	csrw	pmpcfg0,a4
   10738:	0001                	nop
   1073a:	6462                	ld	s0,24(sp)
   1073c:	6105                	addi	sp,sp,32
   1073e:	8082                	ret

0000000000010740 <_init>:
   10740:	715d                	addi	sp,sp,-80
   10742:	e486                	sd	ra,72(sp)
   10744:	e0a2                	sd	s0,64(sp)
   10746:	0880                	addi	s0,sp,80
   10748:	100ff7b7          	lui	a5,0x100ff
   1074c:	fef43423          	sd	a5,-24(s0)
   10750:	100107b7          	lui	a5,0x10010
   10754:	fef43023          	sd	a5,-32(s0)
   10758:	100607b7          	lui	a5,0x10060
   1075c:	fcf43c23          	sd	a5,-40(s0)
   10760:	47a1                	li	a5,8
   10762:	fcf43823          	sd	a5,-48(s0)
   10766:	fd043783          	ld	a5,-48(s0)
   1076a:	3007b073          	csrc	mstatus,a5
   1076e:	6785                	lui	a5,0x1
   10770:	80078793          	addi	a5,a5,-2048 # 800 <_start-0xf800>
   10774:	fcf43823          	sd	a5,-48(s0)
   10778:	fd043783          	ld	a5,-48(s0)
   1077c:	3047b073          	csrc	mie,a5
   10780:	479d                	li	a5,7
   10782:	fcf43823          	sd	a5,-48(s0)
   10786:	fd043783          	ld	a5,-48(s0)
   1078a:	30679073          	csrw	mcounteren,a5
   1078e:	fd043783          	ld	a5,-48(s0)
   10792:	10679073          	csrw	scounteren,a5
   10796:	00000097          	auipc	ra,0x0
   1079a:	f80080e7          	jalr	-128(ra) # 10716 <init_pmp>
   1079e:	fc042023          	sw	zero,-64(s0)
   107a2:	fc044783          	lbu	a5,-64(s0)
   107a6:	0017e793          	ori	a5,a5,1
   107aa:	fcf40023          	sb	a5,-64(s0)
   107ae:	fa042c23          	sw	zero,-72(s0)
   107b2:	fb844783          	lbu	a5,-72(s0)
   107b6:	0017e793          	ori	a5,a5,1
   107ba:	faf40c23          	sb	a5,-72(s0)
   107be:	fe043783          	ld	a5,-32(s0)
   107c2:	0ad00713          	li	a4,173
   107c6:	cf98                	sw	a4,24(a5)
   107c8:	fc042783          	lw	a5,-64(s0)
   107cc:	0007871b          	sext.w	a4,a5
   107d0:	fe043783          	ld	a5,-32(s0)
   107d4:	c798                	sw	a4,8(a5)
   107d6:	fb842783          	lw	a5,-72(s0)
   107da:	0007871b          	sext.w	a4,a5
   107de:	fe043783          	ld	a5,-32(s0)
   107e2:	c7d8                	sw	a4,12(a5)
   107e4:	fd843783          	ld	a5,-40(s0)
   107e8:	473d                	li	a4,15
   107ea:	c3d8                	sw	a4,4(a5)
   107ec:	fd843783          	ld	a5,-40(s0)
   107f0:	6705                	lui	a4,0x1
   107f2:	3741                	addiw	a4,a4,-16
   107f4:	c798                	sw	a4,8(a5)
   107f6:	4505                	li	a0,1
   107f8:	d2bff0ef          	jal	ra,10522 <led_set>
   107fc:	00000097          	auipc	ra,0x0
   10800:	da4080e7          	jalr	-604(ra) # 105a0 <copy_image>
   10804:	4509                	li	a0,2
   10806:	d1dff0ef          	jal	ra,10522 <led_set>
   1080a:	67c9                	lui	a5,0x12
   1080c:	43878593          	addi	a1,a5,1080 # 12438 <strnlen+0x8e>
   10810:	67c9                	lui	a5,0x12
   10812:	44078513          	addi	a0,a5,1088 # 12440 <strnlen+0x96>
   10816:	635000ef          	jal	ra,1164a <printf_uart>
   1081a:	67c9                	lui	a5,0x12
   1081c:	45078593          	addi	a1,a5,1104 # 12450 <strnlen+0xa6>
   10820:	67c9                	lui	a5,0x12
   10822:	45878513          	addi	a0,a5,1112 # 12458 <strnlen+0xae>
   10826:	625000ef          	jal	ra,1164a <printf_uart>
   1082a:	450d                	li	a0,3
   1082c:	cf7ff0ef          	jal	ra,10522 <led_set>
   10830:	6789                	lui	a5,0x2
   10832:	8007879b          	addiw	a5,a5,-2048
   10836:	3007a7f3          	csrrs	a5,mstatus,a5
   1083a:	fcf43423          	sd	a5,-56(s0)
   1083e:	d41ff0ef          	jal	ra,1057e <get_dips>
   10842:	87aa                	mv	a5,a0
   10844:	873e                	mv	a4,a5
   10846:	47bd                	li	a5,15
   10848:	00f71763          	bne	a4,a5,10856 <_init+0x116>
   1084c:	4785                	li	a5,1
   1084e:	07fe                	slli	a5,a5,0x1f
   10850:	34179073          	csrw	mepc,a5
   10854:	a029                	j	1085e <_init+0x11e>
   10856:	080007b7          	lui	a5,0x8000
   1085a:	34179073          	csrw	mepc,a5
   1085e:	0001                	nop
   10860:	60a6                	ld	ra,72(sp)
   10862:	6406                	ld	s0,64(sp)
   10864:	6161                	addi	sp,sp,80
   10866:	8082                	ret

0000000000010868 <main>:
   10868:	1141                	addi	sp,sp,-16
   1086a:	e422                	sd	s0,8(sp)
   1086c:	0800                	addi	s0,sp,16
   1086e:	a001                	j	1086e <main+0x6>
   10870:	0000                	unimp

0000000000010872 <get_dev_bar>:
   10872:	715d                	addi	sp,sp,-80
   10874:	e4a2                	sd	s0,72(sp)
   10876:	0880                	addi	s0,sp,80
   10878:	faa43c23          	sd	a0,-72(s0)
   1087c:	87ae                	mv	a5,a1
   1087e:	8732                	mv	a4,a2
   10880:	faf41b23          	sh	a5,-74(s0)
   10884:	87ba                	mv	a5,a4
   10886:	faf41a23          	sh	a5,-76(s0)
   1088a:	fb843783          	ld	a5,-72(s0)
   1088e:	479c                	lw	a5,8(a5)
   10890:	0087d79b          	srliw	a5,a5,0x8
   10894:	2781                	sext.w	a5,a5
   10896:	2781                	sext.w	a5,a5
   10898:	0ff7f793          	andi	a5,a5,255
   1089c:	fef42023          	sw	a5,-32(s0)
   108a0:	fb843783          	ld	a5,-72(s0)
   108a4:	479c                	lw	a5,8(a5)
   108a6:	0107d79b          	srliw	a5,a5,0x10
   108aa:	2781                	sext.w	a5,a5
   108ac:	2781                	sext.w	a5,a5
   108ae:	0ff7f793          	andi	a5,a5,255
   108b2:	fcf42e23          	sw	a5,-36(s0)
   108b6:	fe042623          	sw	zero,-20(s0)
   108ba:	fe042423          	sw	zero,-24(s0)
   108be:	a82d                	j	108f8 <get_dev_bar+0x86>
   108c0:	fec42783          	lw	a5,-20(s0)
   108c4:	04078793          	addi	a5,a5,64 # 8000040 <_end+0x7feca08>
   108c8:	fb843703          	ld	a4,-72(s0)
   108cc:	97ba                	add	a5,a5,a4
   108ce:	639c                	ld	a5,0(a5)
   108d0:	fcf43823          	sd	a5,-48(s0)
   108d4:	fb843703          	ld	a4,-72(s0)
   108d8:	fec42783          	lw	a5,-20(s0)
   108dc:	97ba                	add	a5,a5,a4
   108de:	0407c783          	lbu	a5,64(a5)
   108e2:	2781                	sext.w	a5,a5
   108e4:	fec42703          	lw	a4,-20(s0)
   108e8:	9fb9                	addw	a5,a5,a4
   108ea:	fef42623          	sw	a5,-20(s0)
   108ee:	fe842783          	lw	a5,-24(s0)
   108f2:	2785                	addiw	a5,a5,1
   108f4:	fef42423          	sw	a5,-24(s0)
   108f8:	fe842703          	lw	a4,-24(s0)
   108fc:	fdc42783          	lw	a5,-36(s0)
   10900:	2701                	sext.w	a4,a4
   10902:	2781                	sext.w	a5,a5
   10904:	faf74ee3          	blt	a4,a5,108c0 <get_dev_bar+0x4e>
   10908:	fe042223          	sw	zero,-28(s0)
   1090c:	a8b5                	j	10988 <get_dev_bar+0x116>
   1090e:	fec42783          	lw	a5,-20(s0)
   10912:	04078793          	addi	a5,a5,64
   10916:	fb843703          	ld	a4,-72(s0)
   1091a:	97ba                	add	a5,a5,a4
   1091c:	639c                	ld	a5,0(a5)
   1091e:	fcf43023          	sd	a5,-64(s0)
   10922:	fec42783          	lw	a5,-20(s0)
   10926:	27a1                	addiw	a5,a5,8
   10928:	2781                	sext.w	a5,a5
   1092a:	04078793          	addi	a5,a5,64
   1092e:	fb843703          	ld	a4,-72(s0)
   10932:	97ba                	add	a5,a5,a4
   10934:	639c                	ld	a5,0(a5)
   10936:	fcf43423          	sd	a5,-56(s0)
   1093a:	fc645783          	lhu	a5,-58(s0)
   1093e:	fb645703          	lhu	a4,-74(s0)
   10942:	2701                	sext.w	a4,a4
   10944:	2781                	sext.w	a5,a5
   10946:	00f71f63          	bne	a4,a5,10964 <get_dev_bar+0xf2>
   1094a:	fc445783          	lhu	a5,-60(s0)
   1094e:	fb445703          	lhu	a4,-76(s0)
   10952:	2701                	sext.w	a4,a4
   10954:	2781                	sext.w	a5,a5
   10956:	00f71763          	bne	a4,a5,10964 <get_dev_bar+0xf2>
   1095a:	fcc42783          	lw	a5,-52(s0)
   1095e:	1782                	slli	a5,a5,0x20
   10960:	9381                	srli	a5,a5,0x20
   10962:	a825                	j	1099a <get_dev_bar+0x128>
   10964:	fb843703          	ld	a4,-72(s0)
   10968:	fec42783          	lw	a5,-20(s0)
   1096c:	97ba                	add	a5,a5,a4
   1096e:	0407c783          	lbu	a5,64(a5)
   10972:	2781                	sext.w	a5,a5
   10974:	fec42703          	lw	a4,-20(s0)
   10978:	9fb9                	addw	a5,a5,a4
   1097a:	fef42623          	sw	a5,-20(s0)
   1097e:	fe442783          	lw	a5,-28(s0)
   10982:	2785                	addiw	a5,a5,1
   10984:	fef42223          	sw	a5,-28(s0)
   10988:	fe442703          	lw	a4,-28(s0)
   1098c:	fe042783          	lw	a5,-32(s0)
   10990:	2701                	sext.w	a4,a4
   10992:	2781                	sext.w	a5,a5
   10994:	f6f74de3          	blt	a4,a5,1090e <get_dev_bar+0x9c>
   10998:	57fd                	li	a5,-1
   1099a:	853e                	mv	a0,a5
   1099c:	6426                	ld	s0,72(sp)
   1099e:	6161                	addi	sp,sp,80
   109a0:	8082                	ret

00000000000109a2 <mpu_region_total>:
   109a2:	1101                	addi	sp,sp,-32
   109a4:	ec22                	sd	s0,24(sp)
   109a6:	1000                	addi	s0,sp,32
   109a8:	fe043423          	sd	zero,-24(s0)
   109ac:	bc4027f3          	csrr	a5,0xbc4
   109b0:	fef43423          	sd	a5,-24(s0)
   109b4:	fe843783          	ld	a5,-24(s0)
   109b8:	83a1                	srli	a5,a5,0x8
   109ba:	2781                	sext.w	a5,a5
   109bc:	853e                	mv	a0,a5
   109be:	6462                	ld	s0,24(sp)
   109c0:	6105                	addi	sp,sp,32
   109c2:	8082                	ret

00000000000109c4 <mpu_disable_region>:
   109c4:	7179                	addi	sp,sp,-48
   109c6:	f422                	sd	s0,40(sp)
   109c8:	1800                	addi	s0,sp,48
   109ca:	87aa                	mv	a5,a0
   109cc:	fcf42e23          	sw	a5,-36(s0)
   109d0:	fe043423          	sd	zero,-24(s0)
   109d4:	fdc42783          	lw	a5,-36(s0)
   109d8:	0ff7f793          	andi	a5,a5,255
   109dc:	fef404a3          	sb	a5,-23(s0)
   109e0:	fe844783          	lbu	a5,-24(s0)
   109e4:	f807e793          	ori	a5,a5,-128
   109e8:	fef40423          	sb	a5,-24(s0)
   109ec:	fe843783          	ld	a5,-24(s0)
   109f0:	bc479073          	csrw	0xbc4,a5
   109f4:	0001                	nop
   109f6:	7422                	ld	s0,40(sp)
   109f8:	6145                	addi	sp,sp,48
   109fa:	8082                	ret

00000000000109fc <mpu_enable_region>:
   109fc:	715d                	addi	sp,sp,-80
   109fe:	e4a2                	sd	s0,72(sp)
   10a00:	0880                	addi	s0,sp,80
   10a02:	87aa                	mv	a5,a0
   10a04:	fcb43023          	sd	a1,-64(s0)
   10a08:	fac43c23          	sd	a2,-72(s0)
   10a0c:	fae43823          	sd	a4,-80(s0)
   10a10:	fcf42623          	sw	a5,-52(s0)
   10a14:	87b6                	mv	a5,a3
   10a16:	fcf42423          	sw	a5,-56(s0)
   10a1a:	c0000793          	li	a5,-1024
   10a1e:	fef43423          	sd	a5,-24(s0)
   10a22:	fb043783          	ld	a5,-80(s0)
   10a26:	fef43023          	sd	a5,-32(s0)
   10a2a:	fc043783          	ld	a5,-64(s0)
   10a2e:	bc279073          	csrw	0xbc2,a5
   10a32:	fb843783          	ld	a5,-72(s0)
   10a36:	8385                	srli	a5,a5,0x1
   10a38:	faf43c23          	sd	a5,-72(s0)
   10a3c:	a819                	j	10a52 <mpu_enable_region+0x56>
   10a3e:	fe843783          	ld	a5,-24(s0)
   10a42:	0786                	slli	a5,a5,0x1
   10a44:	fef43423          	sd	a5,-24(s0)
   10a48:	fb843783          	ld	a5,-72(s0)
   10a4c:	8385                	srli	a5,a5,0x1
   10a4e:	faf43c23          	sd	a5,-72(s0)
   10a52:	fb843783          	ld	a5,-72(s0)
   10a56:	f7e5                	bnez	a5,10a3e <mpu_enable_region+0x42>
   10a58:	fe843783          	ld	a5,-24(s0)
   10a5c:	bc379073          	csrw	0xbc3,a5
   10a60:	fc043c23          	sd	zero,-40(s0)
   10a64:	fcc42783          	lw	a5,-52(s0)
   10a68:	0ff7f793          	andi	a5,a5,255
   10a6c:	fcf40ca3          	sb	a5,-39(s0)
   10a70:	fd844783          	lbu	a5,-40(s0)
   10a74:	0107e793          	ori	a5,a5,16
   10a78:	fcf40c23          	sb	a5,-40(s0)
   10a7c:	fc842783          	lw	a5,-56(s0)
   10a80:	8b85                	andi	a5,a5,1
   10a82:	0ff7f793          	andi	a5,a5,255
   10a86:	8b85                	andi	a5,a5,1
   10a88:	0037969b          	slliw	a3,a5,0x3
   10a8c:	fd844783          	lbu	a5,-40(s0)
   10a90:	9bdd                	andi	a5,a5,-9
   10a92:	873e                	mv	a4,a5
   10a94:	87b6                	mv	a5,a3
   10a96:	8fd9                	or	a5,a5,a4
   10a98:	fcf40c23          	sb	a5,-40(s0)
   10a9c:	fd844783          	lbu	a5,-40(s0)
   10aa0:	f807e793          	ori	a5,a5,-128
   10aa4:	fcf40c23          	sb	a5,-40(s0)
   10aa8:	a09d                	j	10b0e <mpu_enable_region+0x112>
   10aaa:	fe043783          	ld	a5,-32(s0)
   10aae:	0007c783          	lbu	a5,0(a5)
   10ab2:	873e                	mv	a4,a5
   10ab4:	07200793          	li	a5,114
   10ab8:	00f71863          	bne	a4,a5,10ac8 <mpu_enable_region+0xcc>
   10abc:	fd844783          	lbu	a5,-40(s0)
   10ac0:	0027e793          	ori	a5,a5,2
   10ac4:	fcf40c23          	sb	a5,-40(s0)
   10ac8:	fe043783          	ld	a5,-32(s0)
   10acc:	0007c783          	lbu	a5,0(a5)
   10ad0:	873e                	mv	a4,a5
   10ad2:	07700793          	li	a5,119
   10ad6:	00f71863          	bne	a4,a5,10ae6 <mpu_enable_region+0xea>
   10ada:	fd844783          	lbu	a5,-40(s0)
   10ade:	0017e793          	ori	a5,a5,1
   10ae2:	fcf40c23          	sb	a5,-40(s0)
   10ae6:	fe043783          	ld	a5,-32(s0)
   10aea:	0007c783          	lbu	a5,0(a5)
   10aee:	873e                	mv	a4,a5
   10af0:	07800793          	li	a5,120
   10af4:	00f71863          	bne	a4,a5,10b04 <mpu_enable_region+0x108>
   10af8:	fd844783          	lbu	a5,-40(s0)
   10afc:	0047e793          	ori	a5,a5,4
   10b00:	fcf40c23          	sb	a5,-40(s0)
   10b04:	fe043783          	ld	a5,-32(s0)
   10b08:	0785                	addi	a5,a5,1
   10b0a:	fef43023          	sd	a5,-32(s0)
   10b0e:	fe043783          	ld	a5,-32(s0)
   10b12:	0007c783          	lbu	a5,0(a5)
   10b16:	fbd1                	bnez	a5,10aaa <mpu_enable_region+0xae>
   10b18:	fd843783          	ld	a5,-40(s0)
   10b1c:	bc479073          	csrw	0xbc4,a5
   10b20:	0001                	nop
   10b22:	6426                	ld	s0,72(sp)
   10b24:	6161                	addi	sp,sp,80
   10b26:	8082                	ret

0000000000010b28 <get_mcause>:
   10b28:	1101                	addi	sp,sp,-32
   10b2a:	ec22                	sd	s0,24(sp)
   10b2c:	1000                	addi	s0,sp,32
   10b2e:	342027f3          	csrr	a5,mcause
   10b32:	fef42623          	sw	a5,-20(s0)
   10b36:	fec42783          	lw	a5,-20(s0)
   10b3a:	853e                	mv	a0,a5
   10b3c:	6462                	ld	s0,24(sp)
   10b3e:	6105                	addi	sp,sp,32
   10b40:	8082                	ret

0000000000010b42 <get_mepc>:
   10b42:	1101                	addi	sp,sp,-32
   10b44:	ec22                	sd	s0,24(sp)
   10b46:	1000                	addi	s0,sp,32
   10b48:	341027f3          	csrr	a5,mepc
   10b4c:	fef42623          	sw	a5,-20(s0)
   10b50:	fec42783          	lw	a5,-20(s0)
   10b54:	853e                	mv	a0,a5
   10b56:	6462                	ld	s0,24(sp)
   10b58:	6105                	addi	sp,sp,32
   10b5a:	8082                	ret

0000000000010b5c <env_call>:
   10b5c:	7179                	addi	sp,sp,-48
   10b5e:	f406                	sd	ra,40(sp)
   10b60:	f022                	sd	s0,32(sp)
   10b62:	1800                	addi	s0,sp,48
   10b64:	fca43c23          	sd	a0,-40(s0)
   10b68:	fd843783          	ld	a5,-40(s0)
   10b6c:	c7bd                	beqz	a5,10bda <env_call+0x7e>
   10b6e:	45b5                	li	a1,13
   10b70:	67c9                	lui	a5,0x12
   10b72:	46878513          	addi	a0,a5,1128 # 12468 <strnlen+0xbe>
   10b76:	00000097          	auipc	ra,0x0
   10b7a:	4f8080e7          	jalr	1272(ra) # 1106e <print_uart>
   10b7e:	458d                	li	a1,3
   10b80:	67c9                	lui	a5,0x12
   10b82:	47878513          	addi	a0,a5,1144 # 12478 <strnlen+0xce>
   10b86:	00000097          	auipc	ra,0x0
   10b8a:	4e8080e7          	jalr	1256(ra) # 1106e <print_uart>
   10b8e:	fd843503          	ld	a0,-40(s0)
   10b92:	54e000ef          	jal	ra,110e0 <print_uart_hex>
   10b96:	4589                	li	a1,2
   10b98:	67c9                	lui	a5,0x12
   10b9a:	48078513          	addi	a0,a5,1152 # 12480 <strnlen+0xd6>
   10b9e:	00000097          	auipc	ra,0x0
   10ba2:	4d0080e7          	jalr	1232(ra) # 1106e <print_uart>
   10ba6:	343027f3          	csrr	a5,mbadaddr
   10baa:	fef42623          	sw	a5,-20(s0)
   10bae:	45a5                	li	a1,9
   10bb0:	67c9                	lui	a5,0x12
   10bb2:	48878513          	addi	a0,a5,1160 # 12488 <strnlen+0xde>
   10bb6:	00000097          	auipc	ra,0x0
   10bba:	4b8080e7          	jalr	1208(ra) # 1106e <print_uart>
   10bbe:	fec42783          	lw	a5,-20(s0)
   10bc2:	853e                	mv	a0,a5
   10bc4:	51c000ef          	jal	ra,110e0 <print_uart_hex>
   10bc8:	4589                	li	a1,2
   10bca:	67c9                	lui	a5,0x12
   10bcc:	48078513          	addi	a0,a5,1152 # 12480 <strnlen+0xd6>
   10bd0:	00000097          	auipc	ra,0x0
   10bd4:	49e080e7          	jalr	1182(ra) # 1106e <print_uart>
   10bd8:	a809                	j	10bea <env_call+0x8e>
   10bda:	45b5                	li	a1,13
   10bdc:	67c9                	lui	a5,0x12
   10bde:	49878513          	addi	a0,a5,1176 # 12498 <strnlen+0xee>
   10be2:	00000097          	auipc	ra,0x0
   10be6:	48c080e7          	jalr	1164(ra) # 1106e <print_uart>
   10bea:	a001                	j	10bea <env_call+0x8e>

0000000000010bec <exception_handler_c>:
   10bec:	7179                	addi	sp,sp,-48
   10bee:	f406                	sd	ra,40(sp)
   10bf0:	f022                	sd	s0,32(sp)
   10bf2:	1800                	addi	s0,sp,48
   10bf4:	fca43c23          	sd	a0,-40(s0)
   10bf8:	00000097          	auipc	ra,0x0
   10bfc:	f30080e7          	jalr	-208(ra) # 10b28 <get_mcause>
   10c00:	87aa                	mv	a5,a0
   10c02:	fef42623          	sw	a5,-20(s0)
   10c06:	fec42783          	lw	a5,-20(s0)
   10c0a:	37e1                	addiw	a5,a5,-8
   10c0c:	0007871b          	sext.w	a4,a5
   10c10:	4785                	li	a5,1
   10c12:	00e7e963          	bltu	a5,a4,10c24 <exception_handler_c+0x38>
   10c16:	fd843503          	ld	a0,-40(s0)
   10c1a:	00000097          	auipc	ra,0x0
   10c1e:	f42080e7          	jalr	-190(ra) # 10b5c <env_call>
   10c22:	a0b9                	j	10c70 <exception_handler_c+0x84>
   10c24:	459d                	li	a1,7
   10c26:	67c9                	lui	a5,0x12
   10c28:	4a878513          	addi	a0,a5,1192 # 124a8 <strnlen+0xfe>
   10c2c:	442000ef          	jal	ra,1106e <print_uart>
   10c30:	fec42783          	lw	a5,-20(s0)
   10c34:	853e                	mv	a0,a5
   10c36:	00000097          	auipc	ra,0x0
   10c3a:	4aa080e7          	jalr	1194(ra) # 110e0 <print_uart_hex>
   10c3e:	4599                	li	a1,6
   10c40:	67c9                	lui	a5,0x12
   10c42:	4b078513          	addi	a0,a5,1200 # 124b0 <strnlen+0x106>
   10c46:	428000ef          	jal	ra,1106e <print_uart>
   10c4a:	ef9ff0ef          	jal	ra,10b42 <get_mepc>
   10c4e:	87aa                	mv	a5,a0
   10c50:	853e                	mv	a0,a5
   10c52:	00000097          	auipc	ra,0x0
   10c56:	48e080e7          	jalr	1166(ra) # 110e0 <print_uart_hex>
   10c5a:	4589                	li	a1,2
   10c5c:	67c9                	lui	a5,0x12
   10c5e:	48078513          	addi	a0,a5,1152 # 12480 <strnlen+0xd6>
   10c62:	40c000ef          	jal	ra,1106e <print_uart>
   10c66:	0f000513          	li	a0,240
   10c6a:	8b9ff0ef          	jal	ra,10522 <led_set>
   10c6e:	a001                	j	10c6e <exception_handler_c+0x82>
   10c70:	70a2                	ld	ra,40(sp)
   10c72:	7402                	ld	s0,32(sp)
   10c74:	6145                	addi	sp,sp,48
   10c76:	8082                	ret

0000000000010c78 <fatal_error>:
   10c78:	1141                	addi	sp,sp,-16
   10c7a:	e406                	sd	ra,8(sp)
   10c7c:	e022                	sd	s0,0(sp)
   10c7e:	0800                	addi	s0,sp,16
   10c80:	0f000513          	li	a0,240
   10c84:	00000097          	auipc	ra,0x0
   10c88:	89e080e7          	jalr	-1890(ra) # 10522 <led_set>
   10c8c:	45bd                	li	a1,15
   10c8e:	67c9                	lui	a5,0x12
   10c90:	4b878513          	addi	a0,a5,1208 # 124b8 <strnlen+0x10e>
   10c94:	00000097          	auipc	ra,0x0
   10c98:	3da080e7          	jalr	986(ra) # 1106e <print_uart>
   10c9c:	a001                	j	10c9c <fatal_error+0x24>

0000000000010c9e <plic_claim>:
   10c9e:	7179                	addi	sp,sp,-48
   10ca0:	f422                	sd	s0,40(sp)
   10ca2:	1800                	addi	s0,sp,48
   10ca4:	87aa                	mv	a5,a0
   10ca6:	fcf42e23          	sw	a5,-36(s0)
   10caa:	0c0007b7          	lui	a5,0xc000
   10cae:	fef43423          	sd	a5,-24(s0)
   10cb2:	fe843703          	ld	a4,-24(s0)
   10cb6:	fdc42783          	lw	a5,-36(s0)
   10cba:	20078793          	addi	a5,a5,512 # c000200 <_end+0xbfecbc8>
   10cbe:	07b2                	slli	a5,a5,0xc
   10cc0:	97ba                	add	a5,a5,a4
   10cc2:	43dc                	lw	a5,4(a5)
   10cc4:	2781                	sext.w	a5,a5
   10cc6:	853e                	mv	a0,a5
   10cc8:	7422                	ld	s0,40(sp)
   10cca:	6145                	addi	sp,sp,48
   10ccc:	8082                	ret

0000000000010cce <plic_complete>:
   10cce:	7179                	addi	sp,sp,-48
   10cd0:	f422                	sd	s0,40(sp)
   10cd2:	1800                	addi	s0,sp,48
   10cd4:	87aa                	mv	a5,a0
   10cd6:	872e                	mv	a4,a1
   10cd8:	fcf42e23          	sw	a5,-36(s0)
   10cdc:	87ba                	mv	a5,a4
   10cde:	fcf42c23          	sw	a5,-40(s0)
   10ce2:	0c0007b7          	lui	a5,0xc000
   10ce6:	fef43423          	sd	a5,-24(s0)
   10cea:	fd842703          	lw	a4,-40(s0)
   10cee:	fe843683          	ld	a3,-24(s0)
   10cf2:	fdc42783          	lw	a5,-36(s0)
   10cf6:	20078793          	addi	a5,a5,512 # c000200 <_end+0xbfecbc8>
   10cfa:	07b2                	slli	a5,a5,0xc
   10cfc:	97b6                	add	a5,a5,a3
   10cfe:	c3d8                	sw	a4,4(a5)
   10d00:	0001                	nop
   10d02:	7422                	ld	s0,40(sp)
   10d04:	6145                	addi	sp,sp,48
   10d06:	8082                	ret

0000000000010d08 <interrupt_handler_c>:
   10d08:	7139                	addi	sp,sp,-64
   10d0a:	fc06                	sd	ra,56(sp)
   10d0c:	f822                	sd	s0,48(sp)
   10d0e:	0080                	addi	s0,sp,64
   10d10:	fca43c23          	sd	a0,-40(s0)
   10d14:	fcb43823          	sd	a1,-48(s0)
   10d18:	fcc43423          	sd	a2,-56(s0)
   10d1c:	fd843783          	ld	a5,-40(s0)
   10d20:	fef43023          	sd	a5,-32(s0)
   10d24:	fe744783          	lbu	a5,-25(s0)
   10d28:	f807f793          	andi	a5,a5,-128
   10d2c:	0ff7f793          	andi	a5,a5,255
   10d30:	cb85                	beqz	a5,10d60 <interrupt_handler_c+0x58>
   10d32:	fe043703          	ld	a4,-32(s0)
   10d36:	57fd                	li	a5,-1
   10d38:	8385                	srli	a5,a5,0x1
   10d3a:	8f7d                	and	a4,a4,a5
   10d3c:	47ad                	li	a5,11
   10d3e:	02f71163          	bne	a4,a5,10d60 <interrupt_handler_c+0x58>
   10d42:	4501                	li	a0,0
   10d44:	f5bff0ef          	jal	ra,10c9e <plic_claim>
   10d48:	87aa                	mv	a5,a0
   10d4a:	fef42623          	sw	a5,-20(s0)
   10d4e:	fec42783          	lw	a5,-20(s0)
   10d52:	85be                	mv	a1,a5
   10d54:	4501                	li	a0,0
   10d56:	00000097          	auipc	ra,0x0
   10d5a:	f78080e7          	jalr	-136(ra) # 10cce <plic_complete>
   10d5e:	a029                	j	10d68 <interrupt_handler_c+0x60>
   10d60:	00000097          	auipc	ra,0x0
   10d64:	f18080e7          	jalr	-232(ra) # 10c78 <fatal_error>
   10d68:	fd043783          	ld	a5,-48(s0)
   10d6c:	853e                	mv	a0,a5
   10d6e:	70e2                	ld	ra,56(sp)
   10d70:	7442                	ld	s0,48(sp)
   10d72:	6121                	addi	sp,sp,64
   10d74:	8082                	ret

0000000000010d76 <get_dev_bar>:
   10d76:	715d                	addi	sp,sp,-80
   10d78:	e4a2                	sd	s0,72(sp)
   10d7a:	0880                	addi	s0,sp,80
   10d7c:	faa43c23          	sd	a0,-72(s0)
   10d80:	87ae                	mv	a5,a1
   10d82:	8732                	mv	a4,a2
   10d84:	faf41b23          	sh	a5,-74(s0)
   10d88:	87ba                	mv	a5,a4
   10d8a:	faf41a23          	sh	a5,-76(s0)
   10d8e:	fb843783          	ld	a5,-72(s0)
   10d92:	479c                	lw	a5,8(a5)
   10d94:	0087d79b          	srliw	a5,a5,0x8
   10d98:	2781                	sext.w	a5,a5
   10d9a:	2781                	sext.w	a5,a5
   10d9c:	0ff7f793          	andi	a5,a5,255
   10da0:	fef42023          	sw	a5,-32(s0)
   10da4:	fb843783          	ld	a5,-72(s0)
   10da8:	479c                	lw	a5,8(a5)
   10daa:	0107d79b          	srliw	a5,a5,0x10
   10dae:	2781                	sext.w	a5,a5
   10db0:	2781                	sext.w	a5,a5
   10db2:	0ff7f793          	andi	a5,a5,255
   10db6:	fcf42e23          	sw	a5,-36(s0)
   10dba:	fe042623          	sw	zero,-20(s0)
   10dbe:	fe042423          	sw	zero,-24(s0)
   10dc2:	a82d                	j	10dfc <get_dev_bar+0x86>
   10dc4:	fec42783          	lw	a5,-20(s0)
   10dc8:	04078793          	addi	a5,a5,64
   10dcc:	fb843703          	ld	a4,-72(s0)
   10dd0:	97ba                	add	a5,a5,a4
   10dd2:	639c                	ld	a5,0(a5)
   10dd4:	fcf43823          	sd	a5,-48(s0)
   10dd8:	fb843703          	ld	a4,-72(s0)
   10ddc:	fec42783          	lw	a5,-20(s0)
   10de0:	97ba                	add	a5,a5,a4
   10de2:	0407c783          	lbu	a5,64(a5)
   10de6:	2781                	sext.w	a5,a5
   10de8:	fec42703          	lw	a4,-20(s0)
   10dec:	9fb9                	addw	a5,a5,a4
   10dee:	fef42623          	sw	a5,-20(s0)
   10df2:	fe842783          	lw	a5,-24(s0)
   10df6:	2785                	addiw	a5,a5,1
   10df8:	fef42423          	sw	a5,-24(s0)
   10dfc:	fe842703          	lw	a4,-24(s0)
   10e00:	fdc42783          	lw	a5,-36(s0)
   10e04:	2701                	sext.w	a4,a4
   10e06:	2781                	sext.w	a5,a5
   10e08:	faf74ee3          	blt	a4,a5,10dc4 <get_dev_bar+0x4e>
   10e0c:	fe042223          	sw	zero,-28(s0)
   10e10:	a8b5                	j	10e8c <get_dev_bar+0x116>
   10e12:	fec42783          	lw	a5,-20(s0)
   10e16:	04078793          	addi	a5,a5,64
   10e1a:	fb843703          	ld	a4,-72(s0)
   10e1e:	97ba                	add	a5,a5,a4
   10e20:	639c                	ld	a5,0(a5)
   10e22:	fcf43023          	sd	a5,-64(s0)
   10e26:	fec42783          	lw	a5,-20(s0)
   10e2a:	27a1                	addiw	a5,a5,8
   10e2c:	2781                	sext.w	a5,a5
   10e2e:	04078793          	addi	a5,a5,64
   10e32:	fb843703          	ld	a4,-72(s0)
   10e36:	97ba                	add	a5,a5,a4
   10e38:	639c                	ld	a5,0(a5)
   10e3a:	fcf43423          	sd	a5,-56(s0)
   10e3e:	fc645783          	lhu	a5,-58(s0)
   10e42:	fb645703          	lhu	a4,-74(s0)
   10e46:	2701                	sext.w	a4,a4
   10e48:	2781                	sext.w	a5,a5
   10e4a:	00f71f63          	bne	a4,a5,10e68 <get_dev_bar+0xf2>
   10e4e:	fc445783          	lhu	a5,-60(s0)
   10e52:	fb445703          	lhu	a4,-76(s0)
   10e56:	2701                	sext.w	a4,a4
   10e58:	2781                	sext.w	a5,a5
   10e5a:	00f71763          	bne	a4,a5,10e68 <get_dev_bar+0xf2>
   10e5e:	fcc42783          	lw	a5,-52(s0)
   10e62:	1782                	slli	a5,a5,0x20
   10e64:	9381                	srli	a5,a5,0x20
   10e66:	a825                	j	10e9e <get_dev_bar+0x128>
   10e68:	fb843703          	ld	a4,-72(s0)
   10e6c:	fec42783          	lw	a5,-20(s0)
   10e70:	97ba                	add	a5,a5,a4
   10e72:	0407c783          	lbu	a5,64(a5)
   10e76:	2781                	sext.w	a5,a5
   10e78:	fec42703          	lw	a4,-20(s0)
   10e7c:	9fb9                	addw	a5,a5,a4
   10e7e:	fef42623          	sw	a5,-20(s0)
   10e82:	fe442783          	lw	a5,-28(s0)
   10e86:	2785                	addiw	a5,a5,1
   10e88:	fef42223          	sw	a5,-28(s0)
   10e8c:	fe442703          	lw	a4,-28(s0)
   10e90:	fe042783          	lw	a5,-32(s0)
   10e94:	2701                	sext.w	a4,a4
   10e96:	2781                	sext.w	a5,a5
   10e98:	f6f74de3          	blt	a4,a5,10e12 <get_dev_bar+0x9c>
   10e9c:	57fd                	li	a5,-1
   10e9e:	853e                	mv	a0,a5
   10ea0:	6426                	ld	s0,72(sp)
   10ea2:	6161                	addi	sp,sp,80
   10ea4:	8082                	ret

0000000000010ea6 <mpu_region_total>:
   10ea6:	1101                	addi	sp,sp,-32
   10ea8:	ec22                	sd	s0,24(sp)
   10eaa:	1000                	addi	s0,sp,32
   10eac:	fe043423          	sd	zero,-24(s0)
   10eb0:	bc4027f3          	csrr	a5,0xbc4
   10eb4:	fef43423          	sd	a5,-24(s0)
   10eb8:	fe843783          	ld	a5,-24(s0)
   10ebc:	83a1                	srli	a5,a5,0x8
   10ebe:	2781                	sext.w	a5,a5
   10ec0:	853e                	mv	a0,a5
   10ec2:	6462                	ld	s0,24(sp)
   10ec4:	6105                	addi	sp,sp,32
   10ec6:	8082                	ret

0000000000010ec8 <mpu_disable_region>:
   10ec8:	7179                	addi	sp,sp,-48
   10eca:	f422                	sd	s0,40(sp)
   10ecc:	1800                	addi	s0,sp,48
   10ece:	87aa                	mv	a5,a0
   10ed0:	fcf42e23          	sw	a5,-36(s0)
   10ed4:	fe043423          	sd	zero,-24(s0)
   10ed8:	fdc42783          	lw	a5,-36(s0)
   10edc:	0ff7f793          	andi	a5,a5,255
   10ee0:	fef404a3          	sb	a5,-23(s0)
   10ee4:	fe844783          	lbu	a5,-24(s0)
   10ee8:	f807e793          	ori	a5,a5,-128
   10eec:	fef40423          	sb	a5,-24(s0)
   10ef0:	fe843783          	ld	a5,-24(s0)
   10ef4:	bc479073          	csrw	0xbc4,a5
   10ef8:	0001                	nop
   10efa:	7422                	ld	s0,40(sp)
   10efc:	6145                	addi	sp,sp,48
   10efe:	8082                	ret

0000000000010f00 <mpu_enable_region>:
   10f00:	715d                	addi	sp,sp,-80
   10f02:	e4a2                	sd	s0,72(sp)
   10f04:	0880                	addi	s0,sp,80
   10f06:	87aa                	mv	a5,a0
   10f08:	fcb43023          	sd	a1,-64(s0)
   10f0c:	fac43c23          	sd	a2,-72(s0)
   10f10:	fae43823          	sd	a4,-80(s0)
   10f14:	fcf42623          	sw	a5,-52(s0)
   10f18:	87b6                	mv	a5,a3
   10f1a:	fcf42423          	sw	a5,-56(s0)
   10f1e:	c0000793          	li	a5,-1024
   10f22:	fef43423          	sd	a5,-24(s0)
   10f26:	fb043783          	ld	a5,-80(s0)
   10f2a:	fef43023          	sd	a5,-32(s0)
   10f2e:	fc043783          	ld	a5,-64(s0)
   10f32:	bc279073          	csrw	0xbc2,a5
   10f36:	fb843783          	ld	a5,-72(s0)
   10f3a:	8385                	srli	a5,a5,0x1
   10f3c:	faf43c23          	sd	a5,-72(s0)
   10f40:	a819                	j	10f56 <mpu_enable_region+0x56>
   10f42:	fe843783          	ld	a5,-24(s0)
   10f46:	0786                	slli	a5,a5,0x1
   10f48:	fef43423          	sd	a5,-24(s0)
   10f4c:	fb843783          	ld	a5,-72(s0)
   10f50:	8385                	srli	a5,a5,0x1
   10f52:	faf43c23          	sd	a5,-72(s0)
   10f56:	fb843783          	ld	a5,-72(s0)
   10f5a:	f7e5                	bnez	a5,10f42 <mpu_enable_region+0x42>
   10f5c:	fe843783          	ld	a5,-24(s0)
   10f60:	bc379073          	csrw	0xbc3,a5
   10f64:	fc043c23          	sd	zero,-40(s0)
   10f68:	fcc42783          	lw	a5,-52(s0)
   10f6c:	0ff7f793          	andi	a5,a5,255
   10f70:	fcf40ca3          	sb	a5,-39(s0)
   10f74:	fd844783          	lbu	a5,-40(s0)
   10f78:	0107e793          	ori	a5,a5,16
   10f7c:	fcf40c23          	sb	a5,-40(s0)
   10f80:	fc842783          	lw	a5,-56(s0)
   10f84:	8b85                	andi	a5,a5,1
   10f86:	0ff7f793          	andi	a5,a5,255
   10f8a:	8b85                	andi	a5,a5,1
   10f8c:	0037969b          	slliw	a3,a5,0x3
   10f90:	fd844783          	lbu	a5,-40(s0)
   10f94:	9bdd                	andi	a5,a5,-9
   10f96:	873e                	mv	a4,a5
   10f98:	87b6                	mv	a5,a3
   10f9a:	8fd9                	or	a5,a5,a4
   10f9c:	fcf40c23          	sb	a5,-40(s0)
   10fa0:	fd844783          	lbu	a5,-40(s0)
   10fa4:	f807e793          	ori	a5,a5,-128
   10fa8:	fcf40c23          	sb	a5,-40(s0)
   10fac:	a09d                	j	11012 <mpu_enable_region+0x112>
   10fae:	fe043783          	ld	a5,-32(s0)
   10fb2:	0007c783          	lbu	a5,0(a5)
   10fb6:	873e                	mv	a4,a5
   10fb8:	07200793          	li	a5,114
   10fbc:	00f71863          	bne	a4,a5,10fcc <mpu_enable_region+0xcc>
   10fc0:	fd844783          	lbu	a5,-40(s0)
   10fc4:	0027e793          	ori	a5,a5,2
   10fc8:	fcf40c23          	sb	a5,-40(s0)
   10fcc:	fe043783          	ld	a5,-32(s0)
   10fd0:	0007c783          	lbu	a5,0(a5)
   10fd4:	873e                	mv	a4,a5
   10fd6:	07700793          	li	a5,119
   10fda:	00f71863          	bne	a4,a5,10fea <mpu_enable_region+0xea>
   10fde:	fd844783          	lbu	a5,-40(s0)
   10fe2:	0017e793          	ori	a5,a5,1
   10fe6:	fcf40c23          	sb	a5,-40(s0)
   10fea:	fe043783          	ld	a5,-32(s0)
   10fee:	0007c783          	lbu	a5,0(a5)
   10ff2:	873e                	mv	a4,a5
   10ff4:	07800793          	li	a5,120
   10ff8:	00f71863          	bne	a4,a5,11008 <mpu_enable_region+0x108>
   10ffc:	fd844783          	lbu	a5,-40(s0)
   11000:	0047e793          	ori	a5,a5,4
   11004:	fcf40c23          	sb	a5,-40(s0)
   11008:	fe043783          	ld	a5,-32(s0)
   1100c:	0785                	addi	a5,a5,1
   1100e:	fef43023          	sd	a5,-32(s0)
   11012:	fe043783          	ld	a5,-32(s0)
   11016:	0007c783          	lbu	a5,0(a5)
   1101a:	fbd1                	bnez	a5,10fae <mpu_enable_region+0xae>
   1101c:	fd843783          	ld	a5,-40(s0)
   11020:	bc479073          	csrw	0xbc4,a5
   11024:	0001                	nop
   11026:	6426                	ld	s0,72(sp)
   11028:	6161                	addi	sp,sp,80
   1102a:	8082                	ret

000000000001102c <print_char>:
   1102c:	7179                	addi	sp,sp,-48
   1102e:	f422                	sd	s0,40(sp)
   11030:	1800                	addi	s0,sp,48
   11032:	87aa                	mv	a5,a0
   11034:	fcf42e23          	sw	a5,-36(s0)
   11038:	100107b7          	lui	a5,0x10010
   1103c:	fef43423          	sd	a5,-24(s0)
   11040:	fe843783          	ld	a5,-24(s0)
   11044:	439c                	lw	a5,0(a5)
   11046:	2781                	sext.w	a5,a5
   11048:	fef42023          	sw	a5,-32(s0)
   1104c:	fe344783          	lbu	a5,-29(s0)
   11050:	f807f793          	andi	a5,a5,-128
   11054:	0ff7f793          	andi	a5,a5,255
   11058:	f7e5                	bnez	a5,11040 <print_char+0x14>
   1105a:	fdc42703          	lw	a4,-36(s0)
   1105e:	fe843783          	ld	a5,-24(s0)
   11062:	c398                	sw	a4,0(a5)
   11064:	4781                	li	a5,0
   11066:	853e                	mv	a0,a5
   11068:	7422                	ld	s0,40(sp)
   1106a:	6145                	addi	sp,sp,48
   1106c:	8082                	ret

000000000001106e <print_uart>:
   1106e:	7139                	addi	sp,sp,-64
   11070:	fc22                	sd	s0,56(sp)
   11072:	0080                	addi	s0,sp,64
   11074:	fca43423          	sd	a0,-56(s0)
   11078:	87ae                	mv	a5,a1
   1107a:	fcf42223          	sw	a5,-60(s0)
   1107e:	100107b7          	lui	a5,0x10010
   11082:	fef43023          	sd	a5,-32(s0)
   11086:	fe042623          	sw	zero,-20(s0)
   1108a:	a83d                	j	110c8 <print_uart+0x5a>
   1108c:	fe043783          	ld	a5,-32(s0)
   11090:	439c                	lw	a5,0(a5)
   11092:	2781                	sext.w	a5,a5
   11094:	fcf42c23          	sw	a5,-40(s0)
   11098:	fdb44783          	lbu	a5,-37(s0)
   1109c:	f807f793          	andi	a5,a5,-128
   110a0:	0ff7f793          	andi	a5,a5,255
   110a4:	f7e5                	bnez	a5,1108c <print_uart+0x1e>
   110a6:	fec42783          	lw	a5,-20(s0)
   110aa:	fc843703          	ld	a4,-56(s0)
   110ae:	97ba                	add	a5,a5,a4
   110b0:	0007c783          	lbu	a5,0(a5) # 10010000 <_end+0xfffc9c8>
   110b4:	0007871b          	sext.w	a4,a5
   110b8:	fe043783          	ld	a5,-32(s0)
   110bc:	c398                	sw	a4,0(a5)
   110be:	fec42783          	lw	a5,-20(s0)
   110c2:	2785                	addiw	a5,a5,1
   110c4:	fef42623          	sw	a5,-20(s0)
   110c8:	fec42703          	lw	a4,-20(s0)
   110cc:	fc442783          	lw	a5,-60(s0)
   110d0:	2701                	sext.w	a4,a4
   110d2:	2781                	sext.w	a5,a5
   110d4:	faf74ce3          	blt	a4,a5,1108c <print_uart+0x1e>
   110d8:	0001                	nop
   110da:	7462                	ld	s0,56(sp)
   110dc:	6121                	addi	sp,sp,64
   110de:	8082                	ret

00000000000110e0 <print_uart_hex>:
   110e0:	7139                	addi	sp,sp,-64
   110e2:	fc22                	sd	s0,56(sp)
   110e4:	0080                	addi	s0,sp,64
   110e6:	fca43423          	sd	a0,-56(s0)
   110ea:	100107b7          	lui	a5,0x10010
   110ee:	fef43023          	sd	a5,-32(s0)
   110f2:	fe042423          	sw	zero,-24(s0)
   110f6:	a041                	j	11176 <print_uart_hex+0x96>
   110f8:	fe043783          	ld	a5,-32(s0)
   110fc:	439c                	lw	a5,0(a5)
   110fe:	2781                	sext.w	a5,a5
   11100:	fcf42c23          	sw	a5,-40(s0)
   11104:	fdb44783          	lbu	a5,-37(s0)
   11108:	f807f793          	andi	a5,a5,-128
   1110c:	0ff7f793          	andi	a5,a5,255
   11110:	f7e5                	bnez	a5,110f8 <print_uart_hex+0x18>
   11112:	473d                	li	a4,15
   11114:	fe842783          	lw	a5,-24(s0)
   11118:	40f707bb          	subw	a5,a4,a5
   1111c:	2781                	sext.w	a5,a5
   1111e:	0027979b          	slliw	a5,a5,0x2
   11122:	2781                	sext.w	a5,a5
   11124:	fc843703          	ld	a4,-56(s0)
   11128:	40f757b3          	sra	a5,a4,a5
   1112c:	0ff7f793          	andi	a5,a5,255
   11130:	8bbd                	andi	a5,a5,15
   11132:	fcf40fa3          	sb	a5,-33(s0)
   11136:	fdf44783          	lbu	a5,-33(s0)
   1113a:	0ff7f713          	andi	a4,a5,255
   1113e:	47a5                	li	a5,9
   11140:	00e7e963          	bltu	a5,a4,11152 <print_uart_hex+0x72>
   11144:	fdf44783          	lbu	a5,-33(s0)
   11148:	0307879b          	addiw	a5,a5,48
   1114c:	fef407a3          	sb	a5,-17(s0)
   11150:	a039                	j	1115e <print_uart_hex+0x7e>
   11152:	fdf44783          	lbu	a5,-33(s0)
   11156:	0577879b          	addiw	a5,a5,87
   1115a:	fef407a3          	sb	a5,-17(s0)
   1115e:	fef44783          	lbu	a5,-17(s0)
   11162:	0007871b          	sext.w	a4,a5
   11166:	fe043783          	ld	a5,-32(s0)
   1116a:	c398                	sw	a4,0(a5)
   1116c:	fe842783          	lw	a5,-24(s0)
   11170:	2785                	addiw	a5,a5,1
   11172:	fef42423          	sw	a5,-24(s0)
   11176:	fe842783          	lw	a5,-24(s0)
   1117a:	0007871b          	sext.w	a4,a5
   1117e:	47bd                	li	a5,15
   11180:	f6e7dce3          	ble	a4,a5,110f8 <print_uart_hex+0x18>
   11184:	0001                	nop
   11186:	7462                	ld	s0,56(sp)
   11188:	6121                	addi	sp,sp,64
   1118a:	8082                	ret

000000000001118c <printnum>:
   1118c:	7119                	addi	sp,sp,-128
   1118e:	fc86                	sd	ra,120(sp)
   11190:	f8a2                	sd	s0,112(sp)
   11192:	0100                	addi	s0,sp,128
   11194:	f8a43c23          	sd	a0,-104(s0)
   11198:	87ae                	mv	a5,a1
   1119a:	8736                	mv	a4,a3
   1119c:	f8f42a23          	sw	a5,-108(s0)
   111a0:	87b2                	mv	a5,a2
   111a2:	f8f42823          	sw	a5,-112(s0)
   111a6:	87ba                	mv	a5,a4
   111a8:	f8f42623          	sw	a5,-116(s0)
   111ac:	fe042623          	sw	zero,-20(s0)
   111b0:	f9442783          	lw	a5,-108(s0)
   111b4:	f9843703          	ld	a4,-104(s0)
   111b8:	02f776b3          	remu	a3,a4,a5
   111bc:	fec42783          	lw	a5,-20(s0)
   111c0:	0017871b          	addiw	a4,a5,1
   111c4:	fee42623          	sw	a4,-20(s0)
   111c8:	0ff6f713          	andi	a4,a3,255
   111cc:	ff040693          	addi	a3,s0,-16
   111d0:	97b6                	add	a5,a5,a3
   111d2:	fae78c23          	sb	a4,-72(a5) # 1000ffb8 <_end+0xfffc980>
   111d6:	f9442783          	lw	a5,-108(s0)
   111da:	f9843703          	ld	a4,-104(s0)
   111de:	00f76b63          	bltu	a4,a5,111f4 <printnum+0x68>
   111e2:	f9442783          	lw	a5,-108(s0)
   111e6:	f9843703          	ld	a4,-104(s0)
   111ea:	02f757b3          	divu	a5,a4,a5
   111ee:	f8f43c23          	sd	a5,-104(s0)
   111f2:	bf7d                	j	111b0 <printnum+0x24>
   111f4:	0001                	nop
   111f6:	a801                	j	11206 <printnum+0x7a>
   111f8:	f8c42783          	lw	a5,-116(s0)
   111fc:	853e                	mv	a0,a5
   111fe:	00000097          	auipc	ra,0x0
   11202:	e2e080e7          	jalr	-466(ra) # 1102c <print_char>
   11206:	f9042783          	lw	a5,-112(s0)
   1120a:	fff7871b          	addiw	a4,a5,-1
   1120e:	f8e42823          	sw	a4,-112(s0)
   11212:	fec42703          	lw	a4,-20(s0)
   11216:	2701                	sext.w	a4,a4
   11218:	fef740e3          	blt	a4,a5,111f8 <printnum+0x6c>
   1121c:	a089                	j	1125e <printnum+0xd2>
   1121e:	fec42783          	lw	a5,-20(s0)
   11222:	ff040713          	addi	a4,s0,-16
   11226:	97ba                	add	a5,a5,a4
   11228:	fb87c783          	lbu	a5,-72(a5)
   1122c:	0007871b          	sext.w	a4,a5
   11230:	fec42783          	lw	a5,-20(s0)
   11234:	ff040693          	addi	a3,s0,-16
   11238:	97b6                	add	a5,a5,a3
   1123a:	fb87c783          	lbu	a5,-72(a5)
   1123e:	86be                	mv	a3,a5
   11240:	47a5                	li	a5,9
   11242:	00d7f563          	bleu	a3,a5,1124c <printnum+0xc0>
   11246:	05700793          	li	a5,87
   1124a:	a019                	j	11250 <printnum+0xc4>
   1124c:	03000793          	li	a5,48
   11250:	9fb9                	addw	a5,a5,a4
   11252:	2781                	sext.w	a5,a5
   11254:	853e                	mv	a0,a5
   11256:	00000097          	auipc	ra,0x0
   1125a:	dd6080e7          	jalr	-554(ra) # 1102c <print_char>
   1125e:	fec42783          	lw	a5,-20(s0)
   11262:	fff7871b          	addiw	a4,a5,-1
   11266:	fee42623          	sw	a4,-20(s0)
   1126a:	faf04ae3          	bgtz	a5,1121e <printnum+0x92>
   1126e:	0001                	nop
   11270:	70e6                	ld	ra,120(sp)
   11272:	7446                	ld	s0,112(sp)
   11274:	6109                	addi	sp,sp,128
   11276:	8082                	ret

0000000000011278 <getuint>:
   11278:	1101                	addi	sp,sp,-32
   1127a:	ec22                	sd	s0,24(sp)
   1127c:	1000                	addi	s0,sp,32
   1127e:	fea43423          	sd	a0,-24(s0)
   11282:	87ae                	mv	a5,a1
   11284:	fef42223          	sw	a5,-28(s0)
   11288:	fe442783          	lw	a5,-28(s0)
   1128c:	0007871b          	sext.w	a4,a5
   11290:	4785                	li	a5,1
   11292:	00e7dc63          	ble	a4,a5,112aa <getuint+0x32>
   11296:	fe843783          	ld	a5,-24(s0)
   1129a:	639c                	ld	a5,0(a5)
   1129c:	00878693          	addi	a3,a5,8
   112a0:	fe843703          	ld	a4,-24(s0)
   112a4:	e314                	sd	a3,0(a4)
   112a6:	639c                	ld	a5,0(a5)
   112a8:	a815                	j	112dc <getuint+0x64>
   112aa:	fe442783          	lw	a5,-28(s0)
   112ae:	2781                	sext.w	a5,a5
   112b0:	cb99                	beqz	a5,112c6 <getuint+0x4e>
   112b2:	fe843783          	ld	a5,-24(s0)
   112b6:	639c                	ld	a5,0(a5)
   112b8:	00878693          	addi	a3,a5,8
   112bc:	fe843703          	ld	a4,-24(s0)
   112c0:	e314                	sd	a3,0(a4)
   112c2:	639c                	ld	a5,0(a5)
   112c4:	a821                	j	112dc <getuint+0x64>
   112c6:	fe843783          	ld	a5,-24(s0)
   112ca:	639c                	ld	a5,0(a5)
   112cc:	00878693          	addi	a3,a5,8
   112d0:	fe843703          	ld	a4,-24(s0)
   112d4:	e314                	sd	a3,0(a4)
   112d6:	439c                	lw	a5,0(a5)
   112d8:	1782                	slli	a5,a5,0x20
   112da:	9381                	srli	a5,a5,0x20
   112dc:	853e                	mv	a0,a5
   112de:	6462                	ld	s0,24(sp)
   112e0:	6105                	addi	sp,sp,32
   112e2:	8082                	ret

00000000000112e4 <getint>:
   112e4:	1101                	addi	sp,sp,-32
   112e6:	ec22                	sd	s0,24(sp)
   112e8:	1000                	addi	s0,sp,32
   112ea:	fea43423          	sd	a0,-24(s0)
   112ee:	87ae                	mv	a5,a1
   112f0:	fef42223          	sw	a5,-28(s0)
   112f4:	fe442783          	lw	a5,-28(s0)
   112f8:	0007871b          	sext.w	a4,a5
   112fc:	4785                	li	a5,1
   112fe:	00e7dc63          	ble	a4,a5,11316 <getint+0x32>
   11302:	fe843783          	ld	a5,-24(s0)
   11306:	639c                	ld	a5,0(a5)
   11308:	00878693          	addi	a3,a5,8
   1130c:	fe843703          	ld	a4,-24(s0)
   11310:	e314                	sd	a3,0(a4)
   11312:	639c                	ld	a5,0(a5)
   11314:	a805                	j	11344 <getint+0x60>
   11316:	fe442783          	lw	a5,-28(s0)
   1131a:	2781                	sext.w	a5,a5
   1131c:	cb99                	beqz	a5,11332 <getint+0x4e>
   1131e:	fe843783          	ld	a5,-24(s0)
   11322:	639c                	ld	a5,0(a5)
   11324:	00878693          	addi	a3,a5,8
   11328:	fe843703          	ld	a4,-24(s0)
   1132c:	e314                	sd	a3,0(a4)
   1132e:	639c                	ld	a5,0(a5)
   11330:	a811                	j	11344 <getint+0x60>
   11332:	fe843783          	ld	a5,-24(s0)
   11336:	639c                	ld	a5,0(a5)
   11338:	00878693          	addi	a3,a5,8
   1133c:	fe843703          	ld	a4,-24(s0)
   11340:	e314                	sd	a3,0(a4)
   11342:	439c                	lw	a5,0(a5)
   11344:	853e                	mv	a0,a5
   11346:	6462                	ld	s0,24(sp)
   11348:	6105                	addi	sp,sp,32
   1134a:	8082                	ret

000000000001134c <vprintfmt_lib>:
   1134c:	711d                	addi	sp,sp,-96
   1134e:	ec86                	sd	ra,88(sp)
   11350:	e8a2                	sd	s0,80(sp)
   11352:	e4a6                	sd	s1,72(sp)
   11354:	e0ca                	sd	s2,64(sp)
   11356:	1080                	addi	s0,sp,96
   11358:	faa43423          	sd	a0,-88(s0)
   1135c:	fab43023          	sd	a1,-96(s0)
   11360:	a819                	j	11376 <vprintfmt_lib+0x2a>
   11362:	2c048d63          	beqz	s1,1163c <vprintfmt_lib+0x2f0>
   11366:	fa843783          	ld	a5,-88(s0)
   1136a:	0785                	addi	a5,a5,1
   1136c:	faf43423          	sd	a5,-88(s0)
   11370:	8526                	mv	a0,s1
   11372:	cbbff0ef          	jal	ra,1102c <print_char>
   11376:	fa843783          	ld	a5,-88(s0)
   1137a:	0007c783          	lbu	a5,0(a5)
   1137e:	0007849b          	sext.w	s1,a5
   11382:	8726                	mv	a4,s1
   11384:	02500793          	li	a5,37
   11388:	fcf71de3          	bne	a4,a5,11362 <vprintfmt_lib+0x16>
   1138c:	fa843783          	ld	a5,-88(s0)
   11390:	0785                	addi	a5,a5,1
   11392:	faf43423          	sd	a5,-88(s0)
   11396:	fa843783          	ld	a5,-88(s0)
   1139a:	faf43c23          	sd	a5,-72(s0)
   1139e:	02000793          	li	a5,32
   113a2:	fcf403a3          	sb	a5,-57(s0)
   113a6:	57fd                	li	a5,-1
   113a8:	fcf42623          	sw	a5,-52(s0)
   113ac:	57fd                	li	a5,-1
   113ae:	fcf42423          	sw	a5,-56(s0)
   113b2:	fc042823          	sw	zero,-48(s0)
   113b6:	fa843783          	ld	a5,-88(s0)
   113ba:	00178713          	addi	a4,a5,1
   113be:	fae43423          	sd	a4,-88(s0)
   113c2:	0007c783          	lbu	a5,0(a5)
   113c6:	0007849b          	sext.w	s1,a5
   113ca:	fdd4869b          	addiw	a3,s1,-35
   113ce:	0006871b          	sext.w	a4,a3
   113d2:	05500793          	li	a5,85
   113d6:	24e7e963          	bltu	a5,a4,11628 <vprintfmt_lib+0x2dc>
   113da:	02069793          	slli	a5,a3,0x20
   113de:	9381                	srli	a5,a5,0x20
   113e0:	00279713          	slli	a4,a5,0x2
   113e4:	67c9                	lui	a5,0x12
   113e6:	4d078793          	addi	a5,a5,1232 # 124d0 <strnlen+0x126>
   113ea:	97ba                	add	a5,a5,a4
   113ec:	439c                	lw	a5,0(a5)
   113ee:	8782                	jr	a5
   113f0:	02d00793          	li	a5,45
   113f4:	fcf403a3          	sb	a5,-57(s0)
   113f8:	bf7d                	j	113b6 <vprintfmt_lib+0x6a>
   113fa:	03000793          	li	a5,48
   113fe:	fcf403a3          	sb	a5,-57(s0)
   11402:	bf55                	j	113b6 <vprintfmt_lib+0x6a>
   11404:	fc042423          	sw	zero,-56(s0)
   11408:	fc842703          	lw	a4,-56(s0)
   1140c:	87ba                	mv	a5,a4
   1140e:	0027979b          	slliw	a5,a5,0x2
   11412:	9fb9                	addw	a5,a5,a4
   11414:	0017979b          	slliw	a5,a5,0x1
   11418:	2781                	sext.w	a5,a5
   1141a:	9fa5                	addw	a5,a5,s1
   1141c:	2781                	sext.w	a5,a5
   1141e:	fd07879b          	addiw	a5,a5,-48
   11422:	fcf42423          	sw	a5,-56(s0)
   11426:	fa843783          	ld	a5,-88(s0)
   1142a:	0007c783          	lbu	a5,0(a5)
   1142e:	0007849b          	sext.w	s1,a5
   11432:	8726                	mv	a4,s1
   11434:	02f00793          	li	a5,47
   11438:	02e7df63          	ble	a4,a5,11476 <vprintfmt_lib+0x12a>
   1143c:	8726                	mv	a4,s1
   1143e:	03900793          	li	a5,57
   11442:	02e7ca63          	blt	a5,a4,11476 <vprintfmt_lib+0x12a>
   11446:	fa843783          	ld	a5,-88(s0)
   1144a:	0785                	addi	a5,a5,1
   1144c:	faf43423          	sd	a5,-88(s0)
   11450:	bf65                	j	11408 <vprintfmt_lib+0xbc>
   11452:	fa043783          	ld	a5,-96(s0)
   11456:	00878713          	addi	a4,a5,8
   1145a:	fae43023          	sd	a4,-96(s0)
   1145e:	439c                	lw	a5,0(a5)
   11460:	fcf42423          	sw	a5,-56(s0)
   11464:	a811                	j	11478 <vprintfmt_lib+0x12c>
   11466:	fcc42783          	lw	a5,-52(s0)
   1146a:	2781                	sext.w	a5,a5
   1146c:	f407d5e3          	bgez	a5,113b6 <vprintfmt_lib+0x6a>
   11470:	fc042623          	sw	zero,-52(s0)
   11474:	b789                	j	113b6 <vprintfmt_lib+0x6a>
   11476:	0001                	nop
   11478:	fcc42783          	lw	a5,-52(s0)
   1147c:	2781                	sext.w	a5,a5
   1147e:	f207dce3          	bgez	a5,113b6 <vprintfmt_lib+0x6a>
   11482:	fc842783          	lw	a5,-56(s0)
   11486:	fcf42623          	sw	a5,-52(s0)
   1148a:	57fd                	li	a5,-1
   1148c:	fcf42423          	sw	a5,-56(s0)
   11490:	b71d                	j	113b6 <vprintfmt_lib+0x6a>
   11492:	fd042783          	lw	a5,-48(s0)
   11496:	2785                	addiw	a5,a5,1
   11498:	fcf42823          	sw	a5,-48(s0)
   1149c:	bf29                	j	113b6 <vprintfmt_lib+0x6a>
   1149e:	fa043783          	ld	a5,-96(s0)
   114a2:	00878713          	addi	a4,a5,8
   114a6:	fae43023          	sd	a4,-96(s0)
   114aa:	439c                	lw	a5,0(a5)
   114ac:	853e                	mv	a0,a5
   114ae:	b7fff0ef          	jal	ra,1102c <print_char>
   114b2:	a261                	j	1163a <vprintfmt_lib+0x2ee>
   114b4:	fa043783          	ld	a5,-96(s0)
   114b8:	00878713          	addi	a4,a5,8
   114bc:	fae43023          	sd	a4,-96(s0)
   114c0:	0007b903          	ld	s2,0(a5)
   114c4:	00091563          	bnez	s2,114ce <vprintfmt_lib+0x182>
   114c8:	67c9                	lui	a5,0x12
   114ca:	4c878913          	addi	s2,a5,1224 # 124c8 <strnlen+0x11e>
   114ce:	fcc42783          	lw	a5,-52(s0)
   114d2:	2781                	sext.w	a5,a5
   114d4:	06f05263          	blez	a5,11538 <vprintfmt_lib+0x1ec>
   114d8:	fc744783          	lbu	a5,-57(s0)
   114dc:	0ff7f713          	andi	a4,a5,255
   114e0:	02d00793          	li	a5,45
   114e4:	04f70a63          	beq	a4,a5,11538 <vprintfmt_lib+0x1ec>
   114e8:	fc842783          	lw	a5,-56(s0)
   114ec:	85be                	mv	a1,a5
   114ee:	854a                	mv	a0,s2
   114f0:	6bb000ef          	jal	ra,123aa <strnlen>
   114f4:	87aa                	mv	a5,a0
   114f6:	873e                	mv	a4,a5
   114f8:	fcc42783          	lw	a5,-52(s0)
   114fc:	9f99                	subw	a5,a5,a4
   114fe:	fcf42623          	sw	a5,-52(s0)
   11502:	a821                	j	1151a <vprintfmt_lib+0x1ce>
   11504:	fc744783          	lbu	a5,-57(s0)
   11508:	2781                	sext.w	a5,a5
   1150a:	853e                	mv	a0,a5
   1150c:	b21ff0ef          	jal	ra,1102c <print_char>
   11510:	fcc42783          	lw	a5,-52(s0)
   11514:	37fd                	addiw	a5,a5,-1
   11516:	fcf42623          	sw	a5,-52(s0)
   1151a:	fcc42783          	lw	a5,-52(s0)
   1151e:	2781                	sext.w	a5,a5
   11520:	fef042e3          	bgtz	a5,11504 <vprintfmt_lib+0x1b8>
   11524:	a811                	j	11538 <vprintfmt_lib+0x1ec>
   11526:	8526                	mv	a0,s1
   11528:	b05ff0ef          	jal	ra,1102c <print_char>
   1152c:	0905                	addi	s2,s2,1
   1152e:	fcc42783          	lw	a5,-52(s0)
   11532:	37fd                	addiw	a5,a5,-1
   11534:	fcf42623          	sw	a5,-52(s0)
   11538:	00094783          	lbu	a5,0(s2)
   1153c:	0007849b          	sext.w	s1,a5
   11540:	c895                	beqz	s1,11574 <vprintfmt_lib+0x228>
   11542:	fc842783          	lw	a5,-56(s0)
   11546:	2781                	sext.w	a5,a5
   11548:	fc07cfe3          	bltz	a5,11526 <vprintfmt_lib+0x1da>
   1154c:	fc842783          	lw	a5,-56(s0)
   11550:	37fd                	addiw	a5,a5,-1
   11552:	fcf42423          	sw	a5,-56(s0)
   11556:	fc842783          	lw	a5,-56(s0)
   1155a:	2781                	sext.w	a5,a5
   1155c:	fc07d5e3          	bgez	a5,11526 <vprintfmt_lib+0x1da>
   11560:	a811                	j	11574 <vprintfmt_lib+0x228>
   11562:	02000513          	li	a0,32
   11566:	ac7ff0ef          	jal	ra,1102c <print_char>
   1156a:	fcc42783          	lw	a5,-52(s0)
   1156e:	37fd                	addiw	a5,a5,-1
   11570:	fcf42623          	sw	a5,-52(s0)
   11574:	fcc42783          	lw	a5,-52(s0)
   11578:	2781                	sext.w	a5,a5
   1157a:	fef044e3          	bgtz	a5,11562 <vprintfmt_lib+0x216>
   1157e:	a875                	j	1163a <vprintfmt_lib+0x2ee>
   11580:	fd042703          	lw	a4,-48(s0)
   11584:	fa040793          	addi	a5,s0,-96
   11588:	85ba                	mv	a1,a4
   1158a:	853e                	mv	a0,a5
   1158c:	00000097          	auipc	ra,0x0
   11590:	d58080e7          	jalr	-680(ra) # 112e4 <getint>
   11594:	87aa                	mv	a5,a0
   11596:	fcf43c23          	sd	a5,-40(s0)
   1159a:	fd843783          	ld	a5,-40(s0)
   1159e:	0007dc63          	bgez	a5,115b6 <vprintfmt_lib+0x26a>
   115a2:	02d00513          	li	a0,45
   115a6:	a87ff0ef          	jal	ra,1102c <print_char>
   115aa:	fd843783          	ld	a5,-40(s0)
   115ae:	40f007b3          	neg	a5,a5
   115b2:	fcf43c23          	sd	a5,-40(s0)
   115b6:	47a9                	li	a5,10
   115b8:	fcf42a23          	sw	a5,-44(s0)
   115bc:	a089                	j	115fe <vprintfmt_lib+0x2b2>
   115be:	47a9                	li	a5,10
   115c0:	fcf42a23          	sw	a5,-44(s0)
   115c4:	a01d                	j	115ea <vprintfmt_lib+0x29e>
   115c6:	47a1                	li	a5,8
   115c8:	fcf42a23          	sw	a5,-44(s0)
   115cc:	a839                	j	115ea <vprintfmt_lib+0x29e>
   115ce:	4785                	li	a5,1
   115d0:	fcf42823          	sw	a5,-48(s0)
   115d4:	03000513          	li	a0,48
   115d8:	a55ff0ef          	jal	ra,1102c <print_char>
   115dc:	07800513          	li	a0,120
   115e0:	a4dff0ef          	jal	ra,1102c <print_char>
   115e4:	47c1                	li	a5,16
   115e6:	fcf42a23          	sw	a5,-44(s0)
   115ea:	fd042703          	lw	a4,-48(s0)
   115ee:	fa040793          	addi	a5,s0,-96
   115f2:	85ba                	mv	a1,a4
   115f4:	853e                	mv	a0,a5
   115f6:	c83ff0ef          	jal	ra,11278 <getuint>
   115fa:	fca43c23          	sd	a0,-40(s0)
   115fe:	fc744783          	lbu	a5,-57(s0)
   11602:	0007869b          	sext.w	a3,a5
   11606:	fcc42703          	lw	a4,-52(s0)
   1160a:	fd442783          	lw	a5,-44(s0)
   1160e:	863a                	mv	a2,a4
   11610:	85be                	mv	a1,a5
   11612:	fd843503          	ld	a0,-40(s0)
   11616:	00000097          	auipc	ra,0x0
   1161a:	b76080e7          	jalr	-1162(ra) # 1118c <printnum>
   1161e:	a831                	j	1163a <vprintfmt_lib+0x2ee>
   11620:	8526                	mv	a0,s1
   11622:	a0bff0ef          	jal	ra,1102c <print_char>
   11626:	a811                	j	1163a <vprintfmt_lib+0x2ee>
   11628:	02500513          	li	a0,37
   1162c:	a01ff0ef          	jal	ra,1102c <print_char>
   11630:	fb843783          	ld	a5,-72(s0)
   11634:	faf43423          	sd	a5,-88(s0)
   11638:	0001                	nop
   1163a:	bb35                	j	11376 <vprintfmt_lib+0x2a>
   1163c:	0001                	nop
   1163e:	60e6                	ld	ra,88(sp)
   11640:	6446                	ld	s0,80(sp)
   11642:	64a6                	ld	s1,72(sp)
   11644:	6906                	ld	s2,64(sp)
   11646:	6125                	addi	sp,sp,96
   11648:	8082                	ret

000000000001164a <printf_uart>:
   1164a:	7159                	addi	sp,sp,-112
   1164c:	f406                	sd	ra,40(sp)
   1164e:	f022                	sd	s0,32(sp)
   11650:	1800                	addi	s0,sp,48
   11652:	fca43c23          	sd	a0,-40(s0)
   11656:	e40c                	sd	a1,8(s0)
   11658:	e810                	sd	a2,16(s0)
   1165a:	ec14                	sd	a3,24(s0)
   1165c:	f018                	sd	a4,32(s0)
   1165e:	f41c                	sd	a5,40(s0)
   11660:	03043823          	sd	a6,48(s0)
   11664:	03143c23          	sd	a7,56(s0)
   11668:	04040793          	addi	a5,s0,64
   1166c:	fc878793          	addi	a5,a5,-56
   11670:	fef43423          	sd	a5,-24(s0)
   11674:	fe843783          	ld	a5,-24(s0)
   11678:	85be                	mv	a1,a5
   1167a:	fd843503          	ld	a0,-40(s0)
   1167e:	00000097          	auipc	ra,0x0
   11682:	cce080e7          	jalr	-818(ra) # 1134c <vprintfmt_lib>
   11686:	0001                	nop
   11688:	70a2                	ld	ra,40(sp)
   1168a:	7402                	ld	s0,32(sp)
   1168c:	6165                	addi	sp,sp,112
   1168e:	8082                	ret

0000000000011690 <get_dev_bar>:
   11690:	715d                	addi	sp,sp,-80
   11692:	e4a2                	sd	s0,72(sp)
   11694:	0880                	addi	s0,sp,80
   11696:	faa43c23          	sd	a0,-72(s0)
   1169a:	87ae                	mv	a5,a1
   1169c:	8732                	mv	a4,a2
   1169e:	faf41b23          	sh	a5,-74(s0)
   116a2:	87ba                	mv	a5,a4
   116a4:	faf41a23          	sh	a5,-76(s0)
   116a8:	fb843783          	ld	a5,-72(s0)
   116ac:	479c                	lw	a5,8(a5)
   116ae:	0087d79b          	srliw	a5,a5,0x8
   116b2:	2781                	sext.w	a5,a5
   116b4:	2781                	sext.w	a5,a5
   116b6:	0ff7f793          	andi	a5,a5,255
   116ba:	fef42023          	sw	a5,-32(s0)
   116be:	fb843783          	ld	a5,-72(s0)
   116c2:	479c                	lw	a5,8(a5)
   116c4:	0107d79b          	srliw	a5,a5,0x10
   116c8:	2781                	sext.w	a5,a5
   116ca:	2781                	sext.w	a5,a5
   116cc:	0ff7f793          	andi	a5,a5,255
   116d0:	fcf42e23          	sw	a5,-36(s0)
   116d4:	fe042623          	sw	zero,-20(s0)
   116d8:	fe042423          	sw	zero,-24(s0)
   116dc:	a82d                	j	11716 <get_dev_bar+0x86>
   116de:	fec42783          	lw	a5,-20(s0)
   116e2:	04078793          	addi	a5,a5,64
   116e6:	fb843703          	ld	a4,-72(s0)
   116ea:	97ba                	add	a5,a5,a4
   116ec:	639c                	ld	a5,0(a5)
   116ee:	fcf43823          	sd	a5,-48(s0)
   116f2:	fb843703          	ld	a4,-72(s0)
   116f6:	fec42783          	lw	a5,-20(s0)
   116fa:	97ba                	add	a5,a5,a4
   116fc:	0407c783          	lbu	a5,64(a5)
   11700:	2781                	sext.w	a5,a5
   11702:	fec42703          	lw	a4,-20(s0)
   11706:	9fb9                	addw	a5,a5,a4
   11708:	fef42623          	sw	a5,-20(s0)
   1170c:	fe842783          	lw	a5,-24(s0)
   11710:	2785                	addiw	a5,a5,1
   11712:	fef42423          	sw	a5,-24(s0)
   11716:	fe842703          	lw	a4,-24(s0)
   1171a:	fdc42783          	lw	a5,-36(s0)
   1171e:	2701                	sext.w	a4,a4
   11720:	2781                	sext.w	a5,a5
   11722:	faf74ee3          	blt	a4,a5,116de <get_dev_bar+0x4e>
   11726:	fe042223          	sw	zero,-28(s0)
   1172a:	a8b5                	j	117a6 <get_dev_bar+0x116>
   1172c:	fec42783          	lw	a5,-20(s0)
   11730:	04078793          	addi	a5,a5,64
   11734:	fb843703          	ld	a4,-72(s0)
   11738:	97ba                	add	a5,a5,a4
   1173a:	639c                	ld	a5,0(a5)
   1173c:	fcf43023          	sd	a5,-64(s0)
   11740:	fec42783          	lw	a5,-20(s0)
   11744:	27a1                	addiw	a5,a5,8
   11746:	2781                	sext.w	a5,a5
   11748:	04078793          	addi	a5,a5,64
   1174c:	fb843703          	ld	a4,-72(s0)
   11750:	97ba                	add	a5,a5,a4
   11752:	639c                	ld	a5,0(a5)
   11754:	fcf43423          	sd	a5,-56(s0)
   11758:	fc645783          	lhu	a5,-58(s0)
   1175c:	fb645703          	lhu	a4,-74(s0)
   11760:	2701                	sext.w	a4,a4
   11762:	2781                	sext.w	a5,a5
   11764:	00f71f63          	bne	a4,a5,11782 <get_dev_bar+0xf2>
   11768:	fc445783          	lhu	a5,-60(s0)
   1176c:	fb445703          	lhu	a4,-76(s0)
   11770:	2701                	sext.w	a4,a4
   11772:	2781                	sext.w	a5,a5
   11774:	00f71763          	bne	a4,a5,11782 <get_dev_bar+0xf2>
   11778:	fcc42783          	lw	a5,-52(s0)
   1177c:	1782                	slli	a5,a5,0x20
   1177e:	9381                	srli	a5,a5,0x20
   11780:	a825                	j	117b8 <get_dev_bar+0x128>
   11782:	fb843703          	ld	a4,-72(s0)
   11786:	fec42783          	lw	a5,-20(s0)
   1178a:	97ba                	add	a5,a5,a4
   1178c:	0407c783          	lbu	a5,64(a5)
   11790:	2781                	sext.w	a5,a5
   11792:	fec42703          	lw	a4,-20(s0)
   11796:	9fb9                	addw	a5,a5,a4
   11798:	fef42623          	sw	a5,-20(s0)
   1179c:	fe442783          	lw	a5,-28(s0)
   117a0:	2785                	addiw	a5,a5,1
   117a2:	fef42223          	sw	a5,-28(s0)
   117a6:	fe442703          	lw	a4,-28(s0)
   117aa:	fe042783          	lw	a5,-32(s0)
   117ae:	2701                	sext.w	a4,a4
   117b0:	2781                	sext.w	a5,a5
   117b2:	f6f74de3          	blt	a4,a5,1172c <get_dev_bar+0x9c>
   117b6:	57fd                	li	a5,-1
   117b8:	853e                	mv	a0,a5
   117ba:	6426                	ld	s0,72(sp)
   117bc:	6161                	addi	sp,sp,80
   117be:	8082                	ret

00000000000117c0 <mpu_region_total>:
   117c0:	1101                	addi	sp,sp,-32
   117c2:	ec22                	sd	s0,24(sp)
   117c4:	1000                	addi	s0,sp,32
   117c6:	fe043423          	sd	zero,-24(s0)
   117ca:	bc4027f3          	csrr	a5,0xbc4
   117ce:	fef43423          	sd	a5,-24(s0)
   117d2:	fe843783          	ld	a5,-24(s0)
   117d6:	83a1                	srli	a5,a5,0x8
   117d8:	2781                	sext.w	a5,a5
   117da:	853e                	mv	a0,a5
   117dc:	6462                	ld	s0,24(sp)
   117de:	6105                	addi	sp,sp,32
   117e0:	8082                	ret

00000000000117e2 <mpu_disable_region>:
   117e2:	7179                	addi	sp,sp,-48
   117e4:	f422                	sd	s0,40(sp)
   117e6:	1800                	addi	s0,sp,48
   117e8:	87aa                	mv	a5,a0
   117ea:	fcf42e23          	sw	a5,-36(s0)
   117ee:	fe043423          	sd	zero,-24(s0)
   117f2:	fdc42783          	lw	a5,-36(s0)
   117f6:	0ff7f793          	andi	a5,a5,255
   117fa:	fef404a3          	sb	a5,-23(s0)
   117fe:	fe844783          	lbu	a5,-24(s0)
   11802:	f807e793          	ori	a5,a5,-128
   11806:	fef40423          	sb	a5,-24(s0)
   1180a:	fe843783          	ld	a5,-24(s0)
   1180e:	bc479073          	csrw	0xbc4,a5
   11812:	0001                	nop
   11814:	7422                	ld	s0,40(sp)
   11816:	6145                	addi	sp,sp,48
   11818:	8082                	ret

000000000001181a <mpu_enable_region>:
   1181a:	715d                	addi	sp,sp,-80
   1181c:	e4a2                	sd	s0,72(sp)
   1181e:	0880                	addi	s0,sp,80
   11820:	87aa                	mv	a5,a0
   11822:	fcb43023          	sd	a1,-64(s0)
   11826:	fac43c23          	sd	a2,-72(s0)
   1182a:	fae43823          	sd	a4,-80(s0)
   1182e:	fcf42623          	sw	a5,-52(s0)
   11832:	87b6                	mv	a5,a3
   11834:	fcf42423          	sw	a5,-56(s0)
   11838:	c0000793          	li	a5,-1024
   1183c:	fef43423          	sd	a5,-24(s0)
   11840:	fb043783          	ld	a5,-80(s0)
   11844:	fef43023          	sd	a5,-32(s0)
   11848:	fc043783          	ld	a5,-64(s0)
   1184c:	bc279073          	csrw	0xbc2,a5
   11850:	fb843783          	ld	a5,-72(s0)
   11854:	8385                	srli	a5,a5,0x1
   11856:	faf43c23          	sd	a5,-72(s0)
   1185a:	a819                	j	11870 <mpu_enable_region+0x56>
   1185c:	fe843783          	ld	a5,-24(s0)
   11860:	0786                	slli	a5,a5,0x1
   11862:	fef43423          	sd	a5,-24(s0)
   11866:	fb843783          	ld	a5,-72(s0)
   1186a:	8385                	srli	a5,a5,0x1
   1186c:	faf43c23          	sd	a5,-72(s0)
   11870:	fb843783          	ld	a5,-72(s0)
   11874:	f7e5                	bnez	a5,1185c <mpu_enable_region+0x42>
   11876:	fe843783          	ld	a5,-24(s0)
   1187a:	bc379073          	csrw	0xbc3,a5
   1187e:	fc043c23          	sd	zero,-40(s0)
   11882:	fcc42783          	lw	a5,-52(s0)
   11886:	0ff7f793          	andi	a5,a5,255
   1188a:	fcf40ca3          	sb	a5,-39(s0)
   1188e:	fd844783          	lbu	a5,-40(s0)
   11892:	0107e793          	ori	a5,a5,16
   11896:	fcf40c23          	sb	a5,-40(s0)
   1189a:	fc842783          	lw	a5,-56(s0)
   1189e:	8b85                	andi	a5,a5,1
   118a0:	0ff7f793          	andi	a5,a5,255
   118a4:	8b85                	andi	a5,a5,1
   118a6:	0037969b          	slliw	a3,a5,0x3
   118aa:	fd844783          	lbu	a5,-40(s0)
   118ae:	9bdd                	andi	a5,a5,-9
   118b0:	873e                	mv	a4,a5
   118b2:	87b6                	mv	a5,a3
   118b4:	8fd9                	or	a5,a5,a4
   118b6:	fcf40c23          	sb	a5,-40(s0)
   118ba:	fd844783          	lbu	a5,-40(s0)
   118be:	f807e793          	ori	a5,a5,-128
   118c2:	fcf40c23          	sb	a5,-40(s0)
   118c6:	a09d                	j	1192c <mpu_enable_region+0x112>
   118c8:	fe043783          	ld	a5,-32(s0)
   118cc:	0007c783          	lbu	a5,0(a5)
   118d0:	873e                	mv	a4,a5
   118d2:	07200793          	li	a5,114
   118d6:	00f71863          	bne	a4,a5,118e6 <mpu_enable_region+0xcc>
   118da:	fd844783          	lbu	a5,-40(s0)
   118de:	0027e793          	ori	a5,a5,2
   118e2:	fcf40c23          	sb	a5,-40(s0)
   118e6:	fe043783          	ld	a5,-32(s0)
   118ea:	0007c783          	lbu	a5,0(a5)
   118ee:	873e                	mv	a4,a5
   118f0:	07700793          	li	a5,119
   118f4:	00f71863          	bne	a4,a5,11904 <mpu_enable_region+0xea>
   118f8:	fd844783          	lbu	a5,-40(s0)
   118fc:	0017e793          	ori	a5,a5,1
   11900:	fcf40c23          	sb	a5,-40(s0)
   11904:	fe043783          	ld	a5,-32(s0)
   11908:	0007c783          	lbu	a5,0(a5)
   1190c:	873e                	mv	a4,a5
   1190e:	07800793          	li	a5,120
   11912:	00f71863          	bne	a4,a5,11922 <mpu_enable_region+0x108>
   11916:	fd844783          	lbu	a5,-40(s0)
   1191a:	0047e793          	ori	a5,a5,4
   1191e:	fcf40c23          	sb	a5,-40(s0)
   11922:	fe043783          	ld	a5,-32(s0)
   11926:	0785                	addi	a5,a5,1
   11928:	fef43023          	sd	a5,-32(s0)
   1192c:	fe043783          	ld	a5,-32(s0)
   11930:	0007c783          	lbu	a5,0(a5)
   11934:	fbd1                	bnez	a5,118c8 <mpu_enable_region+0xae>
   11936:	fd843783          	ld	a5,-40(s0)
   1193a:	bc479073          	csrw	0xbc4,a5
   1193e:	0001                	nop
   11940:	6426                	ld	s0,72(sp)
   11942:	6161                	addi	sp,sp,80
   11944:	8082                	ret

0000000000011946 <init_qspi>:
   11946:	1141                	addi	sp,sp,-16
   11948:	e422                	sd	s0,8(sp)
   1194a:	0800                	addi	s0,sp,16
   1194c:	0001                	nop
   1194e:	6422                	ld	s0,8(sp)
   11950:	0141                	addi	sp,sp,16
   11952:	8082                	ret

0000000000011954 <sd_get_byte>:
   11954:	1101                	addi	sp,sp,-32
   11956:	ec22                	sd	s0,24(sp)
   11958:	1000                	addi	s0,sp,32
   1195a:	100507b7          	lui	a5,0x10050
   1195e:	fef43423          	sd	a5,-24(s0)
   11962:	fe042223          	sw	zero,-28(s0)
   11966:	fe843783          	ld	a5,-24(s0)
   1196a:	47fc                	lw	a5,76(a5)
   1196c:	fef42223          	sw	a5,-28(s0)
   11970:	fe442783          	lw	a5,-28(s0)
   11974:	fe07c9e3          	bltz	a5,11966 <sd_get_byte+0x12>
   11978:	fe442783          	lw	a5,-28(s0)
   1197c:	0ff7f793          	andi	a5,a5,255
   11980:	853e                	mv	a0,a5
   11982:	6462                	ld	s0,24(sp)
   11984:	6105                	addi	sp,sp,32
   11986:	8082                	ret

0000000000011988 <sd_set_byte>:
   11988:	7179                	addi	sp,sp,-48
   1198a:	f422                	sd	s0,40(sp)
   1198c:	1800                	addi	s0,sp,48
   1198e:	87aa                	mv	a5,a0
   11990:	fcf40fa3          	sb	a5,-33(s0)
   11994:	100507b7          	lui	a5,0x10050
   11998:	fef43423          	sd	a5,-24(s0)
   1199c:	0001                	nop
   1199e:	fe843783          	ld	a5,-24(s0)
   119a2:	47bc                	lw	a5,72(a5)
   119a4:	2781                	sext.w	a5,a5
   119a6:	2781                	sext.w	a5,a5
   119a8:	fe07cbe3          	bltz	a5,1199e <sd_set_byte+0x16>
   119ac:	fdf44783          	lbu	a5,-33(s0)
   119b0:	0007871b          	sext.w	a4,a5
   119b4:	fe843783          	ld	a5,-24(s0)
   119b8:	c7b8                	sw	a4,72(a5)
   119ba:	0001                	nop
   119bc:	7422                	ld	s0,40(sp)
   119be:	6145                	addi	sp,sp,48
   119c0:	8082                	ret

00000000000119c2 <sd_read_block>:
   119c2:	7179                	addi	sp,sp,-48
   119c4:	f406                	sd	ra,40(sp)
   119c6:	f022                	sd	s0,32(sp)
   119c8:	1800                	addi	s0,sp,48
   119ca:	fca43c23          	sd	a0,-40(s0)
   119ce:	87ae                	mv	a5,a1
   119d0:	fcf42a23          	sw	a5,-44(s0)
   119d4:	100507b7          	lui	a5,0x10050
   119d8:	fef43423          	sd	a5,-24(s0)
   119dc:	f79ff0ef          	jal	ra,11954 <sd_get_byte>
   119e0:	87aa                	mv	a5,a0
   119e2:	fef403a3          	sb	a5,-25(s0)
   119e6:	a831                	j	11a02 <sd_read_block+0x40>
   119e8:	f6dff0ef          	jal	ra,11954 <sd_get_byte>
   119ec:	87aa                	mv	a5,a0
   119ee:	873e                	mv	a4,a5
   119f0:	fd843783          	ld	a5,-40(s0)
   119f4:	00e78023          	sb	a4,0(a5) # 10050000 <_end+0x1003c9c8>
   119f8:	fd843783          	ld	a5,-40(s0)
   119fc:	0785                	addi	a5,a5,1
   119fe:	fcf43c23          	sd	a5,-40(s0)
   11a02:	fd442783          	lw	a5,-44(s0)
   11a06:	fff7871b          	addiw	a4,a5,-1
   11a0a:	fce42a23          	sw	a4,-44(s0)
   11a0e:	ffe9                	bnez	a5,119e8 <sd_read_block+0x26>
   11a10:	f45ff0ef          	jal	ra,11954 <sd_get_byte>
   11a14:	87aa                	mv	a5,a0
   11a16:	fef40323          	sb	a5,-26(s0)
   11a1a:	f3bff0ef          	jal	ra,11954 <sd_get_byte>
   11a1e:	87aa                	mv	a5,a0
   11a20:	fef40323          	sb	a5,-26(s0)
   11a24:	0001                	nop
   11a26:	70a2                	ld	ra,40(sp)
   11a28:	7402                	ld	s0,32(sp)
   11a2a:	6145                	addi	sp,sp,48
   11a2c:	8082                	ret

0000000000011a2e <sd_start_reading>:
   11a2e:	7179                	addi	sp,sp,-48
   11a30:	f406                	sd	ra,40(sp)
   11a32:	f022                	sd	s0,32(sp)
   11a34:	1800                	addi	s0,sp,48
   11a36:	fca43c23          	sd	a0,-40(s0)
   11a3a:	100507b7          	lui	a5,0x10050
   11a3e:	fef43423          	sd	a5,-24(s0)
   11a42:	05200513          	li	a0,82
   11a46:	f43ff0ef          	jal	ra,11988 <sd_set_byte>
   11a4a:	4501                	li	a0,0
   11a4c:	f3dff0ef          	jal	ra,11988 <sd_set_byte>
   11a50:	fd843783          	ld	a5,-40(s0)
   11a54:	83c1                	srli	a5,a5,0x10
   11a56:	0ff7f793          	andi	a5,a5,255
   11a5a:	853e                	mv	a0,a5
   11a5c:	f2dff0ef          	jal	ra,11988 <sd_set_byte>
   11a60:	fd843783          	ld	a5,-40(s0)
   11a64:	83a1                	srli	a5,a5,0x8
   11a66:	0ff7f793          	andi	a5,a5,255
   11a6a:	853e                	mv	a0,a5
   11a6c:	f1dff0ef          	jal	ra,11988 <sd_set_byte>
   11a70:	fd843783          	ld	a5,-40(s0)
   11a74:	0ff7f793          	andi	a5,a5,255
   11a78:	853e                	mv	a0,a5
   11a7a:	f0fff0ef          	jal	ra,11988 <sd_set_byte>
   11a7e:	0ff00513          	li	a0,255
   11a82:	f07ff0ef          	jal	ra,11988 <sd_set_byte>
   11a86:	00000097          	auipc	ra,0x0
   11a8a:	ece080e7          	jalr	-306(ra) # 11954 <sd_get_byte>
   11a8e:	87aa                	mv	a5,a0
   11a90:	fef403a3          	sb	a5,-25(s0)
   11a94:	fe744783          	lbu	a5,-25(s0)
   11a98:	2781                	sext.w	a5,a5
   11a9a:	853e                	mv	a0,a5
   11a9c:	70a2                	ld	ra,40(sp)
   11a9e:	7402                	ld	s0,32(sp)
   11aa0:	6145                	addi	sp,sp,48
   11aa2:	8082                	ret

0000000000011aa4 <sd_stop_reading>:
   11aa4:	1101                	addi	sp,sp,-32
   11aa6:	ec06                	sd	ra,24(sp)
   11aa8:	e822                	sd	s0,16(sp)
   11aaa:	1000                	addi	s0,sp,32
   11aac:	100507b7          	lui	a5,0x10050
   11ab0:	fef43423          	sd	a5,-24(s0)
   11ab4:	04c00513          	li	a0,76
   11ab8:	00000097          	auipc	ra,0x0
   11abc:	ed0080e7          	jalr	-304(ra) # 11988 <sd_set_byte>
   11ac0:	4501                	li	a0,0
   11ac2:	00000097          	auipc	ra,0x0
   11ac6:	ec6080e7          	jalr	-314(ra) # 11988 <sd_set_byte>
   11aca:	4501                	li	a0,0
   11acc:	00000097          	auipc	ra,0x0
   11ad0:	ebc080e7          	jalr	-324(ra) # 11988 <sd_set_byte>
   11ad4:	4501                	li	a0,0
   11ad6:	00000097          	auipc	ra,0x0
   11ada:	eb2080e7          	jalr	-334(ra) # 11988 <sd_set_byte>
   11ade:	4501                	li	a0,0
   11ae0:	00000097          	auipc	ra,0x0
   11ae4:	ea8080e7          	jalr	-344(ra) # 11988 <sd_set_byte>
   11ae8:	0ff00513          	li	a0,255
   11aec:	00000097          	auipc	ra,0x0
   11af0:	e9c080e7          	jalr	-356(ra) # 11988 <sd_set_byte>
   11af4:	e61ff0ef          	jal	ra,11954 <sd_get_byte>
   11af8:	87aa                	mv	a5,a0
   11afa:	fef403a3          	sb	a5,-25(s0)
   11afe:	fe744783          	lbu	a5,-25(s0)
   11b02:	2781                	sext.w	a5,a5
   11b04:	853e                	mv	a0,a5
   11b06:	60e2                	ld	ra,24(sp)
   11b08:	6442                	ld	s0,16(sp)
   11b0a:	6105                	addi	sp,sp,32
   11b0c:	8082                	ret

0000000000011b0e <get_dev_bar>:
   11b0e:	715d                	addi	sp,sp,-80
   11b10:	e4a2                	sd	s0,72(sp)
   11b12:	0880                	addi	s0,sp,80
   11b14:	faa43c23          	sd	a0,-72(s0)
   11b18:	87ae                	mv	a5,a1
   11b1a:	8732                	mv	a4,a2
   11b1c:	faf41b23          	sh	a5,-74(s0)
   11b20:	87ba                	mv	a5,a4
   11b22:	faf41a23          	sh	a5,-76(s0)
   11b26:	fb843783          	ld	a5,-72(s0)
   11b2a:	479c                	lw	a5,8(a5)
   11b2c:	0087d79b          	srliw	a5,a5,0x8
   11b30:	2781                	sext.w	a5,a5
   11b32:	2781                	sext.w	a5,a5
   11b34:	0ff7f793          	andi	a5,a5,255
   11b38:	fef42023          	sw	a5,-32(s0)
   11b3c:	fb843783          	ld	a5,-72(s0)
   11b40:	479c                	lw	a5,8(a5)
   11b42:	0107d79b          	srliw	a5,a5,0x10
   11b46:	2781                	sext.w	a5,a5
   11b48:	2781                	sext.w	a5,a5
   11b4a:	0ff7f793          	andi	a5,a5,255
   11b4e:	fcf42e23          	sw	a5,-36(s0)
   11b52:	fe042623          	sw	zero,-20(s0)
   11b56:	fe042423          	sw	zero,-24(s0)
   11b5a:	a82d                	j	11b94 <get_dev_bar+0x86>
   11b5c:	fec42783          	lw	a5,-20(s0)
   11b60:	04078793          	addi	a5,a5,64 # 10050040 <_end+0x1003ca08>
   11b64:	fb843703          	ld	a4,-72(s0)
   11b68:	97ba                	add	a5,a5,a4
   11b6a:	639c                	ld	a5,0(a5)
   11b6c:	fcf43823          	sd	a5,-48(s0)
   11b70:	fb843703          	ld	a4,-72(s0)
   11b74:	fec42783          	lw	a5,-20(s0)
   11b78:	97ba                	add	a5,a5,a4
   11b7a:	0407c783          	lbu	a5,64(a5)
   11b7e:	2781                	sext.w	a5,a5
   11b80:	fec42703          	lw	a4,-20(s0)
   11b84:	9fb9                	addw	a5,a5,a4
   11b86:	fef42623          	sw	a5,-20(s0)
   11b8a:	fe842783          	lw	a5,-24(s0)
   11b8e:	2785                	addiw	a5,a5,1
   11b90:	fef42423          	sw	a5,-24(s0)
   11b94:	fe842703          	lw	a4,-24(s0)
   11b98:	fdc42783          	lw	a5,-36(s0)
   11b9c:	2701                	sext.w	a4,a4
   11b9e:	2781                	sext.w	a5,a5
   11ba0:	faf74ee3          	blt	a4,a5,11b5c <get_dev_bar+0x4e>
   11ba4:	fe042223          	sw	zero,-28(s0)
   11ba8:	a8b5                	j	11c24 <get_dev_bar+0x116>
   11baa:	fec42783          	lw	a5,-20(s0)
   11bae:	04078793          	addi	a5,a5,64
   11bb2:	fb843703          	ld	a4,-72(s0)
   11bb6:	97ba                	add	a5,a5,a4
   11bb8:	639c                	ld	a5,0(a5)
   11bba:	fcf43023          	sd	a5,-64(s0)
   11bbe:	fec42783          	lw	a5,-20(s0)
   11bc2:	27a1                	addiw	a5,a5,8
   11bc4:	2781                	sext.w	a5,a5
   11bc6:	04078793          	addi	a5,a5,64
   11bca:	fb843703          	ld	a4,-72(s0)
   11bce:	97ba                	add	a5,a5,a4
   11bd0:	639c                	ld	a5,0(a5)
   11bd2:	fcf43423          	sd	a5,-56(s0)
   11bd6:	fc645783          	lhu	a5,-58(s0)
   11bda:	fb645703          	lhu	a4,-74(s0)
   11bde:	2701                	sext.w	a4,a4
   11be0:	2781                	sext.w	a5,a5
   11be2:	00f71f63          	bne	a4,a5,11c00 <get_dev_bar+0xf2>
   11be6:	fc445783          	lhu	a5,-60(s0)
   11bea:	fb445703          	lhu	a4,-76(s0)
   11bee:	2701                	sext.w	a4,a4
   11bf0:	2781                	sext.w	a5,a5
   11bf2:	00f71763          	bne	a4,a5,11c00 <get_dev_bar+0xf2>
   11bf6:	fcc42783          	lw	a5,-52(s0)
   11bfa:	1782                	slli	a5,a5,0x20
   11bfc:	9381                	srli	a5,a5,0x20
   11bfe:	a825                	j	11c36 <get_dev_bar+0x128>
   11c00:	fb843703          	ld	a4,-72(s0)
   11c04:	fec42783          	lw	a5,-20(s0)
   11c08:	97ba                	add	a5,a5,a4
   11c0a:	0407c783          	lbu	a5,64(a5)
   11c0e:	2781                	sext.w	a5,a5
   11c10:	fec42703          	lw	a4,-20(s0)
   11c14:	9fb9                	addw	a5,a5,a4
   11c16:	fef42623          	sw	a5,-20(s0)
   11c1a:	fe442783          	lw	a5,-28(s0)
   11c1e:	2785                	addiw	a5,a5,1
   11c20:	fef42223          	sw	a5,-28(s0)
   11c24:	fe442703          	lw	a4,-28(s0)
   11c28:	fe042783          	lw	a5,-32(s0)
   11c2c:	2701                	sext.w	a4,a4
   11c2e:	2781                	sext.w	a5,a5
   11c30:	f6f74de3          	blt	a4,a5,11baa <get_dev_bar+0x9c>
   11c34:	57fd                	li	a5,-1
   11c36:	853e                	mv	a0,a5
   11c38:	6426                	ld	s0,72(sp)
   11c3a:	6161                	addi	sp,sp,80
   11c3c:	8082                	ret

0000000000011c3e <mpu_region_total>:
   11c3e:	1101                	addi	sp,sp,-32
   11c40:	ec22                	sd	s0,24(sp)
   11c42:	1000                	addi	s0,sp,32
   11c44:	fe043423          	sd	zero,-24(s0)
   11c48:	bc4027f3          	csrr	a5,0xbc4
   11c4c:	fef43423          	sd	a5,-24(s0)
   11c50:	fe843783          	ld	a5,-24(s0)
   11c54:	83a1                	srli	a5,a5,0x8
   11c56:	2781                	sext.w	a5,a5
   11c58:	853e                	mv	a0,a5
   11c5a:	6462                	ld	s0,24(sp)
   11c5c:	6105                	addi	sp,sp,32
   11c5e:	8082                	ret

0000000000011c60 <mpu_disable_region>:
   11c60:	7179                	addi	sp,sp,-48
   11c62:	f422                	sd	s0,40(sp)
   11c64:	1800                	addi	s0,sp,48
   11c66:	87aa                	mv	a5,a0
   11c68:	fcf42e23          	sw	a5,-36(s0)
   11c6c:	fe043423          	sd	zero,-24(s0)
   11c70:	fdc42783          	lw	a5,-36(s0)
   11c74:	0ff7f793          	andi	a5,a5,255
   11c78:	fef404a3          	sb	a5,-23(s0)
   11c7c:	fe844783          	lbu	a5,-24(s0)
   11c80:	f807e793          	ori	a5,a5,-128
   11c84:	fef40423          	sb	a5,-24(s0)
   11c88:	fe843783          	ld	a5,-24(s0)
   11c8c:	bc479073          	csrw	0xbc4,a5
   11c90:	0001                	nop
   11c92:	7422                	ld	s0,40(sp)
   11c94:	6145                	addi	sp,sp,48
   11c96:	8082                	ret

0000000000011c98 <mpu_enable_region>:
   11c98:	715d                	addi	sp,sp,-80
   11c9a:	e4a2                	sd	s0,72(sp)
   11c9c:	0880                	addi	s0,sp,80
   11c9e:	87aa                	mv	a5,a0
   11ca0:	fcb43023          	sd	a1,-64(s0)
   11ca4:	fac43c23          	sd	a2,-72(s0)
   11ca8:	fae43823          	sd	a4,-80(s0)
   11cac:	fcf42623          	sw	a5,-52(s0)
   11cb0:	87b6                	mv	a5,a3
   11cb2:	fcf42423          	sw	a5,-56(s0)
   11cb6:	c0000793          	li	a5,-1024
   11cba:	fef43423          	sd	a5,-24(s0)
   11cbe:	fb043783          	ld	a5,-80(s0)
   11cc2:	fef43023          	sd	a5,-32(s0)
   11cc6:	fc043783          	ld	a5,-64(s0)
   11cca:	bc279073          	csrw	0xbc2,a5
   11cce:	fb843783          	ld	a5,-72(s0)
   11cd2:	8385                	srli	a5,a5,0x1
   11cd4:	faf43c23          	sd	a5,-72(s0)
   11cd8:	a819                	j	11cee <mpu_enable_region+0x56>
   11cda:	fe843783          	ld	a5,-24(s0)
   11cde:	0786                	slli	a5,a5,0x1
   11ce0:	fef43423          	sd	a5,-24(s0)
   11ce4:	fb843783          	ld	a5,-72(s0)
   11ce8:	8385                	srli	a5,a5,0x1
   11cea:	faf43c23          	sd	a5,-72(s0)
   11cee:	fb843783          	ld	a5,-72(s0)
   11cf2:	f7e5                	bnez	a5,11cda <mpu_enable_region+0x42>
   11cf4:	fe843783          	ld	a5,-24(s0)
   11cf8:	bc379073          	csrw	0xbc3,a5
   11cfc:	fc043c23          	sd	zero,-40(s0)
   11d00:	fcc42783          	lw	a5,-52(s0)
   11d04:	0ff7f793          	andi	a5,a5,255
   11d08:	fcf40ca3          	sb	a5,-39(s0)
   11d0c:	fd844783          	lbu	a5,-40(s0)
   11d10:	0107e793          	ori	a5,a5,16
   11d14:	fcf40c23          	sb	a5,-40(s0)
   11d18:	fc842783          	lw	a5,-56(s0)
   11d1c:	8b85                	andi	a5,a5,1
   11d1e:	0ff7f793          	andi	a5,a5,255
   11d22:	8b85                	andi	a5,a5,1
   11d24:	0037969b          	slliw	a3,a5,0x3
   11d28:	fd844783          	lbu	a5,-40(s0)
   11d2c:	9bdd                	andi	a5,a5,-9
   11d2e:	873e                	mv	a4,a5
   11d30:	87b6                	mv	a5,a3
   11d32:	8fd9                	or	a5,a5,a4
   11d34:	fcf40c23          	sb	a5,-40(s0)
   11d38:	fd844783          	lbu	a5,-40(s0)
   11d3c:	f807e793          	ori	a5,a5,-128
   11d40:	fcf40c23          	sb	a5,-40(s0)
   11d44:	a09d                	j	11daa <mpu_enable_region+0x112>
   11d46:	fe043783          	ld	a5,-32(s0)
   11d4a:	0007c783          	lbu	a5,0(a5)
   11d4e:	873e                	mv	a4,a5
   11d50:	07200793          	li	a5,114
   11d54:	00f71863          	bne	a4,a5,11d64 <mpu_enable_region+0xcc>
   11d58:	fd844783          	lbu	a5,-40(s0)
   11d5c:	0027e793          	ori	a5,a5,2
   11d60:	fcf40c23          	sb	a5,-40(s0)
   11d64:	fe043783          	ld	a5,-32(s0)
   11d68:	0007c783          	lbu	a5,0(a5)
   11d6c:	873e                	mv	a4,a5
   11d6e:	07700793          	li	a5,119
   11d72:	00f71863          	bne	a4,a5,11d82 <mpu_enable_region+0xea>
   11d76:	fd844783          	lbu	a5,-40(s0)
   11d7a:	0017e793          	ori	a5,a5,1
   11d7e:	fcf40c23          	sb	a5,-40(s0)
   11d82:	fe043783          	ld	a5,-32(s0)
   11d86:	0007c783          	lbu	a5,0(a5)
   11d8a:	873e                	mv	a4,a5
   11d8c:	07800793          	li	a5,120
   11d90:	00f71863          	bne	a4,a5,11da0 <mpu_enable_region+0x108>
   11d94:	fd844783          	lbu	a5,-40(s0)
   11d98:	0047e793          	ori	a5,a5,4
   11d9c:	fcf40c23          	sb	a5,-40(s0)
   11da0:	fe043783          	ld	a5,-32(s0)
   11da4:	0785                	addi	a5,a5,1
   11da6:	fef43023          	sd	a5,-32(s0)
   11daa:	fe043783          	ld	a5,-32(s0)
   11dae:	0007c783          	lbu	a5,0(a5)
   11db2:	fbd1                	bnez	a5,11d46 <mpu_enable_region+0xae>
   11db4:	fd843783          	ld	a5,-40(s0)
   11db8:	bc479073          	csrw	0xbc4,a5
   11dbc:	0001                	nop
   11dbe:	6426                	ld	s0,72(sp)
   11dc0:	6161                	addi	sp,sp,80
   11dc2:	8082                	ret

0000000000011dc4 <is_empty_gui>:
   11dc4:	1101                	addi	sp,sp,-32
   11dc6:	ec22                	sd	s0,24(sp)
   11dc8:	1000                	addi	s0,sp,32
   11dca:	fea43423          	sd	a0,-24(s0)
   11dce:	fe843783          	ld	a5,-24(s0)
   11dd2:	439c                	lw	a5,0(a5)
   11dd4:	e7ad                	bnez	a5,11e3e <is_empty_gui+0x7a>
   11dd6:	fe843783          	ld	a5,-24(s0)
   11dda:	0047d783          	lhu	a5,4(a5)
   11dde:	e3a5                	bnez	a5,11e3e <is_empty_gui+0x7a>
   11de0:	fe843783          	ld	a5,-24(s0)
   11de4:	0067d783          	lhu	a5,6(a5)
   11de8:	ebb9                	bnez	a5,11e3e <is_empty_gui+0x7a>
   11dea:	fe843783          	ld	a5,-24(s0)
   11dee:	0087c783          	lbu	a5,8(a5)
   11df2:	e7b1                	bnez	a5,11e3e <is_empty_gui+0x7a>
   11df4:	fe843783          	ld	a5,-24(s0)
   11df8:	0097c783          	lbu	a5,9(a5)
   11dfc:	e3a9                	bnez	a5,11e3e <is_empty_gui+0x7a>
   11dfe:	fe843783          	ld	a5,-24(s0)
   11e02:	00a7c783          	lbu	a5,10(a5)
   11e06:	ef85                	bnez	a5,11e3e <is_empty_gui+0x7a>
   11e08:	fe843783          	ld	a5,-24(s0)
   11e0c:	00b7c783          	lbu	a5,11(a5)
   11e10:	e79d                	bnez	a5,11e3e <is_empty_gui+0x7a>
   11e12:	fe843783          	ld	a5,-24(s0)
   11e16:	00c7c783          	lbu	a5,12(a5)
   11e1a:	e395                	bnez	a5,11e3e <is_empty_gui+0x7a>
   11e1c:	fe843783          	ld	a5,-24(s0)
   11e20:	00d7c783          	lbu	a5,13(a5)
   11e24:	ef89                	bnez	a5,11e3e <is_empty_gui+0x7a>
   11e26:	fe843783          	ld	a5,-24(s0)
   11e2a:	00e7c783          	lbu	a5,14(a5)
   11e2e:	eb81                	bnez	a5,11e3e <is_empty_gui+0x7a>
   11e30:	fe843783          	ld	a5,-24(s0)
   11e34:	00f7c783          	lbu	a5,15(a5)
   11e38:	e399                	bnez	a5,11e3e <is_empty_gui+0x7a>
   11e3a:	4785                	li	a5,1
   11e3c:	a011                	j	11e40 <is_empty_gui+0x7c>
   11e3e:	4781                	li	a5,0
   11e40:	853e                	mv	a0,a5
   11e42:	6462                	ld	s0,24(sp)
   11e44:	6105                	addi	sp,sp,32
   11e46:	8082                	ret

0000000000011e48 <print_guid>:
   11e48:	7159                	addi	sp,sp,-112
   11e4a:	f486                	sd	ra,104(sp)
   11e4c:	f0a2                	sd	s0,96(sp)
   11e4e:	1880                	addi	s0,sp,112
   11e50:	fea43423          	sd	a0,-24(s0)
   11e54:	fe843783          	ld	a5,-24(s0)
   11e58:	439c                	lw	a5,0(a5)
   11e5a:	0187d79b          	srliw	a5,a5,0x18
   11e5e:	00078e1b          	sext.w	t3,a5
   11e62:	fe843783          	ld	a5,-24(s0)
   11e66:	439c                	lw	a5,0(a5)
   11e68:	0107d79b          	srliw	a5,a5,0x10
   11e6c:	2781                	sext.w	a5,a5
   11e6e:	0ff7f793          	andi	a5,a5,255
   11e72:	00078e9b          	sext.w	t4,a5
   11e76:	fe843783          	ld	a5,-24(s0)
   11e7a:	439c                	lw	a5,0(a5)
   11e7c:	0087d79b          	srliw	a5,a5,0x8
   11e80:	2781                	sext.w	a5,a5
   11e82:	0ff7f793          	andi	a5,a5,255
   11e86:	00078f1b          	sext.w	t5,a5
   11e8a:	fe843783          	ld	a5,-24(s0)
   11e8e:	439c                	lw	a5,0(a5)
   11e90:	0ff7f793          	andi	a5,a5,255
   11e94:	00078f9b          	sext.w	t6,a5
   11e98:	fe843783          	ld	a5,-24(s0)
   11e9c:	0047d783          	lhu	a5,4(a5)
   11ea0:	0087d79b          	srliw	a5,a5,0x8
   11ea4:	17c2                	slli	a5,a5,0x30
   11ea6:	93c1                	srli	a5,a5,0x30
   11ea8:	0007829b          	sext.w	t0,a5
   11eac:	fe843783          	ld	a5,-24(s0)
   11eb0:	0047d783          	lhu	a5,4(a5)
   11eb4:	2781                	sext.w	a5,a5
   11eb6:	0ff7f793          	andi	a5,a5,255
   11eba:	0007839b          	sext.w	t2,a5
   11ebe:	fe843783          	ld	a5,-24(s0)
   11ec2:	0067d783          	lhu	a5,6(a5)
   11ec6:	0087d79b          	srliw	a5,a5,0x8
   11eca:	17c2                	slli	a5,a5,0x30
   11ecc:	93c1                	srli	a5,a5,0x30
   11ece:	0007809b          	sext.w	ra,a5
   11ed2:	fe843783          	ld	a5,-24(s0)
   11ed6:	0067d783          	lhu	a5,6(a5)
   11eda:	2781                	sext.w	a5,a5
   11edc:	0ff7f793          	andi	a5,a5,255
   11ee0:	2781                	sext.w	a5,a5
   11ee2:	fe843703          	ld	a4,-24(s0)
   11ee6:	00874703          	lbu	a4,8(a4) # 1008 <_start-0xeff8>
   11eea:	2701                	sext.w	a4,a4
   11eec:	fe843683          	ld	a3,-24(s0)
   11ef0:	0096c683          	lbu	a3,9(a3)
   11ef4:	2681                	sext.w	a3,a3
   11ef6:	fe843603          	ld	a2,-24(s0)
   11efa:	00a64603          	lbu	a2,10(a2)
   11efe:	2601                	sext.w	a2,a2
   11f00:	fe843583          	ld	a1,-24(s0)
   11f04:	00b5c583          	lbu	a1,11(a1)
   11f08:	2581                	sext.w	a1,a1
   11f0a:	fe843503          	ld	a0,-24(s0)
   11f0e:	00c54503          	lbu	a0,12(a0)
   11f12:	2501                	sext.w	a0,a0
   11f14:	fe843803          	ld	a6,-24(s0)
   11f18:	00d84803          	lbu	a6,13(a6)
   11f1c:	2801                	sext.w	a6,a6
   11f1e:	fe843883          	ld	a7,-24(s0)
   11f22:	00e8c883          	lbu	a7,14(a7)
   11f26:	2881                	sext.w	a7,a7
   11f28:	fe843303          	ld	t1,-24(s0)
   11f2c:	00f34303          	lbu	t1,15(t1)
   11f30:	2301                	sext.w	t1,t1
   11f32:	e09a                	sd	t1,64(sp)
   11f34:	fc46                	sd	a7,56(sp)
   11f36:	f842                	sd	a6,48(sp)
   11f38:	f42a                	sd	a0,40(sp)
   11f3a:	f02e                	sd	a1,32(sp)
   11f3c:	ec32                	sd	a2,24(sp)
   11f3e:	e836                	sd	a3,16(sp)
   11f40:	e43a                	sd	a4,8(sp)
   11f42:	e03e                	sd	a5,0(sp)
   11f44:	8886                	mv	a7,ra
   11f46:	881e                	mv	a6,t2
   11f48:	8796                	mv	a5,t0
   11f4a:	877e                	mv	a4,t6
   11f4c:	86fa                	mv	a3,t5
   11f4e:	8676                	mv	a2,t4
   11f50:	85f2                	mv	a1,t3
   11f52:	6549                	lui	a0,0x12
   11f54:	62850513          	addi	a0,a0,1576 # 12628 <strnlen+0x27e>
   11f58:	ef2ff0ef          	jal	ra,1164a <printf_uart>
   11f5c:	0001                	nop
   11f5e:	70a6                	ld	ra,104(sp)
   11f60:	7406                	ld	s0,96(sp)
   11f62:	6165                	addi	sp,sp,112
   11f64:	8082                	ret

0000000000011f66 <is_uboot_guid>:
   11f66:	7179                	addi	sp,sp,-48
   11f68:	f422                	sd	s0,40(sp)
   11f6a:	1800                	addi	s0,sp,48
   11f6c:	fca43c23          	sd	a0,-40(s0)
   11f70:	5b1937b7          	lui	a5,0x5b193
   11f74:	3007879b          	addiw	a5,a5,768
   11f78:	fef42023          	sw	a5,-32(s0)
   11f7c:	c7800793          	li	a5,-904
   11f80:	fef41223          	sh	a5,-28(s0)
   11f84:	6791                	lui	a5,0x4
   11f86:	0cd7879b          	addiw	a5,a5,205
   11f8a:	fef41323          	sh	a5,-26(s0)
   11f8e:	f8000793          	li	a5,-128
   11f92:	fef40423          	sb	a5,-24(s0)
   11f96:	4789                	li	a5,2
   11f98:	fef404a3          	sb	a5,-23(s0)
   11f9c:	57a1                	li	a5,-24
   11f9e:	fef40523          	sb	a5,-22(s0)
   11fa2:	06c00793          	li	a5,108
   11fa6:	fef405a3          	sb	a5,-21(s0)
   11faa:	04500793          	li	a5,69
   11fae:	fef40623          	sb	a5,-20(s0)
   11fb2:	05800793          	li	a5,88
   11fb6:	fef406a3          	sb	a5,-19(s0)
   11fba:	47ad                	li	a5,11
   11fbc:	fef40723          	sb	a5,-18(s0)
   11fc0:	04700793          	li	a5,71
   11fc4:	fef407a3          	sb	a5,-17(s0)
   11fc8:	fe042703          	lw	a4,-32(s0)
   11fcc:	fd843783          	ld	a5,-40(s0)
   11fd0:	439c                	lw	a5,0(a5)
   11fd2:	0af71863          	bne	a4,a5,12082 <is_uboot_guid+0x11c>
   11fd6:	fe445703          	lhu	a4,-28(s0)
   11fda:	fd843783          	ld	a5,-40(s0)
   11fde:	0047d783          	lhu	a5,4(a5) # 4004 <_start-0xbffc>
   11fe2:	2701                	sext.w	a4,a4
   11fe4:	2781                	sext.w	a5,a5
   11fe6:	08f71e63          	bne	a4,a5,12082 <is_uboot_guid+0x11c>
   11fea:	fe645703          	lhu	a4,-26(s0)
   11fee:	fd843783          	ld	a5,-40(s0)
   11ff2:	0067d783          	lhu	a5,6(a5)
   11ff6:	2701                	sext.w	a4,a4
   11ff8:	2781                	sext.w	a5,a5
   11ffa:	08f71463          	bne	a4,a5,12082 <is_uboot_guid+0x11c>
   11ffe:	fe844703          	lbu	a4,-24(s0)
   12002:	fd843783          	ld	a5,-40(s0)
   12006:	0087c783          	lbu	a5,8(a5)
   1200a:	06f71c63          	bne	a4,a5,12082 <is_uboot_guid+0x11c>
   1200e:	fe944703          	lbu	a4,-23(s0)
   12012:	fd843783          	ld	a5,-40(s0)
   12016:	0097c783          	lbu	a5,9(a5)
   1201a:	06f71463          	bne	a4,a5,12082 <is_uboot_guid+0x11c>
   1201e:	fea44703          	lbu	a4,-22(s0)
   12022:	fd843783          	ld	a5,-40(s0)
   12026:	00a7c783          	lbu	a5,10(a5)
   1202a:	04f71c63          	bne	a4,a5,12082 <is_uboot_guid+0x11c>
   1202e:	feb44703          	lbu	a4,-21(s0)
   12032:	fd843783          	ld	a5,-40(s0)
   12036:	00b7c783          	lbu	a5,11(a5)
   1203a:	04f71463          	bne	a4,a5,12082 <is_uboot_guid+0x11c>
   1203e:	fec44703          	lbu	a4,-20(s0)
   12042:	fd843783          	ld	a5,-40(s0)
   12046:	00c7c783          	lbu	a5,12(a5)
   1204a:	02f71c63          	bne	a4,a5,12082 <is_uboot_guid+0x11c>
   1204e:	fed44703          	lbu	a4,-19(s0)
   12052:	fd843783          	ld	a5,-40(s0)
   12056:	00d7c783          	lbu	a5,13(a5)
   1205a:	02f71463          	bne	a4,a5,12082 <is_uboot_guid+0x11c>
   1205e:	fee44703          	lbu	a4,-18(s0)
   12062:	fd843783          	ld	a5,-40(s0)
   12066:	00e7c783          	lbu	a5,14(a5)
   1206a:	00f71c63          	bne	a4,a5,12082 <is_uboot_guid+0x11c>
   1206e:	fef44703          	lbu	a4,-17(s0)
   12072:	fd843783          	ld	a5,-40(s0)
   12076:	00f7c783          	lbu	a5,15(a5)
   1207a:	00f71463          	bne	a4,a5,12082 <is_uboot_guid+0x11c>
   1207e:	4785                	li	a5,1
   12080:	a011                	j	12084 <is_uboot_guid+0x11e>
   12082:	4781                	li	a5,0
   12084:	853e                	mv	a0,a5
   12086:	7422                	ld	s0,40(sp)
   12088:	6145                	addi	sp,sp,48
   1208a:	8082                	ret

000000000001208c <run_from_sdcard>:
   1208c:	9c010113          	addi	sp,sp,-1600
   12090:	62113c23          	sd	ra,1592(sp)
   12094:	62813823          	sd	s0,1584(sp)
   12098:	64010413          	addi	s0,sp,1600
   1209c:	fe043423          	sd	zero,-24(s0)
   120a0:	fe043023          	sd	zero,-32(s0)
   120a4:	080007b7          	lui	a5,0x8000
   120a8:	fcf43c23          	sd	a5,-40(s0)
   120ac:	00000097          	auipc	ra,0x0
   120b0:	89a080e7          	jalr	-1894(ra) # 11946 <init_qspi>
   120b4:	45b5                	li	a1,13
   120b6:	67c9                	lui	a5,0x12
   120b8:	67078513          	addi	a0,a5,1648 # 12670 <strnlen+0x2c6>
   120bc:	fb3fe0ef          	jal	ra,1106e <print_uart>
   120c0:	4501                	li	a0,0
   120c2:	00000097          	auipc	ra,0x0
   120c6:	96c080e7          	jalr	-1684(ra) # 11a2e <sd_start_reading>
   120ca:	dc040793          	addi	a5,s0,-576
   120ce:	20000593          	li	a1,512
   120d2:	853e                	mv	a0,a5
   120d4:	8efff0ef          	jal	ra,119c2 <sd_read_block>
   120d8:	bc040793          	addi	a5,s0,-1088
   120dc:	20000593          	li	a1,512
   120e0:	853e                	mv	a0,a5
   120e2:	8e1ff0ef          	jal	ra,119c2 <sd_read_block>
   120e6:	bc043703          	ld	a4,-1088(s0)
   120ea:	67c9                	lui	a5,0x12
   120ec:	6d07b783          	ld	a5,1744(a5) # 126d0 <strnlen+0x326>
   120f0:	00f70663          	beq	a4,a5,120fc <run_from_sdcard+0x70>
   120f4:	9b1ff0ef          	jal	ra,11aa4 <sd_stop_reading>
   120f8:	57fd                	li	a5,-1
   120fa:	a2c5                	j	122da <run_from_sdcard+0x24e>
   120fc:	fc042a23          	sw	zero,-44(s0)
   12100:	a8c5                	j	121f0 <run_from_sdcard+0x164>
   12102:	fd442703          	lw	a4,-44(s0)
   12106:	41f7579b          	sraiw	a5,a4,0x1f
   1210a:	01e7d79b          	srliw	a5,a5,0x1e
   1210e:	9f3d                	addw	a4,a4,a5
   12110:	8b0d                	andi	a4,a4,3
   12112:	40f707bb          	subw	a5,a4,a5
   12116:	fcf42223          	sw	a5,-60(s0)
   1211a:	fc442783          	lw	a5,-60(s0)
   1211e:	2781                	sext.w	a5,a5
   12120:	eb81                	bnez	a5,12130 <run_from_sdcard+0xa4>
   12122:	9c040793          	addi	a5,s0,-1600
   12126:	20000593          	li	a1,512
   1212a:	853e                	mv	a0,a5
   1212c:	897ff0ef          	jal	ra,119c2 <sd_read_block>
   12130:	9c040713          	addi	a4,s0,-1600
   12134:	fc442783          	lw	a5,-60(s0)
   12138:	079e                	slli	a5,a5,0x7
   1213a:	97ba                	add	a5,a5,a4
   1213c:	853e                	mv	a0,a5
   1213e:	00000097          	auipc	ra,0x0
   12142:	c86080e7          	jalr	-890(ra) # 11dc4 <is_empty_gui>
   12146:	87aa                	mv	a5,a0
   12148:	efd1                	bnez	a5,121e4 <run_from_sdcard+0x158>
   1214a:	fd442783          	lw	a5,-44(s0)
   1214e:	85be                	mv	a1,a5
   12150:	67c9                	lui	a5,0x12
   12152:	68078513          	addi	a0,a5,1664 # 12680 <strnlen+0x2d6>
   12156:	cf4ff0ef          	jal	ra,1164a <printf_uart>
   1215a:	9c040713          	addi	a4,s0,-1600
   1215e:	fc442783          	lw	a5,-60(s0)
   12162:	079e                	slli	a5,a5,0x7
   12164:	97ba                	add	a5,a5,a4
   12166:	853e                	mv	a0,a5
   12168:	ce1ff0ef          	jal	ra,11e48 <print_guid>
   1216c:	458d                	li	a1,3
   1216e:	67c9                	lui	a5,0x12
   12170:	68878513          	addi	a0,a5,1672 # 12688 <strnlen+0x2de>
   12174:	efbfe0ef          	jal	ra,1106e <print_uart>
   12178:	9c040713          	addi	a4,s0,-1600
   1217c:	fc442783          	lw	a5,-60(s0)
   12180:	079e                	slli	a5,a5,0x7
   12182:	03078793          	addi	a5,a5,48
   12186:	97ba                	add	a5,a5,a4
   12188:	07a1                	addi	a5,a5,8
   1218a:	04800593          	li	a1,72
   1218e:	853e                	mv	a0,a5
   12190:	edffe0ef          	jal	ra,1106e <print_uart>
   12194:	4589                	li	a1,2
   12196:	67c9                	lui	a5,0x12
   12198:	69078513          	addi	a0,a5,1680 # 12690 <strnlen+0x2e6>
   1219c:	ed3fe0ef          	jal	ra,1106e <print_uart>
   121a0:	9c040713          	addi	a4,s0,-1600
   121a4:	fc442783          	lw	a5,-60(s0)
   121a8:	079e                	slli	a5,a5,0x7
   121aa:	97ba                	add	a5,a5,a4
   121ac:	853e                	mv	a0,a5
   121ae:	00000097          	auipc	ra,0x0
   121b2:	db8080e7          	jalr	-584(ra) # 11f66 <is_uboot_guid>
   121b6:	87aa                	mv	a5,a0
   121b8:	c79d                	beqz	a5,121e6 <run_from_sdcard+0x15a>
   121ba:	fc442783          	lw	a5,-60(s0)
   121be:	079e                	slli	a5,a5,0x7
   121c0:	ff040713          	addi	a4,s0,-16
   121c4:	97ba                	add	a5,a5,a4
   121c6:	9f07b783          	ld	a5,-1552(a5)
   121ca:	fef43423          	sd	a5,-24(s0)
   121ce:	fc442783          	lw	a5,-60(s0)
   121d2:	079e                	slli	a5,a5,0x7
   121d4:	ff040713          	addi	a4,s0,-16
   121d8:	97ba                	add	a5,a5,a4
   121da:	9f87b783          	ld	a5,-1544(a5)
   121de:	fef43023          	sd	a5,-32(s0)
   121e2:	a011                	j	121e6 <run_from_sdcard+0x15a>
   121e4:	0001                	nop
   121e6:	fd442783          	lw	a5,-44(s0)
   121ea:	2785                	addiw	a5,a5,1
   121ec:	fcf42a23          	sw	a5,-44(s0)
   121f0:	c1042703          	lw	a4,-1008(s0)
   121f4:	fd442783          	lw	a5,-44(s0)
   121f8:	f0e7e5e3          	bltu	a5,a4,12102 <run_from_sdcard+0x76>
   121fc:	8a9ff0ef          	jal	ra,11aa4 <sd_stop_reading>
   12200:	fe843783          	ld	a5,-24(s0)
   12204:	e399                	bnez	a5,1220a <run_from_sdcard+0x17e>
   12206:	57fd                	li	a5,-1
   12208:	a8c9                	j	122da <run_from_sdcard+0x24e>
   1220a:	fe843783          	ld	a5,-24(s0)
   1220e:	07a6                	slli	a5,a5,0x9
   12210:	853e                	mv	a0,a5
   12212:	00000097          	auipc	ra,0x0
   12216:	81c080e7          	jalr	-2020(ra) # 11a2e <sd_start_reading>
   1221a:	fe043703          	ld	a4,-32(s0)
   1221e:	fe843783          	ld	a5,-24(s0)
   12222:	40f707b3          	sub	a5,a4,a5
   12226:	0785                	addi	a5,a5,1
   12228:	8385                	srli	a5,a5,0x1
   1222a:	85be                	mv	a1,a5
   1222c:	67c9                	lui	a5,0x12
   1222e:	69878513          	addi	a0,a5,1688 # 12698 <strnlen+0x2ee>
   12232:	c18ff0ef          	jal	ra,1164a <printf_uart>
   12236:	fe843783          	ld	a5,-24(s0)
   1223a:	fcf43423          	sd	a5,-56(s0)
   1223e:	a8bd                	j	122bc <run_from_sdcard+0x230>
   12240:	9c040793          	addi	a5,s0,-1600
   12244:	20000593          	li	a1,512
   12248:	853e                	mv	a0,a5
   1224a:	f78ff0ef          	jal	ra,119c2 <sd_read_block>
   1224e:	9c040793          	addi	a5,s0,-1600
   12252:	6398                	ld	a4,0(a5)
   12254:	fd843783          	ld	a5,-40(s0)
   12258:	639c                	ld	a5,0(a5)
   1225a:	00f71b63          	bne	a4,a5,12270 <run_from_sdcard+0x1e4>
   1225e:	67c9                	lui	a5,0x12
   12260:	6a878593          	addi	a1,a5,1704 # 126a8 <strnlen+0x2fe>
   12264:	67c9                	lui	a5,0x12
   12266:	6b878513          	addi	a0,a5,1720 # 126b8 <strnlen+0x30e>
   1226a:	be0ff0ef          	jal	ra,1164a <printf_uart>
   1226e:	a8a9                	j	122c8 <run_from_sdcard+0x23c>
   12270:	fd843783          	ld	a5,-40(s0)
   12274:	86be                	mv	a3,a5
   12276:	9c040793          	addi	a5,s0,-1600
   1227a:	20000713          	li	a4,512
   1227e:	863a                	mv	a2,a4
   12280:	85be                	mv	a1,a5
   12282:	8536                	mv	a0,a3
   12284:	00000097          	auipc	ra,0x0
   12288:	066080e7          	jalr	102(ra) # 122ea <memcpy>
   1228c:	fd843783          	ld	a5,-40(s0)
   12290:	20078793          	addi	a5,a5,512
   12294:	fcf43c23          	sd	a5,-40(s0)
   12298:	fc843703          	ld	a4,-56(s0)
   1229c:	06400793          	li	a5,100
   122a0:	02f777b3          	remu	a5,a4,a5
   122a4:	e799                	bnez	a5,122b2 <run_from_sdcard+0x226>
   122a6:	4589                	li	a1,2
   122a8:	67c9                	lui	a5,0x12
   122aa:	6c878513          	addi	a0,a5,1736 # 126c8 <strnlen+0x31e>
   122ae:	dc1fe0ef          	jal	ra,1106e <print_uart>
   122b2:	fc843783          	ld	a5,-56(s0)
   122b6:	0785                	addi	a5,a5,1
   122b8:	fcf43423          	sd	a5,-56(s0)
   122bc:	fc843703          	ld	a4,-56(s0)
   122c0:	fe043783          	ld	a5,-32(s0)
   122c4:	f6e7fee3          	bleu	a4,a5,12240 <run_from_sdcard+0x1b4>
   122c8:	4589                	li	a1,2
   122ca:	67c9                	lui	a5,0x12
   122cc:	69078513          	addi	a0,a5,1680 # 12690 <strnlen+0x2e6>
   122d0:	d9ffe0ef          	jal	ra,1106e <print_uart>
   122d4:	fd0ff0ef          	jal	ra,11aa4 <sd_stop_reading>
   122d8:	4781                	li	a5,0
   122da:	853e                	mv	a0,a5
   122dc:	63813083          	ld	ra,1592(sp)
   122e0:	63013403          	ld	s0,1584(sp)
   122e4:	64010113          	addi	sp,sp,1600
   122e8:	8082                	ret

00000000000122ea <memcpy>:
   122ea:	00a5c7b3          	xor	a5,a1,a0
   122ee:	8b9d                	andi	a5,a5,7
   122f0:	00c50733          	add	a4,a0,a2
   122f4:	e781                	bnez	a5,122fc <memcpy+0x12>
   122f6:	479d                	li	a5,7
   122f8:	00c7ef63          	bltu	a5,a2,12316 <memcpy+0x2c>
   122fc:	87aa                	mv	a5,a0
   122fe:	00e56963          	bltu	a0,a4,12310 <memcpy+0x26>
   12302:	8082                	ret
   12304:	0005c683          	lbu	a3,0(a1)
   12308:	0785                	addi	a5,a5,1
   1230a:	0585                	addi	a1,a1,1
   1230c:	fed78fa3          	sb	a3,-1(a5)
   12310:	fee7eae3          	bltu	a5,a4,12304 <memcpy+0x1a>
   12314:	8082                	ret
   12316:	00757793          	andi	a5,a0,7
   1231a:	ebbd                	bnez	a5,12390 <memcpy+0xa6>
   1231c:	87aa                	mv	a5,a0
   1231e:	ff877693          	andi	a3,a4,-8
   12322:	fc068613          	addi	a2,a3,-64
   12326:	06c7fc63          	bleu	a2,a5,1239e <memcpy+0xb4>
   1232a:	0005b383          	ld	t2,0(a1)
   1232e:	0085b283          	ld	t0,8(a1)
   12332:	0105bf83          	ld	t6,16(a1)
   12336:	0185bf03          	ld	t5,24(a1)
   1233a:	0205be83          	ld	t4,32(a1)
   1233e:	0285be03          	ld	t3,40(a1)
   12342:	0305b303          	ld	t1,48(a1)
   12346:	0385b883          	ld	a7,56(a1)
   1234a:	04858593          	addi	a1,a1,72
   1234e:	04878793          	addi	a5,a5,72
   12352:	ff85b803          	ld	a6,-8(a1)
   12356:	fa77bc23          	sd	t2,-72(a5)
   1235a:	fc57b023          	sd	t0,-64(a5)
   1235e:	fdf7b423          	sd	t6,-56(a5)
   12362:	fde7b823          	sd	t5,-48(a5)
   12366:	fdd7bc23          	sd	t4,-40(a5)
   1236a:	ffc7b023          	sd	t3,-32(a5)
   1236e:	fe67b423          	sd	t1,-24(a5)
   12372:	ff17b823          	sd	a7,-16(a5)
   12376:	ff07bc23          	sd	a6,-8(a5)
   1237a:	b775                	j	12326 <memcpy+0x3c>
   1237c:	0005c683          	lbu	a3,0(a1)
   12380:	0785                	addi	a5,a5,1
   12382:	0585                	addi	a1,a1,1
   12384:	fed78fa3          	sb	a3,-1(a5)
   12388:	0077f693          	andi	a3,a5,7
   1238c:	fae5                	bnez	a3,1237c <memcpy+0x92>
   1238e:	bf41                	j	1231e <memcpy+0x34>
   12390:	87aa                	mv	a5,a0
   12392:	bfdd                	j	12388 <memcpy+0x9e>
   12394:	6190                	ld	a2,0(a1)
   12396:	07a1                	addi	a5,a5,8
   12398:	05a1                	addi	a1,a1,8
   1239a:	fec7bc23          	sd	a2,-8(a5)
   1239e:	fed7ebe3          	bltu	a5,a3,12394 <memcpy+0xaa>
   123a2:	f6e7e7e3          	bltu	a5,a4,12310 <memcpy+0x26>
   123a6:	8082                	ret
   123a8:	0000                	unimp

00000000000123aa <strnlen>:
   123aa:	95aa                	add	a1,a1,a0
   123ac:	87aa                	mv	a5,a0
   123ae:	00b78563          	beq	a5,a1,123b8 <strnlen+0xe>
   123b2:	0007c703          	lbu	a4,0(a5)
   123b6:	e701                	bnez	a4,123be <strnlen+0x14>
   123b8:	40a78533          	sub	a0,a5,a0
   123bc:	8082                	ret
   123be:	0785                	addi	a5,a5,1
   123c0:	b7fd                	j	123ae <strnlen+0x4>
   123c2:	00              	Address 0x00000000000123c2 is out of bounds.


Disassembly of section .data:

00000000000126d8 <dtb_start>:
   126d8:	0dd0                	addi	a2,sp,724
   126da:	edfe                	sd	t6,216(sp)
   126dc:	0000                	unimp
   126de:	3e0d                	addiw	t3,t3,-29
   126e0:	0000                	unimp
   126e2:	3800                	fld	fs0,48(s0)
   126e4:	0000                	unimp
   126e6:	0000e80b          	0xe80b
   126ea:	2800                	fld	fs0,16(s0)
   126ec:	0000                	unimp
   126ee:	1100                	addi	s0,sp,160
   126f0:	0000                	unimp
   126f2:	1000                	addi	s0,sp,32
   126f4:	0000                	unimp
   126f6:	0000                	unimp
   126f8:	0000                	unimp
   126fa:	5601                	li	a2,-32
   126fc:	0000                	unimp
   126fe:	0000b00b          	0xb00b
   12702:	0000                	unimp
   12704:	0000                	unimp
   12706:	0000                	unimp
   12708:	0000                	unimp
   1270a:	0000                	unimp
   1270c:	0000                	unimp
   1270e:	0000                	unimp
   12710:	0000                	unimp
   12712:	0100                	addi	s0,sp,128
   12714:	0000                	unimp
   12716:	0000                	unimp
   12718:	0000                	unimp
   1271a:	0300                	addi	s0,sp,384
   1271c:	0000                	unimp
   1271e:	0400                	addi	s0,sp,512
   12720:	0000                	unimp
   12722:	0000                	unimp
   12724:	0000                	unimp
   12726:	0200                	addi	s0,sp,256
   12728:	0000                	unimp
   1272a:	0300                	addi	s0,sp,384
   1272c:	0000                	unimp
   1272e:	0400                	addi	s0,sp,512
   12730:	0000                	unimp
   12732:	0f00                	addi	s0,sp,912
   12734:	0000                	unimp
   12736:	0200                	addi	s0,sp,256
   12738:	0000                	unimp
   1273a:	0300                	addi	s0,sp,384
   1273c:	0000                	unimp
   1273e:	0d00                	addi	s0,sp,656
   12740:	0000                	unimp
   12742:	1b00                	addi	s0,sp,432
   12744:	6972                	ld	s2,280(sp)
   12746:	2d766373          	csrrsi	t1,0x2d7,12
   1274a:	6976                	ld	s2,344(sp)
   1274c:	7472                	ld	s0,312(sp)
   1274e:	6f69                	lui	t5,0x1a
   12750:	0000                	unimp
   12752:	0000                	unimp
   12754:	0000                	unimp
   12756:	0300                	addi	s0,sp,384
   12758:	0000                	unimp
   1275a:	1200                	addi	s0,sp,288
   1275c:	0000                	unimp
   1275e:	2600                	fld	fs0,8(a2)
   12760:	6972                	ld	s2,280(sp)
   12762:	2d766373          	csrrsi	t1,0x2d7,12
   12766:	6976                	ld	s2,344(sp)
   12768:	7472                	ld	s0,312(sp)
   1276a:	6f69                	lui	t5,0x1a
   1276c:	712c                	ld	a1,96(a0)
   1276e:	6d65                	lui	s10,0x19
   12770:	0075                	c.addi	zero,29
   12772:	0000                	unimp
   12774:	0000                	unimp
   12776:	0100                	addi	s0,sp,128
   12778:	6c66                	ld	s8,88(sp)
   1277a:	7361                	lui	t1,0xffff8
   1277c:	4068                	lw	a0,68(s0)
   1277e:	3032                	fld	ft0,296(sp)
   12780:	3030                	fld	fa2,96(s0)
   12782:	3030                	fld	fa2,96(s0)
   12784:	3030                	fld	fa2,96(s0)
   12786:	0000                	unimp
   12788:	0000                	unimp
   1278a:	0300                	addi	s0,sp,384
   1278c:	0000                	unimp
   1278e:	0400                	addi	s0,sp,512
   12790:	0000                	unimp
   12792:	2c00                	fld	fs0,24(s0)
   12794:	0000                	unimp
   12796:	0400                	addi	s0,sp,512
   12798:	0000                	unimp
   1279a:	0300                	addi	s0,sp,384
   1279c:	0000                	unimp
   1279e:	2000                	fld	fs0,0(s0)
   127a0:	0000                	unimp
   127a2:	3700                	fld	fs0,40(a4)
   127a4:	0000                	unimp
   127a6:	0000                	unimp
   127a8:	0020                	addi	s0,sp,8
   127aa:	0000                	unimp
   127ac:	0000                	unimp
   127ae:	0000                	unimp
   127b0:	0002                	0x2
   127b2:	0000                	unimp
   127b4:	0000                	unimp
   127b6:	0000                	unimp
   127b8:	0022                	0x22
   127ba:	0000                	unimp
   127bc:	0000                	unimp
   127be:	0000                	unimp
   127c0:	0002                	0x2
   127c2:	0000                	unimp
   127c4:	0000                	unimp
   127c6:	0300                	addi	s0,sp,384
   127c8:	0000                	unimp
   127ca:	0a00                	addi	s0,sp,272
   127cc:	0000                	unimp
   127ce:	1b00                	addi	s0,sp,432
   127d0:	2d696663          	bltu	s2,s6,12a9c <dtb_start+0x3c4>
   127d4:	6c66                	ld	s8,88(sp)
   127d6:	7361                	lui	t1,0xffff8
   127d8:	0068                	addi	a0,sp,12
   127da:	0000                	unimp
   127dc:	0000                	unimp
   127de:	0200                	addi	s0,sp,256
   127e0:	0000                	unimp
   127e2:	0100                	addi	s0,sp,128
   127e4:	736f6863          	bltu	t5,s6,12f14 <dtb_start+0x83c>
   127e8:	6e65                	lui	t3,0x19
   127ea:	0000                	unimp
   127ec:	0000                	unimp
   127ee:	0300                	addi	s0,sp,384
   127f0:	0000                	unimp
   127f2:	2200                	fld	fs0,0(a2)
   127f4:	0000                	unimp
   127f6:	3b00                	fld	fs0,48(a4)
   127f8:	6165                	addi	sp,sp,112
   127fa:	6c72                	ld	s8,280(sp)
   127fc:	7079                	0x7079
   127fe:	6972                	ld	s2,280(sp)
   12800:	746e                	ld	s0,248(sp)
   12802:	656b3d6b          	0x656b3d6b
   12806:	7065                	0x7065
   12808:	7220                	ld	s0,96(a2)
   1280a:	6f722077          	0x6f722077
   1280e:	2f3d746f          	jal	s0,ea300 <_end+0xd6cc8>
   12812:	6564                	ld	s1,200(a0)
   12814:	2f76                	fld	ft10,344(sp)
   12816:	6476                	ld	s0,344(sp)
   12818:	0061                	c.addi	zero,24
   1281a:	0000                	unimp
   1281c:	0000                	unimp
   1281e:	0300                	addi	s0,sp,384
   12820:	0000                	unimp
   12822:	0f00                	addi	s0,sp,912
   12824:	0000                	unimp
   12826:	4400                	lw	s0,8(s0)
   12828:	7261752f          	0x7261752f
   1282c:	4074                	lw	a3,68(s0)
   1282e:	3031                	0x3031
   12830:	3130                	fld	fa2,96(a0)
   12832:	3030                	fld	fa2,96(s0)
   12834:	3030                	fld	fa2,96(s0)
   12836:	0000                	unimp
   12838:	0000                	unimp
   1283a:	0200                	addi	s0,sp,256
   1283c:	0000                	unimp
   1283e:	0100                	addi	s0,sp,128
   12840:	6175                	addi	sp,sp,368
   12842:	7472                	ld	s0,312(sp)
   12844:	3140                	fld	fs0,160(a0)
   12846:	3030                	fld	fa2,96(s0)
   12848:	3031                	0x3031
   1284a:	3030                	fld	fa2,96(s0)
   1284c:	0030                	addi	a2,sp,8
   1284e:	0000                	unimp
   12850:	0000                	unimp
   12852:	0300                	addi	s0,sp,384
   12854:	0000                	unimp
   12856:	0400                	addi	s0,sp,512
   12858:	0000                	unimp
   1285a:	5000                	lw	s0,32(s0)
   1285c:	0000                	unimp
   1285e:	0a00                	addi	s0,sp,272
   12860:	0000                	unimp
   12862:	0300                	addi	s0,sp,384
   12864:	0000                	unimp
   12866:	0400                	addi	s0,sp,512
   12868:	0000                	unimp
   1286a:	5b00                	lw	s0,48(a4)
   1286c:	0000                	unimp
   1286e:	0300                	addi	s0,sp,384
   12870:	0000                	unimp
   12872:	0300                	addi	s0,sp,384
   12874:	0000                	unimp
   12876:	0400                	addi	s0,sp,512
   12878:	0000                	unimp
   1287a:	6c00                	ld	s0,24(s0)
   1287c:	3800                	fld	fs0,48(s0)
   1287e:	0040                	addi	s0,sp,4
   12880:	0000                	unimp
   12882:	0300                	addi	s0,sp,384
   12884:	0000                	unimp
   12886:	1000                	addi	s0,sp,32
   12888:	0000                	unimp
   1288a:	3700                	fld	fs0,40(a4)
   1288c:	0000                	unimp
   1288e:	0000                	unimp
   12890:	0110                	addi	a2,sp,128
   12892:	0000                	unimp
   12894:	0000                	unimp
   12896:	0000                	unimp
   12898:	0000                	unimp
   1289a:	0001                	nop
   1289c:	0000                	unimp
   1289e:	0300                	addi	s0,sp,384
   128a0:	0000                	unimp
   128a2:	0d00                	addi	s0,sp,656
   128a4:	0000                	unimp
   128a6:	1b00                	addi	s0,sp,432
   128a8:	69666973          	csrrsi	s2,0x696,12
   128ac:	6576                	ld	a0,344(sp)
   128ae:	752c                	ld	a1,104(a0)
   128b0:	7261                	lui	tp,0xffff8
   128b2:	3074                	fld	fa3,224(s0)
   128b4:	0000                	unimp
   128b6:	0000                	unimp
   128b8:	0000                	unimp
   128ba:	0200                	addi	s0,sp,256
   128bc:	0000                	unimp
   128be:	0100                	addi	s0,sp,128
   128c0:	6574                	ld	a3,200(a0)
   128c2:	31407473          	csrrci	s0,0x314,0
   128c6:	3030                	fld	fa2,96(s0)
   128c8:	3030                	fld	fa2,96(s0)
   128ca:	0030                	addi	a2,sp,8
   128cc:	0000                	unimp
   128ce:	0300                	addi	s0,sp,384
   128d0:	0000                	unimp
   128d2:	1000                	addi	s0,sp,32
   128d4:	0000                	unimp
   128d6:	3700                	fld	fs0,40(a4)
   128d8:	0000                	unimp
   128da:	0000                	unimp
   128dc:	1000                	addi	s0,sp,32
   128de:	0000                	unimp
   128e0:	0000                	unimp
   128e2:	0000                	unimp
   128e4:	0000                	unimp
   128e6:	0010                	addi	a2,sp,0
   128e8:	0000                	unimp
   128ea:	0300                	addi	s0,sp,384
   128ec:	0000                	unimp
   128ee:	1a00                	addi	s0,sp,304
   128f0:	0000                	unimp
   128f2:	1b00                	addi	s0,sp,432
   128f4:	69666973          	csrrsi	s2,0x696,12
   128f8:	6576                	ld	a0,344(sp)
   128fa:	742c                	ld	a1,104(s0)
   128fc:	7365                	lui	t1,0xffff9
   128fe:	3174                	fld	fa3,224(a0)
   12900:	7300                	ld	s0,32(a4)
   12902:	6669                	lui	a2,0x1a
   12904:	7669                	lui	a2,0xffffa
   12906:	2c65                	addiw	s8,s8,25
   12908:	6574                	ld	a3,200(a0)
   1290a:	00307473          	csrrci	s0,fcsr,0
   1290e:	0000                	unimp
   12910:	0000                	unimp
   12912:	0200                	addi	s0,sp,256
   12914:	0000                	unimp
   12916:	0100                	addi	s0,sp,128
   12918:	6976                	ld	s2,344(sp)
   1291a:	7472                	ld	s0,312(sp)
   1291c:	6f69                	lui	t5,0x1a
   1291e:	6d5f 696d 406f      	0x406f696d6d5f
   12924:	3031                	0x3031
   12926:	3030                	fld	fa2,96(s0)
   12928:	3038                	fld	fa4,96(s0)
   1292a:	3030                	fld	fa2,96(s0)
   1292c:	0000                	unimp
   1292e:	0000                	unimp
   12930:	0000                	unimp
   12932:	0300                	addi	s0,sp,384
   12934:	0000                	unimp
   12936:	0400                	addi	s0,sp,512
   12938:	0000                	unimp
   1293a:	5000                	lw	s0,32(s0)
   1293c:	0000                	unimp
   1293e:	0800                	addi	s0,sp,16
   12940:	0000                	unimp
   12942:	0300                	addi	s0,sp,384
   12944:	0000                	unimp
   12946:	0400                	addi	s0,sp,512
   12948:	0000                	unimp
   1294a:	5b00                	lw	s0,48(a4)
   1294c:	0000                	unimp
   1294e:	0300                	addi	s0,sp,384
   12950:	0000                	unimp
   12952:	0300                	addi	s0,sp,384
   12954:	0000                	unimp
   12956:	1000                	addi	s0,sp,32
   12958:	0000                	unimp
   1295a:	3700                	fld	fs0,40(a4)
   1295c:	0000                	unimp
   1295e:	0000                	unimp
   12960:	0010                	addi	a2,sp,0
   12962:	0080                	addi	s0,sp,64
   12964:	0000                	unimp
   12966:	0000                	unimp
   12968:	0000                	unimp
   1296a:	0010                	addi	a2,sp,0
   1296c:	0000                	unimp
   1296e:	0300                	addi	s0,sp,384
   12970:	0000                	unimp
   12972:	0c00                	addi	s0,sp,528
   12974:	0000                	unimp
   12976:	1b00                	addi	s0,sp,432
   12978:	6976                	ld	s2,344(sp)
   1297a:	7472                	ld	s0,312(sp)
   1297c:	6f69                	lui	t5,0x1a
   1297e:	6d2c                	ld	a1,88(a0)
   12980:	696d                	lui	s2,0x1b
   12982:	0000006f          	j	12982 <dtb_start+0x2aa>
   12986:	0200                	addi	s0,sp,256
   12988:	0000                	unimp
   1298a:	0100                	addi	s0,sp,128
   1298c:	6976                	ld	s2,344(sp)
   1298e:	7472                	ld	s0,312(sp)
   12990:	6f69                	lui	t5,0x1a
   12992:	6d5f 696d 406f      	0x406f696d6d5f
   12998:	3031                	0x3031
   1299a:	3030                	fld	fa2,96(s0)
   1299c:	30303037          	lui	zero,0x30303
   129a0:	0000                	unimp
   129a2:	0000                	unimp
   129a4:	0000                	unimp
   129a6:	0300                	addi	s0,sp,384
   129a8:	0000                	unimp
   129aa:	0400                	addi	s0,sp,512
   129ac:	0000                	unimp
   129ae:	5000                	lw	s0,32(s0)
   129b0:	0000                	unimp
   129b2:	0700                	addi	s0,sp,896
   129b4:	0000                	unimp
   129b6:	0300                	addi	s0,sp,384
   129b8:	0000                	unimp
   129ba:	0400                	addi	s0,sp,512
   129bc:	0000                	unimp
   129be:	5b00                	lw	s0,48(a4)
   129c0:	0000                	unimp
   129c2:	0300                	addi	s0,sp,384
   129c4:	0000                	unimp
   129c6:	0300                	addi	s0,sp,384
   129c8:	0000                	unimp
   129ca:	1000                	addi	s0,sp,32
   129cc:	0000                	unimp
   129ce:	3700                	fld	fs0,40(a4)
   129d0:	0000                	unimp
   129d2:	0000                	unimp
   129d4:	0010                	addi	a2,sp,0
   129d6:	0070                	addi	a2,sp,12
   129d8:	0000                	unimp
   129da:	0000                	unimp
   129dc:	0000                	unimp
   129de:	0010                	addi	a2,sp,0
   129e0:	0000                	unimp
   129e2:	0300                	addi	s0,sp,384
   129e4:	0000                	unimp
   129e6:	0c00                	addi	s0,sp,528
   129e8:	0000                	unimp
   129ea:	1b00                	addi	s0,sp,432
   129ec:	6976                	ld	s2,344(sp)
   129ee:	7472                	ld	s0,312(sp)
   129f0:	6f69                	lui	t5,0x1a
   129f2:	6d2c                	ld	a1,88(a0)
   129f4:	696d                	lui	s2,0x1b
   129f6:	0000006f          	j	129f6 <dtb_start+0x31e>
   129fa:	0200                	addi	s0,sp,256
   129fc:	0000                	unimp
   129fe:	0100                	addi	s0,sp,128
   12a00:	6976                	ld	s2,344(sp)
   12a02:	7472                	ld	s0,312(sp)
   12a04:	6f69                	lui	t5,0x1a
   12a06:	6d5f 696d 406f      	0x406f696d6d5f
   12a0c:	3031                	0x3031
   12a0e:	3030                	fld	fa2,96(s0)
   12a10:	3036                	fld	ft0,360(sp)
   12a12:	3030                	fld	fa2,96(s0)
   12a14:	0000                	unimp
   12a16:	0000                	unimp
   12a18:	0000                	unimp
   12a1a:	0300                	addi	s0,sp,384
   12a1c:	0000                	unimp
   12a1e:	0400                	addi	s0,sp,512
   12a20:	0000                	unimp
   12a22:	5000                	lw	s0,32(s0)
   12a24:	0000                	unimp
   12a26:	0600                	addi	s0,sp,768
   12a28:	0000                	unimp
   12a2a:	0300                	addi	s0,sp,384
   12a2c:	0000                	unimp
   12a2e:	0400                	addi	s0,sp,512
   12a30:	0000                	unimp
   12a32:	5b00                	lw	s0,48(a4)
   12a34:	0000                	unimp
   12a36:	0300                	addi	s0,sp,384
   12a38:	0000                	unimp
   12a3a:	0300                	addi	s0,sp,384
   12a3c:	0000                	unimp
   12a3e:	1000                	addi	s0,sp,32
   12a40:	0000                	unimp
   12a42:	3700                	fld	fs0,40(a4)
   12a44:	0000                	unimp
   12a46:	0000                	unimp
   12a48:	0010                	addi	a2,sp,0
   12a4a:	0060                	addi	s0,sp,12
   12a4c:	0000                	unimp
   12a4e:	0000                	unimp
   12a50:	0000                	unimp
   12a52:	0010                	addi	a2,sp,0
   12a54:	0000                	unimp
   12a56:	0300                	addi	s0,sp,384
   12a58:	0000                	unimp
   12a5a:	0c00                	addi	s0,sp,528
   12a5c:	0000                	unimp
   12a5e:	1b00                	addi	s0,sp,432
   12a60:	6976                	ld	s2,344(sp)
   12a62:	7472                	ld	s0,312(sp)
   12a64:	6f69                	lui	t5,0x1a
   12a66:	6d2c                	ld	a1,88(a0)
   12a68:	696d                	lui	s2,0x1b
   12a6a:	0000006f          	j	12a6a <dtb_start+0x392>
   12a6e:	0200                	addi	s0,sp,256
   12a70:	0000                	unimp
   12a72:	0100                	addi	s0,sp,128
   12a74:	6976                	ld	s2,344(sp)
   12a76:	7472                	ld	s0,312(sp)
   12a78:	6f69                	lui	t5,0x1a
   12a7a:	6d5f 696d 406f      	0x406f696d6d5f
   12a80:	3031                	0x3031
   12a82:	3030                	fld	fa2,96(s0)
   12a84:	3035                	0x3035
   12a86:	3030                	fld	fa2,96(s0)
   12a88:	0000                	unimp
   12a8a:	0000                	unimp
   12a8c:	0000                	unimp
   12a8e:	0300                	addi	s0,sp,384
   12a90:	0000                	unimp
   12a92:	0400                	addi	s0,sp,512
   12a94:	0000                	unimp
   12a96:	5000                	lw	s0,32(s0)
   12a98:	0000                	unimp
   12a9a:	0500                	addi	s0,sp,640
   12a9c:	0000                	unimp
   12a9e:	0300                	addi	s0,sp,384
   12aa0:	0000                	unimp
   12aa2:	0400                	addi	s0,sp,512
   12aa4:	0000                	unimp
   12aa6:	5b00                	lw	s0,48(a4)
   12aa8:	0000                	unimp
   12aaa:	0300                	addi	s0,sp,384
   12aac:	0000                	unimp
   12aae:	0300                	addi	s0,sp,384
   12ab0:	0000                	unimp
   12ab2:	1000                	addi	s0,sp,32
   12ab4:	0000                	unimp
   12ab6:	3700                	fld	fs0,40(a4)
   12ab8:	0000                	unimp
   12aba:	0000                	unimp
   12abc:	0010                	addi	a2,sp,0
   12abe:	0050                	addi	a2,sp,4
   12ac0:	0000                	unimp
   12ac2:	0000                	unimp
   12ac4:	0000                	unimp
   12ac6:	0010                	addi	a2,sp,0
   12ac8:	0000                	unimp
   12aca:	0300                	addi	s0,sp,384
   12acc:	0000                	unimp
   12ace:	0c00                	addi	s0,sp,528
   12ad0:	0000                	unimp
   12ad2:	1b00                	addi	s0,sp,432
   12ad4:	6976                	ld	s2,344(sp)
   12ad6:	7472                	ld	s0,312(sp)
   12ad8:	6f69                	lui	t5,0x1a
   12ada:	6d2c                	ld	a1,88(a0)
   12adc:	696d                	lui	s2,0x1b
   12ade:	0000006f          	j	12ade <dtb_start+0x406>
   12ae2:	0200                	addi	s0,sp,256
   12ae4:	0000                	unimp
   12ae6:	0100                	addi	s0,sp,128
   12ae8:	6976                	ld	s2,344(sp)
   12aea:	7472                	ld	s0,312(sp)
   12aec:	6f69                	lui	t5,0x1a
   12aee:	6d5f 696d 406f      	0x406f696d6d5f
   12af4:	3031                	0x3031
   12af6:	3030                	fld	fa2,96(s0)
   12af8:	3034                	fld	fa3,96(s0)
   12afa:	3030                	fld	fa2,96(s0)
   12afc:	0000                	unimp
   12afe:	0000                	unimp
   12b00:	0000                	unimp
   12b02:	0300                	addi	s0,sp,384
   12b04:	0000                	unimp
   12b06:	0400                	addi	s0,sp,512
   12b08:	0000                	unimp
   12b0a:	5000                	lw	s0,32(s0)
   12b0c:	0000                	unimp
   12b0e:	0400                	addi	s0,sp,512
   12b10:	0000                	unimp
   12b12:	0300                	addi	s0,sp,384
   12b14:	0000                	unimp
   12b16:	0400                	addi	s0,sp,512
   12b18:	0000                	unimp
   12b1a:	5b00                	lw	s0,48(a4)
   12b1c:	0000                	unimp
   12b1e:	0300                	addi	s0,sp,384
   12b20:	0000                	unimp
   12b22:	0300                	addi	s0,sp,384
   12b24:	0000                	unimp
   12b26:	1000                	addi	s0,sp,32
   12b28:	0000                	unimp
   12b2a:	3700                	fld	fs0,40(a4)
   12b2c:	0000                	unimp
   12b2e:	0000                	unimp
   12b30:	0010                	addi	a2,sp,0
   12b32:	0040                	addi	s0,sp,4
   12b34:	0000                	unimp
   12b36:	0000                	unimp
   12b38:	0000                	unimp
   12b3a:	0010                	addi	a2,sp,0
   12b3c:	0000                	unimp
   12b3e:	0300                	addi	s0,sp,384
   12b40:	0000                	unimp
   12b42:	0c00                	addi	s0,sp,528
   12b44:	0000                	unimp
   12b46:	1b00                	addi	s0,sp,432
   12b48:	6976                	ld	s2,344(sp)
   12b4a:	7472                	ld	s0,312(sp)
   12b4c:	6f69                	lui	t5,0x1a
   12b4e:	6d2c                	ld	a1,88(a0)
   12b50:	696d                	lui	s2,0x1b
   12b52:	0000006f          	j	12b52 <dtb_start+0x47a>
   12b56:	0200                	addi	s0,sp,256
   12b58:	0000                	unimp
   12b5a:	0100                	addi	s0,sp,128
   12b5c:	6976                	ld	s2,344(sp)
   12b5e:	7472                	ld	s0,312(sp)
   12b60:	6f69                	lui	t5,0x1a
   12b62:	6d5f 696d 406f      	0x406f696d6d5f
   12b68:	3031                	0x3031
   12b6a:	3030                	fld	fa2,96(s0)
   12b6c:	30303033          	0x30303033
   12b70:	0000                	unimp
   12b72:	0000                	unimp
   12b74:	0000                	unimp
   12b76:	0300                	addi	s0,sp,384
   12b78:	0000                	unimp
   12b7a:	0400                	addi	s0,sp,512
   12b7c:	0000                	unimp
   12b7e:	5000                	lw	s0,32(s0)
   12b80:	0000                	unimp
   12b82:	0300                	addi	s0,sp,384
   12b84:	0000                	unimp
   12b86:	0300                	addi	s0,sp,384
   12b88:	0000                	unimp
   12b8a:	0400                	addi	s0,sp,512
   12b8c:	0000                	unimp
   12b8e:	5b00                	lw	s0,48(a4)
   12b90:	0000                	unimp
   12b92:	0300                	addi	s0,sp,384
   12b94:	0000                	unimp
   12b96:	0300                	addi	s0,sp,384
   12b98:	0000                	unimp
   12b9a:	1000                	addi	s0,sp,32
   12b9c:	0000                	unimp
   12b9e:	3700                	fld	fs0,40(a4)
   12ba0:	0000                	unimp
   12ba2:	0000                	unimp
   12ba4:	0010                	addi	a2,sp,0
   12ba6:	0030                	addi	a2,sp,8
   12ba8:	0000                	unimp
   12baa:	0000                	unimp
   12bac:	0000                	unimp
   12bae:	0010                	addi	a2,sp,0
   12bb0:	0000                	unimp
   12bb2:	0300                	addi	s0,sp,384
   12bb4:	0000                	unimp
   12bb6:	0c00                	addi	s0,sp,528
   12bb8:	0000                	unimp
   12bba:	1b00                	addi	s0,sp,432
   12bbc:	6976                	ld	s2,344(sp)
   12bbe:	7472                	ld	s0,312(sp)
   12bc0:	6f69                	lui	t5,0x1a
   12bc2:	6d2c                	ld	a1,88(a0)
   12bc4:	696d                	lui	s2,0x1b
   12bc6:	0000006f          	j	12bc6 <dtb_start+0x4ee>
   12bca:	0200                	addi	s0,sp,256
   12bcc:	0000                	unimp
   12bce:	0100                	addi	s0,sp,128
   12bd0:	6976                	ld	s2,344(sp)
   12bd2:	7472                	ld	s0,312(sp)
   12bd4:	6f69                	lui	t5,0x1a
   12bd6:	6d5f 696d 406f      	0x406f696d6d5f
   12bdc:	3031                	0x3031
   12bde:	3030                	fld	fa2,96(s0)
   12be0:	3032                	fld	ft0,296(sp)
   12be2:	3030                	fld	fa2,96(s0)
   12be4:	0000                	unimp
   12be6:	0000                	unimp
   12be8:	0000                	unimp
   12bea:	0300                	addi	s0,sp,384
   12bec:	0000                	unimp
   12bee:	0400                	addi	s0,sp,512
   12bf0:	0000                	unimp
   12bf2:	5000                	lw	s0,32(s0)
   12bf4:	0000                	unimp
   12bf6:	0200                	addi	s0,sp,256
   12bf8:	0000                	unimp
   12bfa:	0300                	addi	s0,sp,384
   12bfc:	0000                	unimp
   12bfe:	0400                	addi	s0,sp,512
   12c00:	0000                	unimp
   12c02:	5b00                	lw	s0,48(a4)
   12c04:	0000                	unimp
   12c06:	0300                	addi	s0,sp,384
   12c08:	0000                	unimp
   12c0a:	0300                	addi	s0,sp,384
   12c0c:	0000                	unimp
   12c0e:	1000                	addi	s0,sp,32
   12c10:	0000                	unimp
   12c12:	3700                	fld	fs0,40(a4)
   12c14:	0000                	unimp
   12c16:	0000                	unimp
   12c18:	0010                	addi	a2,sp,0
   12c1a:	0020                	addi	s0,sp,8
   12c1c:	0000                	unimp
   12c1e:	0000                	unimp
   12c20:	0000                	unimp
   12c22:	0010                	addi	a2,sp,0
   12c24:	0000                	unimp
   12c26:	0300                	addi	s0,sp,384
   12c28:	0000                	unimp
   12c2a:	0c00                	addi	s0,sp,528
   12c2c:	0000                	unimp
   12c2e:	1b00                	addi	s0,sp,432
   12c30:	6976                	ld	s2,344(sp)
   12c32:	7472                	ld	s0,312(sp)
   12c34:	6f69                	lui	t5,0x1a
   12c36:	6d2c                	ld	a1,88(a0)
   12c38:	696d                	lui	s2,0x1b
   12c3a:	0000006f          	j	12c3a <dtb_start+0x562>
   12c3e:	0200                	addi	s0,sp,256
   12c40:	0000                	unimp
   12c42:	0100                	addi	s0,sp,128
   12c44:	6976                	ld	s2,344(sp)
   12c46:	7472                	ld	s0,312(sp)
   12c48:	6f69                	lui	t5,0x1a
   12c4a:	6d5f 696d 406f      	0x406f696d6d5f
   12c50:	3031                	0x3031
   12c52:	3030                	fld	fa2,96(s0)
   12c54:	3031                	0x3031
   12c56:	3030                	fld	fa2,96(s0)
   12c58:	0000                	unimp
   12c5a:	0000                	unimp
   12c5c:	0000                	unimp
   12c5e:	0300                	addi	s0,sp,384
   12c60:	0000                	unimp
   12c62:	0400                	addi	s0,sp,512
   12c64:	0000                	unimp
   12c66:	5000                	lw	s0,32(s0)
   12c68:	0000                	unimp
   12c6a:	0100                	addi	s0,sp,128
   12c6c:	0000                	unimp
   12c6e:	0300                	addi	s0,sp,384
   12c70:	0000                	unimp
   12c72:	0400                	addi	s0,sp,512
   12c74:	0000                	unimp
   12c76:	5b00                	lw	s0,48(a4)
   12c78:	0000                	unimp
   12c7a:	0300                	addi	s0,sp,384
   12c7c:	0000                	unimp
   12c7e:	0300                	addi	s0,sp,384
   12c80:	0000                	unimp
   12c82:	1000                	addi	s0,sp,32
   12c84:	0000                	unimp
   12c86:	3700                	fld	fs0,40(a4)
   12c88:	0000                	unimp
   12c8a:	0000                	unimp
   12c8c:	0010                	addi	a2,sp,0
   12c8e:	0010                	addi	a2,sp,0
   12c90:	0000                	unimp
   12c92:	0000                	unimp
   12c94:	0000                	unimp
   12c96:	0010                	addi	a2,sp,0
   12c98:	0000                	unimp
   12c9a:	0300                	addi	s0,sp,384
   12c9c:	0000                	unimp
   12c9e:	0c00                	addi	s0,sp,528
   12ca0:	0000                	unimp
   12ca2:	1b00                	addi	s0,sp,432
   12ca4:	6976                	ld	s2,344(sp)
   12ca6:	7472                	ld	s0,312(sp)
   12ca8:	6f69                	lui	t5,0x1a
   12caa:	6d2c                	ld	a1,88(a0)
   12cac:	696d                	lui	s2,0x1b
   12cae:	0000006f          	j	12cae <dtb_start+0x5d6>
   12cb2:	0200                	addi	s0,sp,256
   12cb4:	0000                	unimp
   12cb6:	0100                	addi	s0,sp,128
   12cb8:	73757063          	bleu	s7,a0,133d8 <dtb_start+0xd00>
   12cbc:	0000                	unimp
   12cbe:	0000                	unimp
   12cc0:	0000                	unimp
   12cc2:	0300                	addi	s0,sp,384
   12cc4:	0000                	unimp
   12cc6:	0400                	addi	s0,sp,512
   12cc8:	0000                	unimp
   12cca:	0000                	unimp
   12ccc:	0000                	unimp
   12cce:	0100                	addi	s0,sp,128
   12cd0:	0000                	unimp
   12cd2:	0300                	addi	s0,sp,384
   12cd4:	0000                	unimp
   12cd6:	0400                	addi	s0,sp,512
   12cd8:	0000                	unimp
   12cda:	0f00                	addi	s0,sp,912
   12cdc:	0000                	unimp
   12cde:	0000                	unimp
   12ce0:	0000                	unimp
   12ce2:	0300                	addi	s0,sp,384
   12ce4:	0000                	unimp
   12ce6:	0400                	addi	s0,sp,512
   12ce8:	0000                	unimp
   12cea:	7c00                	ld	s0,56(s0)
   12cec:	9800                	0x9800
   12cee:	8096                	mv	ra,t0
   12cf0:	0000                	unimp
   12cf2:	0100                	addi	s0,sp,128
   12cf4:	2d757063          	bleu	s7,a0,12fb4 <dtb_start+0x8dc>
   12cf8:	616d                	addi	sp,sp,240
   12cfa:	0070                	addi	a2,sp,12
   12cfc:	0000                	unimp
   12cfe:	0100                	addi	s0,sp,128
   12d00:	73756c63          	bltu	a0,s7,13438 <GNSS_MISC_GPSSF_ENA>
   12d04:	6574                	ld	a3,200(a0)
   12d06:	3072                	fld	ft0,312(sp)
   12d08:	0000                	unimp
   12d0a:	0000                	unimp
   12d0c:	0000                	unimp
   12d0e:	0100                	addi	s0,sp,128
   12d10:	65726f63          	bltu	tp,s7,1336e <dtb_start+0xc96>
   12d14:	0030                	addi	a2,sp,8
   12d16:	0000                	unimp
   12d18:	0000                	unimp
   12d1a:	0300                	addi	s0,sp,384
   12d1c:	0000                	unimp
   12d1e:	0400                	addi	s0,sp,512
   12d20:	0000                	unimp
   12d22:	8f00                	0x8f00
   12d24:	0000                	unimp
   12d26:	0100                	addi	s0,sp,128
   12d28:	0000                	unimp
   12d2a:	0200                	addi	s0,sp,256
   12d2c:	0000                	unimp
   12d2e:	0200                	addi	s0,sp,256
   12d30:	0000                	unimp
   12d32:	0200                	addi	s0,sp,256
   12d34:	0000                	unimp
   12d36:	0100                	addi	s0,sp,128
   12d38:	40757063          	bleu	t2,a0,13138 <dtb_start+0xa60>
   12d3c:	0030                	addi	a2,sp,8
   12d3e:	0000                	unimp
   12d40:	0000                	unimp
   12d42:	0300                	addi	s0,sp,384
   12d44:	0000                	unimp
   12d46:	0400                	addi	s0,sp,512
   12d48:	0000                	unimp
   12d4a:	9300                	0x9300
   12d4c:	0000                	unimp
   12d4e:	0100                	addi	s0,sp,128
   12d50:	0000                	unimp
   12d52:	0300                	addi	s0,sp,384
   12d54:	0000                	unimp
   12d56:	0400                	addi	s0,sp,512
   12d58:	0000                	unimp
   12d5a:	9b00                	0x9b00
   12d5c:	00757063          	bleu	t2,a0,12d5c <dtb_start+0x684>
   12d60:	0000                	unimp
   12d62:	0300                	addi	s0,sp,384
   12d64:	0000                	unimp
   12d66:	0400                	addi	s0,sp,512
   12d68:	0000                	unimp
   12d6a:	3700                	fld	fs0,40(a4)
   12d6c:	0000                	unimp
   12d6e:	0000                	unimp
   12d70:	0000                	unimp
   12d72:	0300                	addi	s0,sp,384
   12d74:	0000                	unimp
   12d76:	0500                	addi	s0,sp,640
   12d78:	0000                	unimp
   12d7a:	a700                	fsd	fs0,8(a4)
   12d7c:	79616b6f          	jal	s6,29512 <_end+0x15eda>
   12d80:	0000                	unimp
   12d82:	0000                	unimp
   12d84:	0000                	unimp
   12d86:	0300                	addi	s0,sp,384
   12d88:	0000                	unimp
   12d8a:	0600                	addi	s0,sp,768
   12d8c:	0000                	unimp
   12d8e:	1b00                	addi	s0,sp,432
   12d90:	6972                	ld	s2,280(sp)
   12d92:	00766373          	csrrsi	t1,0x7,12
   12d96:	0000                	unimp
   12d98:	0000                	unimp
   12d9a:	0300                	addi	s0,sp,384
   12d9c:	0000                	unimp
   12d9e:	0d00                	addi	s0,sp,656
   12da0:	0000                	unimp
   12da2:	ae00                	fsd	fs0,24(a2)
   12da4:	7672                	ld	a2,312(sp)
   12da6:	3436                	fld	fs0,360(sp)
   12da8:	6d69                	lui	s10,0x1a
   12daa:	6661                	lui	a2,0x18
   12dac:	6364                	ld	s1,192(a4)
   12dae:	00007573          	csrrci	a0,0x0,0
   12db2:	0000                	unimp
   12db4:	0000                	unimp
   12db6:	0300                	addi	s0,sp,384
   12db8:	0000                	unimp
   12dba:	0b00                	addi	s0,sp,400
   12dbc:	0000                	unimp
   12dbe:	b800                	fsd	fs0,48(s0)
   12dc0:	6972                	ld	s2,280(sp)
   12dc2:	2c766373          	csrrsi	t1,0x2c7,12
   12dc6:	38347673          	csrrci	a2,0x383,8
   12dca:	0000                	unimp
   12dcc:	0000                	unimp
   12dce:	0100                	addi	s0,sp,128
   12dd0:	6e69                	lui	t3,0x1a
   12dd2:	6574                	ld	a3,200(a0)
   12dd4:	7272                	ld	tp,312(sp)
   12dd6:	7075                	0x7075
   12dd8:	2d74                	fld	fa3,216(a0)
   12dda:	746e6f63          	bltu	t3,t1,13538 <FSE2_STATE_SELCHAN>
   12dde:	6f72                	ld	t5,280(sp)
   12de0:	6c6c                	ld	a1,216(s0)
   12de2:	7265                	lui	tp,0xffff9
   12de4:	0000                	unimp
   12de6:	0000                	unimp
   12de8:	0000                	unimp
   12dea:	0300                	addi	s0,sp,384
   12dec:	0000                	unimp
   12dee:	0400                	addi	s0,sp,512
   12df0:	0000                	unimp
   12df2:	c100                	sw	s0,0(a0)
   12df4:	0000                	unimp
   12df6:	0100                	addi	s0,sp,128
   12df8:	0000                	unimp
   12dfa:	0300                	addi	s0,sp,384
   12dfc:	0000                	unimp
   12dfe:	0000                	unimp
   12e00:	0000                	unimp
   12e02:	d200                	sw	s0,32(a2)
   12e04:	0000                	unimp
   12e06:	0300                	addi	s0,sp,384
   12e08:	0000                	unimp
   12e0a:	0f00                	addi	s0,sp,912
   12e0c:	0000                	unimp
   12e0e:	1b00                	addi	s0,sp,432
   12e10:	6972                	ld	s2,280(sp)
   12e12:	2c766373          	csrrsi	t1,0x2c7,12
   12e16:	2d757063          	bleu	s7,a0,130d6 <dtb_start+0x9fe>
   12e1a:	6e69                	lui	t3,0x1a
   12e1c:	6374                	ld	a3,192(a4)
   12e1e:	0000                	unimp
   12e20:	0000                	unimp
   12e22:	0300                	addi	s0,sp,384
   12e24:	0000                	unimp
   12e26:	0400                	addi	s0,sp,512
   12e28:	0000                	unimp
   12e2a:	9300                	0x9300
   12e2c:	0000                	unimp
   12e2e:	0200                	addi	s0,sp,256
   12e30:	0000                	unimp
   12e32:	0200                	addi	s0,sp,256
   12e34:	0000                	unimp
   12e36:	0200                	addi	s0,sp,256
   12e38:	0000                	unimp
   12e3a:	0200                	addi	s0,sp,256
   12e3c:	0000                	unimp
   12e3e:	0100                	addi	s0,sp,128
   12e40:	656d                	lui	a0,0x1b
   12e42:	6f6d                	lui	t5,0x1b
   12e44:	7972                	ld	s2,312(sp)
   12e46:	3840                	fld	fs0,176(s0)
   12e48:	3030                	fld	fa2,96(s0)
   12e4a:	3030                	fld	fa2,96(s0)
   12e4c:	3030                	fld	fa2,96(s0)
   12e4e:	0030                	addi	a2,sp,8
   12e50:	0000                	unimp
   12e52:	0300                	addi	s0,sp,384
   12e54:	0000                	unimp
   12e56:	0700                	addi	s0,sp,896
   12e58:	0000                	unimp
   12e5a:	9b00                	0x9b00
   12e5c:	656d                	lui	a0,0x1b
   12e5e:	6f6d                	lui	t5,0x1b
   12e60:	7972                	ld	s2,312(sp)
   12e62:	0000                	unimp
   12e64:	0000                	unimp
   12e66:	0300                	addi	s0,sp,384
   12e68:	0000                	unimp
   12e6a:	1000                	addi	s0,sp,32
   12e6c:	0000                	unimp
   12e6e:	3700                	fld	fs0,40(a4)
   12e70:	0000                	unimp
   12e72:	0000                	unimp
   12e74:	0080                	addi	s0,sp,64
   12e76:	0000                	unimp
   12e78:	0000                	unimp
   12e7a:	0000                	unimp
   12e7c:	0020                	addi	s0,sp,8
   12e7e:	0000                	unimp
   12e80:	0000                	unimp
   12e82:	0200                	addi	s0,sp,256
   12e84:	0000                	unimp
   12e86:	0100                	addi	s0,sp,128
   12e88:	00636f73          	csrrsi	t5,0x6,6
   12e8c:	0000                	unimp
   12e8e:	0300                	addi	s0,sp,384
   12e90:	0000                	unimp
   12e92:	0400                	addi	s0,sp,512
   12e94:	0000                	unimp
   12e96:	0000                	unimp
   12e98:	0000                	unimp
   12e9a:	0200                	addi	s0,sp,256
   12e9c:	0000                	unimp
   12e9e:	0300                	addi	s0,sp,384
   12ea0:	0000                	unimp
   12ea2:	0400                	addi	s0,sp,512
   12ea4:	0000                	unimp
   12ea6:	0f00                	addi	s0,sp,912
   12ea8:	0000                	unimp
   12eaa:	0200                	addi	s0,sp,256
   12eac:	0000                	unimp
   12eae:	0300                	addi	s0,sp,384
   12eb0:	0000                	unimp
   12eb2:	0b00                	addi	s0,sp,400
   12eb4:	0000                	unimp
   12eb6:	1b00                	addi	s0,sp,432
   12eb8:	706d6973          	csrrsi	s2,0x706,26
   12ebc:	656c                	ld	a1,200(a0)
   12ebe:	622d                	lui	tp,0xb
   12ec0:	7375                	lui	t1,0xffffd
   12ec2:	0000                	unimp
   12ec4:	0000                	unimp
   12ec6:	0300                	addi	s0,sp,384
   12ec8:	0000                	unimp
   12eca:	0000                	unimp
   12ecc:	0000                	unimp
   12ece:	e700                	sd	s0,8(a4)
   12ed0:	0000                	unimp
   12ed2:	0100                	addi	s0,sp,128
   12ed4:	6370                	ld	a2,192(a4)
   12ed6:	4069                	0x4069
   12ed8:	30303033          	0x30303033
   12edc:	3030                	fld	fa2,96(s0)
   12ede:	3030                	fld	fa2,96(s0)
   12ee0:	0000                	unimp
   12ee2:	0000                	unimp
   12ee4:	0000                	unimp
   12ee6:	0300                	addi	s0,sp,384
   12ee8:	0000                	unimp
   12eea:	1000                	addi	s0,sp,32
   12eec:	0000                	unimp
   12eee:	ee00                	sd	s0,24(a2)
   12ef0:	0000                	unimp
   12ef2:	0018                	addi	a4,sp,0
   12ef4:	0000                	unimp
   12ef6:	0000                	unimp
   12ef8:	0000                	unimp
   12efa:	0000                	unimp
   12efc:	0000                	unimp
   12efe:	0700                	addi	s0,sp,896
   12f00:	0000                	unimp
   12f02:	0300                	addi	s0,sp,384
   12f04:	0000                	unimp
   12f06:	8001                	srli	s0,s0,0x0
   12f08:	0000                	unimp
   12f0a:	0101                	addi	sp,sp,0
   12f0c:	0000                	unimp
   12f0e:	0000                	unimp
   12f10:	0000                	unimp
   12f12:	0000                	unimp
   12f14:	0000                	unimp
   12f16:	0000                	unimp
   12f18:	0000                	unimp
   12f1a:	0100                	addi	s0,sp,128
   12f1c:	0000                	unimp
   12f1e:	0300                	addi	s0,sp,384
   12f20:	0000                	unimp
   12f22:	2000                	fld	fs0,0(s0)
   12f24:	0000                	unimp
   12f26:	0000                	unimp
   12f28:	0000                	unimp
   12f2a:	0000                	unimp
   12f2c:	0000                	unimp
   12f2e:	0000                	unimp
   12f30:	0000                	unimp
   12f32:	0200                	addi	s0,sp,256
   12f34:	0000                	unimp
   12f36:	0300                	addi	s0,sp,384
   12f38:	0000                	unimp
   12f3a:	2100                	fld	fs0,0(a0)
   12f3c:	0000                	unimp
   12f3e:	0000                	unimp
   12f40:	0000                	unimp
   12f42:	0000                	unimp
   12f44:	0000                	unimp
   12f46:	0000                	unimp
   12f48:	0000                	unimp
   12f4a:	0300                	addi	s0,sp,384
   12f4c:	0000                	unimp
   12f4e:	0300                	addi	s0,sp,384
   12f50:	0000                	unimp
   12f52:	2200                	fld	fs0,0(a2)
   12f54:	0000                	unimp
   12f56:	0000                	unimp
   12f58:	0000                	unimp
   12f5a:	0000                	unimp
   12f5c:	0000                	unimp
   12f5e:	0000                	unimp
   12f60:	0000                	unimp
   12f62:	0400                	addi	s0,sp,512
   12f64:	0000                	unimp
   12f66:	0300                	addi	s0,sp,384
   12f68:	0000                	unimp
   12f6a:	2300                	fld	fs0,0(a4)
   12f6c:	0000                	unimp
   12f6e:	0008                	addi	a0,sp,0
   12f70:	0000                	unimp
   12f72:	0000                	unimp
   12f74:	0000                	unimp
   12f76:	0000                	unimp
   12f78:	0000                	unimp
   12f7a:	0100                	addi	s0,sp,128
   12f7c:	0000                	unimp
   12f7e:	0300                	addi	s0,sp,384
   12f80:	0000                	unimp
   12f82:	2100                	fld	fs0,0(a0)
   12f84:	0000                	unimp
   12f86:	0008                	addi	a0,sp,0
   12f88:	0000                	unimp
   12f8a:	0000                	unimp
   12f8c:	0000                	unimp
   12f8e:	0000                	unimp
   12f90:	0000                	unimp
   12f92:	0200                	addi	s0,sp,256
   12f94:	0000                	unimp
   12f96:	0300                	addi	s0,sp,384
   12f98:	0000                	unimp
   12f9a:	2200                	fld	fs0,0(a2)
   12f9c:	0000                	unimp
   12f9e:	0008                	addi	a0,sp,0
   12fa0:	0000                	unimp
   12fa2:	0000                	unimp
   12fa4:	0000                	unimp
   12fa6:	0000                	unimp
   12fa8:	0000                	unimp
   12faa:	0300                	addi	s0,sp,384
   12fac:	0000                	unimp
   12fae:	0300                	addi	s0,sp,384
   12fb0:	0000                	unimp
   12fb2:	2300                	fld	fs0,0(a4)
   12fb4:	0000                	unimp
   12fb6:	0008                	addi	a0,sp,0
   12fb8:	0000                	unimp
   12fba:	0000                	unimp
   12fbc:	0000                	unimp
   12fbe:	0000                	unimp
   12fc0:	0000                	unimp
   12fc2:	0400                	addi	s0,sp,512
   12fc4:	0000                	unimp
   12fc6:	0300                	addi	s0,sp,384
   12fc8:	0000                	unimp
   12fca:	2000                	fld	fs0,0(s0)
   12fcc:	0000                	unimp
   12fce:	0010                	addi	a2,sp,0
   12fd0:	0000                	unimp
   12fd2:	0000                	unimp
   12fd4:	0000                	unimp
   12fd6:	0000                	unimp
   12fd8:	0000                	unimp
   12fda:	0100                	addi	s0,sp,128
   12fdc:	0000                	unimp
   12fde:	0300                	addi	s0,sp,384
   12fe0:	0000                	unimp
   12fe2:	2200                	fld	fs0,0(a2)
   12fe4:	0000                	unimp
   12fe6:	0010                	addi	a2,sp,0
   12fe8:	0000                	unimp
   12fea:	0000                	unimp
   12fec:	0000                	unimp
   12fee:	0000                	unimp
   12ff0:	0000                	unimp
   12ff2:	0200                	addi	s0,sp,256
   12ff4:	0000                	unimp
   12ff6:	0300                	addi	s0,sp,384
   12ff8:	0000                	unimp
   12ffa:	2300                	fld	fs0,0(a4)
   12ffc:	0000                	unimp
   12ffe:	0010                	addi	a2,sp,0
   13000:	0000                	unimp
   13002:	0000                	unimp
   13004:	0000                	unimp
   13006:	0000                	unimp
   13008:	0000                	unimp
   1300a:	0300                	addi	s0,sp,384
   1300c:	0000                	unimp
   1300e:	0300                	addi	s0,sp,384
   13010:	0000                	unimp
   13012:	2000                	fld	fs0,0(s0)
   13014:	0000                	unimp
   13016:	0010                	addi	a2,sp,0
   13018:	0000                	unimp
   1301a:	0000                	unimp
   1301c:	0000                	unimp
   1301e:	0000                	unimp
   13020:	0000                	unimp
   13022:	0400                	addi	s0,sp,512
   13024:	0000                	unimp
   13026:	0300                	addi	s0,sp,384
   13028:	0000                	unimp
   1302a:	2100                	fld	fs0,0(a0)
   1302c:	0000                	unimp
   1302e:	0018                	addi	a4,sp,0
   13030:	0000                	unimp
   13032:	0000                	unimp
   13034:	0000                	unimp
   13036:	0000                	unimp
   13038:	0000                	unimp
   1303a:	0100                	addi	s0,sp,128
   1303c:	0000                	unimp
   1303e:	0300                	addi	s0,sp,384
   13040:	0000                	unimp
   13042:	2300                	fld	fs0,0(a4)
   13044:	0000                	unimp
   13046:	0018                	addi	a4,sp,0
   13048:	0000                	unimp
   1304a:	0000                	unimp
   1304c:	0000                	unimp
   1304e:	0000                	unimp
   13050:	0000                	unimp
   13052:	0200                	addi	s0,sp,256
   13054:	0000                	unimp
   13056:	0300                	addi	s0,sp,384
   13058:	0000                	unimp
   1305a:	2000                	fld	fs0,0(s0)
   1305c:	0000                	unimp
   1305e:	0018                	addi	a4,sp,0
   13060:	0000                	unimp
   13062:	0000                	unimp
   13064:	0000                	unimp
   13066:	0000                	unimp
   13068:	0000                	unimp
   1306a:	0300                	addi	s0,sp,384
   1306c:	0000                	unimp
   1306e:	0300                	addi	s0,sp,384
   13070:	0000                	unimp
   13072:	2100                	fld	fs0,0(a0)
   13074:	0000                	unimp
   13076:	0018                	addi	a4,sp,0
   13078:	0000                	unimp
   1307a:	0000                	unimp
   1307c:	0000                	unimp
   1307e:	0000                	unimp
   13080:	0000                	unimp
   13082:	0400                	addi	s0,sp,512
   13084:	0000                	unimp
   13086:	0300                	addi	s0,sp,384
   13088:	0000                	unimp
   1308a:	2200                	fld	fs0,0(a2)
   1308c:	0000                	unimp
   1308e:	0300                	addi	s0,sp,384
   13090:	0000                	unimp
   13092:	3800                	fld	fs0,48(s0)
   13094:	0000                	unimp
   13096:	e700                	sd	s0,8(a4)
   13098:	0001                	nop
   1309a:	0000                	unimp
   1309c:	0000                	unimp
   1309e:	0000                	unimp
   130a0:	0000                	unimp
   130a2:	0000                	unimp
   130a4:	0000                	unimp
   130a6:	0000                	unimp
   130a8:	00000003          	lb	zero,0(zero) # 30303000 <_end+0x302ef9c8>
   130ac:	0000                	unimp
   130ae:	0000                	unimp
   130b0:	0100                	addi	s0,sp,128
   130b2:	0000                	unimp
   130b4:	0002                	0x2
   130b6:	0000                	unimp
   130b8:	0000                	unimp
   130ba:	0000                	unimp
   130bc:	0040                	addi	s0,sp,4
   130be:	0000                	unimp
   130c0:	0000                	unimp
   130c2:	0000                	unimp
   130c4:	0040                	addi	s0,sp,4
   130c6:	0000                	unimp
   130c8:	0000                	unimp
   130ca:	0000                	unimp
   130cc:	0040                	addi	s0,sp,4
   130ce:	0000                	unimp
   130d0:	0000                	unimp
   130d2:	0300                	addi	s0,sp,384
   130d4:	0000                	unimp
   130d6:	1000                	addi	s0,sp,32
   130d8:	0000                	unimp
   130da:	3700                	fld	fs0,40(a4)
   130dc:	0000                	unimp
   130de:	0000                	unimp
   130e0:	0030                	addi	a2,sp,8
   130e2:	0000                	unimp
   130e4:	0000                	unimp
   130e6:	0000                	unimp
   130e8:	0010                	addi	a2,sp,0
   130ea:	0000                	unimp
   130ec:	0000                	unimp
   130ee:	0300                	addi	s0,sp,384
   130f0:	0000                	unimp
   130f2:	0000                	unimp
   130f4:	0000                	unimp
   130f6:	0f01                	addi	t5,t5,0
   130f8:	0000                	unimp
   130fa:	0300                	addi	s0,sp,384
   130fc:	0000                	unimp
   130fe:	0800                	addi	s0,sp,16
   13100:	0000                	unimp
   13102:	1c01                	addi	s8,s8,-32
   13104:	0000                	unimp
   13106:	0000                	unimp
   13108:	0000                	unimp
   1310a:	ff00                	sd	s0,56(a4)
   1310c:	0000                	unimp
   1310e:	0300                	addi	s0,sp,384
   13110:	0000                	unimp
   13112:	0400                	addi	s0,sp,512
   13114:	0000                	unimp
   13116:	2601                	sext.w	a2,a2
   13118:	0000                	unimp
   1311a:	0000                	unimp
   1311c:	0000                	unimp
   1311e:	0300                	addi	s0,sp,384
   13120:	0000                	unimp
   13122:	0400                	addi	s0,sp,512
   13124:	0000                	unimp
   13126:	9b00                	0x9b00
   13128:	6370                	ld	a2,192(a4)
   1312a:	0069                	c.addi	zero,26
   1312c:	0000                	unimp
   1312e:	0300                	addi	s0,sp,384
   13130:	0000                	unimp
   13132:	1600                	addi	s0,sp,800
   13134:	0000                	unimp
   13136:	1b00                	addi	s0,sp,432
   13138:	6370                	ld	a2,192(a4)
   1313a:	2d69                	addiw	s10,s10,26
   1313c:	6f68                	ld	a0,216(a4)
   1313e:	652d7473          	csrrci	s0,0x652,26
   13142:	2d6d6163          	bltu	s10,s6,13404 <dtb_start+0xd2c>
   13146:	656e6567          	0x656e6567
   1314a:	6972                	ld	s2,280(sp)
   1314c:	00000063          	beqz	zero,1314c <dtb_start+0xa74>
   13150:	0000                	unimp
   13152:	0300                	addi	s0,sp,384
   13154:	0000                	unimp
   13156:	0400                	addi	s0,sp,512
   13158:	0000                	unimp
   1315a:	0f00                	addi	s0,sp,912
   1315c:	0000                	unimp
   1315e:	0200                	addi	s0,sp,256
   13160:	0000                	unimp
   13162:	0300                	addi	s0,sp,384
   13164:	0000                	unimp
   13166:	0400                	addi	s0,sp,512
   13168:	0000                	unimp
   1316a:	c100                	sw	s0,0(a0)
   1316c:	0000                	unimp
   1316e:	0100                	addi	s0,sp,128
   13170:	0000                	unimp
   13172:	0300                	addi	s0,sp,384
   13174:	0000                	unimp
   13176:	0400                	addi	s0,sp,512
   13178:	0000                	unimp
   1317a:	0000                	unimp
   1317c:	0000                	unimp
   1317e:	0300                	addi	s0,sp,384
   13180:	0000                	unimp
   13182:	0200                	addi	s0,sp,256
   13184:	0000                	unimp
   13186:	0100                	addi	s0,sp,128
   13188:	6e69                	lui	t3,0x1a
   1318a:	6574                	ld	a3,200(a0)
   1318c:	7272                	ld	tp,312(sp)
   1318e:	7075                	0x7075
   13190:	2d74                	fld	fa3,216(a0)
   13192:	746e6f63          	bltu	t3,t1,138f0 <_end+0x2b8>
   13196:	6f72                	ld	t5,280(sp)
   13198:	6c6c                	ld	a1,216(s0)
   1319a:	7265                	lui	tp,0xffff9
   1319c:	6340                	ld	s0,128(a4)
   1319e:	3030                	fld	fa2,96(s0)
   131a0:	3030                	fld	fa2,96(s0)
   131a2:	3030                	fld	fa2,96(s0)
   131a4:	0000                	unimp
   131a6:	0000                	unimp
   131a8:	0000                	unimp
   131aa:	0300                	addi	s0,sp,384
   131ac:	0000                	unimp
   131ae:	0400                	addi	s0,sp,512
   131b0:	0000                	unimp
   131b2:	9300                	0x9300
   131b4:	0000                	unimp
   131b6:	0300                	addi	s0,sp,384
   131b8:	0000                	unimp
   131ba:	0300                	addi	s0,sp,384
   131bc:	0000                	unimp
   131be:	0400                	addi	s0,sp,512
   131c0:	0000                	unimp
   131c2:	3701                	addiw	a4,a4,-32
   131c4:	0000                	unimp
   131c6:	3500                	fld	fs0,40(a0)
   131c8:	0000                	unimp
   131ca:	0300                	addi	s0,sp,384
   131cc:	0000                	unimp
   131ce:	1000                	addi	s0,sp,32
   131d0:	0000                	unimp
   131d2:	3700                	fld	fs0,40(a4)
   131d4:	0000                	unimp
   131d6:	0000                	unimp
   131d8:	000c                	addi	a1,sp,0
   131da:	0000                	unimp
   131dc:	0000                	unimp
   131de:	0000                	unimp
   131e0:	0004                	addi	s1,sp,0
   131e2:	0000                	unimp
   131e4:	0000                	unimp
   131e6:	0300                	addi	s0,sp,384
   131e8:	0000                	unimp
   131ea:	1000                	addi	s0,sp,32
   131ec:	0000                	unimp
   131ee:	4201                	li	tp,0
   131f0:	0000                	unimp
   131f2:	0200                	addi	s0,sp,256
   131f4:	0000                	unimp
   131f6:	0b00                	addi	s0,sp,400
   131f8:	0000                	unimp
   131fa:	0200                	addi	s0,sp,256
   131fc:	0000                	unimp
   131fe:	0900                	addi	s0,sp,144
   13200:	0000                	unimp
   13202:	0300                	addi	s0,sp,384
   13204:	0000                	unimp
   13206:	0000                	unimp
   13208:	0000                	unimp
   1320a:	d200                	sw	s0,32(a2)
   1320c:	0000                	unimp
   1320e:	0300                	addi	s0,sp,384
   13210:	0000                	unimp
   13212:	0c00                	addi	s0,sp,528
   13214:	0000                	unimp
   13216:	1b00                	addi	s0,sp,432
   13218:	6972                	ld	s2,280(sp)
   1321a:	2c766373          	csrrsi	t1,0x2c7,12
   1321e:	6c70                	ld	a2,216(s0)
   13220:	6369                	lui	t1,0x1a
   13222:	0030                	addi	a2,sp,8
   13224:	0000                	unimp
   13226:	0300                	addi	s0,sp,384
   13228:	0000                	unimp
   1322a:	0400                	addi	s0,sp,512
   1322c:	0000                	unimp
   1322e:	c100                	sw	s0,0(a0)
   13230:	0000                	unimp
   13232:	0100                	addi	s0,sp,128
   13234:	0000                	unimp
   13236:	0300                	addi	s0,sp,384
   13238:	0000                	unimp
   1323a:	0400                	addi	s0,sp,512
   1323c:	0000                	unimp
   1323e:	0000                	unimp
   13240:	0000                	unimp
   13242:	0000                	unimp
   13244:	0000                	unimp
   13246:	0200                	addi	s0,sp,256
   13248:	0000                	unimp
   1324a:	0100                	addi	s0,sp,128
   1324c:	6e696c63          	bltu	s2,t1,13944 <_end+0x30c>
   13250:	4074                	lw	a3,68(s0)
   13252:	3032                	fld	ft0,296(sp)
   13254:	3030                	fld	fa2,96(s0)
   13256:	3030                	fld	fa2,96(s0)
   13258:	0030                	addi	a2,sp,8
   1325a:	0000                	unimp
   1325c:	0000                	unimp
   1325e:	0300                	addi	s0,sp,384
   13260:	0000                	unimp
   13262:	1000                	addi	s0,sp,32
   13264:	0000                	unimp
   13266:	4201                	li	tp,0
   13268:	0000                	unimp
   1326a:	0200                	addi	s0,sp,256
   1326c:	0000                	unimp
   1326e:	0300                	addi	s0,sp,384
   13270:	0000                	unimp
   13272:	0200                	addi	s0,sp,256
   13274:	0000                	unimp
   13276:	0700                	addi	s0,sp,896
   13278:	0000                	unimp
   1327a:	0300                	addi	s0,sp,384
   1327c:	0000                	unimp
   1327e:	1000                	addi	s0,sp,32
   13280:	0000                	unimp
   13282:	3700                	fld	fs0,40(a4)
   13284:	0000                	unimp
   13286:	0000                	unimp
   13288:	0002                	0x2
   1328a:	0000                	unimp
   1328c:	0000                	unimp
   1328e:	0000                	unimp
   13290:	0100                	addi	s0,sp,128
   13292:	0000                	unimp
   13294:	0000                	unimp
   13296:	0300                	addi	s0,sp,384
   13298:	0000                	unimp
   1329a:	0d00                	addi	s0,sp,656
   1329c:	0000                	unimp
   1329e:	1b00                	addi	s0,sp,432
   132a0:	6972                	ld	s2,280(sp)
   132a2:	2c766373          	csrrsi	t1,0x2c7,12
   132a6:	6e696c63          	bltu	s2,t1,1399e <_end+0x366>
   132aa:	3074                	fld	fa3,224(s0)
   132ac:	0000                	unimp
   132ae:	0000                	unimp
   132b0:	0000                	unimp
   132b2:	0200                	addi	s0,sp,256
   132b4:	0000                	unimp
   132b6:	0200                	addi	s0,sp,256
   132b8:	0000                	unimp
   132ba:	0200                	addi	s0,sp,256
   132bc:	0000                	unimp
   132be:	0900                	addi	s0,sp,144
   132c0:	64646123          	0x64646123
   132c4:	6572                	ld	a0,280(sp)
   132c6:	632d7373          	csrrci	t1,0x632,26
   132ca:	6c65                	lui	s8,0x19
   132cc:	736c                	ld	a1,224(a4)
   132ce:	2300                	fld	fs0,0(a4)
   132d0:	657a6973          	csrrsi	s2,0x657,20
   132d4:	632d                	lui	t1,0xb
   132d6:	6c65                	lui	s8,0x19
   132d8:	736c                	ld	a1,224(a4)
   132da:	6300                	ld	s0,0(a4)
   132dc:	61706d6f          	jal	s10,1a0f2 <_end+0x6aba>
   132e0:	6974                	ld	a3,208(a0)
   132e2:	6c62                	ld	s8,24(sp)
   132e4:	0065                	c.addi	zero,25
   132e6:	6f6d                	lui	t5,0x1b
   132e8:	6564                	ld	s1,200(a0)
   132ea:	006c                	addi	a1,sp,12
   132ec:	6162                	ld	sp,24(sp)
   132ee:	6b6e                	ld	s6,216(sp)
   132f0:	772d                	lui	a4,0xfffeb
   132f2:	6469                	lui	s0,0x1a
   132f4:	6874                	ld	a3,208(s0)
   132f6:	7200                	ld	s0,32(a2)
   132f8:	6765                	lui	a4,0x19
   132fa:	6200                	ld	s0,0(a2)
   132fc:	61746f6f          	jal	t5,5a112 <_end+0x46ada>
   13300:	6772                	ld	a4,280(sp)
   13302:	74730073          	0x74730073
   13306:	6f64                	ld	s1,216(a4)
   13308:	7475                	lui	s0,0xffffd
   1330a:	702d                	0x702d
   1330c:	7461                	lui	s0,0xffff8
   1330e:	0068                	addi	a0,sp,12
   13310:	6e69                	lui	t3,0x1a
   13312:	6574                	ld	a3,200(a0)
   13314:	7272                	ld	tp,312(sp)
   13316:	7075                	0x7075
   13318:	7374                	ld	a3,224(a4)
   1331a:	6900                	ld	s0,16(a0)
   1331c:	746e                	ld	s0,248(sp)
   1331e:	7265                	lui	tp,0xffff9
   13320:	7572                	ld	a0,312(sp)
   13322:	7470                	ld	a2,232(s0)
   13324:	702d                	0x702d
   13326:	7261                	lui	tp,0xffff8
   13328:	6e65                	lui	t3,0x19
   1332a:	0074                	addi	a3,sp,12
   1332c:	636f6c63          	bltu	t5,s6,13964 <_end+0x32c>
   13330:	72662d6b          	0x72662d6b
   13334:	7165                	addi	sp,sp,-400
   13336:	6575                	lui	a0,0x1d
   13338:	636e                	ld	t1,216(sp)
   1333a:	0079                	c.addi	zero,30
   1333c:	6974                	ld	a3,208(a0)
   1333e:	656d                	lui	a0,0x1b
   13340:	6162                	ld	sp,24(sp)
   13342:	662d6573          	csrrsi	a0,0x662,26
   13346:	6572                	ld	a0,280(sp)
   13348:	7571                	lui	a0,0xffffc
   1334a:	6e65                	lui	t3,0x19
   1334c:	63007963          	bleu	a6,zero,1397e <_end+0x346>
   13350:	7570                	ld	a2,232(a0)
   13352:	7000                	ld	s0,32(s0)
   13354:	6168                	ld	a0,192(a0)
   13356:	646e                	ld	s0,216(sp)
   13358:	656c                	ld	a1,200(a0)
   1335a:	6400                	ld	s0,8(s0)
   1335c:	7665                	lui	a2,0xffff9
   1335e:	6369                	lui	t1,0x1a
   13360:	5f65                	li	t5,-7
   13362:	7974                	ld	a3,240(a0)
   13364:	6570                	ld	a2,200(a0)
   13366:	7300                	ld	s0,32(a4)
   13368:	6174                	ld	a3,192(a0)
   1336a:	7574                	ld	a3,232(a0)
   1336c:	69720073          	0x69720073
   13370:	2c766373          	csrrsi	t1,0x2c7,12
   13374:	7369                	lui	t1,0xffffa
   13376:	0061                	c.addi	zero,24
   13378:	6d6d                	lui	s10,0x1b
   1337a:	2d75                	addiw	s10,s10,29
   1337c:	7974                	ld	a3,240(a0)
   1337e:	6570                	ld	a2,200(a0)
   13380:	2300                	fld	fs0,0(a4)
   13382:	6e69                	lui	t3,0x1a
   13384:	6574                	ld	a3,200(a0)
   13386:	7272                	ld	tp,312(sp)
   13388:	7075                	0x7075
   1338a:	2d74                	fld	fa3,216(a0)
   1338c:	6c6c6563          	bltu	s8,t1,13a56 <_end+0x41e>
   13390:	6e690073          	0x6e690073
   13394:	6574                	ld	a3,200(a0)
   13396:	7272                	ld	tp,312(sp)
   13398:	7075                	0x7075
   1339a:	2d74                	fld	fa3,216(a0)
   1339c:	746e6f63          	bltu	t3,t1,13afa <_end+0x4c2>
   133a0:	6f72                	ld	t5,280(sp)
   133a2:	6c6c                	ld	a1,216(s0)
   133a4:	7265                	lui	tp,0xffff9
   133a6:	7200                	ld	s0,32(a2)
   133a8:	6e61                	lui	t3,0x18
   133aa:	00736567          	0x736567
   133ae:	6e69                	lui	t3,0x1a
   133b0:	6574                	ld	a3,200(a0)
   133b2:	7272                	ld	tp,312(sp)
   133b4:	7075                	0x7075
   133b6:	2d74                	fld	fa3,216(a0)
   133b8:	616d                	addi	sp,sp,240
   133ba:	2d70                	fld	fa2,216(a0)
   133bc:	616d                	addi	sp,sp,240
   133be:	69006b73          	csrrsi	s6,0x690,0
   133c2:	746e                	ld	s0,248(sp)
   133c4:	7265                	lui	tp,0xffff9
   133c6:	7572                	ld	a0,312(sp)
   133c8:	7470                	ld	a2,232(s0)
   133ca:	6d2d                	lui	s10,0xb
   133cc:	7061                	0x7061
   133ce:	6400                	ld	s0,8(s0)
   133d0:	616d                	addi	sp,sp,240
   133d2:	632d                	lui	t1,0xb
   133d4:	7265686f          	jal	a6,69afa <_end+0x564c2>
   133d8:	6e65                	lui	t3,0x19
   133da:	0074                	addi	a3,sp,12
   133dc:	7562                	ld	a0,56(sp)
   133de:	61722d73          	csrrs	s10,0x617,tp
   133e2:	676e                	ld	a4,216(sp)
   133e4:	0065                	c.addi	zero,25
   133e6:	696c                	ld	a1,208(a0)
   133e8:	756e                	ld	a0,248(sp)
   133ea:	2c78                	fld	fa4,216(s0)
   133ec:	6370                	ld	a2,192(a4)
   133ee:	2d69                	addiw	s10,s10,26
   133f0:	6f64                	ld	s1,216(a4)
   133f2:	616d                	addi	sp,sp,240
   133f4:	6e69                	lui	t3,0x1a
   133f6:	7200                	ld	s0,32(a2)
   133f8:	7369                	lui	t1,0xffffa
   133fa:	6e2c7663          	bleu	sp,s8,13ae6 <_end+0x4ae>
   133fe:	6564                	ld	s1,200(a0)
   13400:	0076                	0x76
   13402:	6e69                	lui	t3,0x1a
   13404:	6574                	ld	a3,200(a0)
   13406:	7272                	ld	tp,312(sp)
   13408:	7075                	0x7075
   1340a:	7374                	ld	a3,224(a4)
   1340c:	652d                	lui	a0,0xb
   1340e:	7478                	ld	a4,232(s0)
   13410:	6e65                	lui	t3,0x19
   13412:	6564                	ld	s1,200(a0)
   13414:	0064                	addi	s1,sp,12
